 cgame_mp_x86

 Timestamp is 5dcb113e (Tue Nov 12 21:08:30 2019)

 Preferred load address is 30000000

 Start         Length     Name                   Class
 0001:00000000 000ba593H .text$mn                CODE
 0002:00000000 00000298H .idata$5                DATA
 0002:00000298 00000004H .00cfg                  DATA
 0002:0000029c 00000004H .CRT$XCA                DATA
 0002:000002a0 00000004H .CRT$XCZ                DATA
 0002:000002a4 00000004H .CRT$XIA                DATA
 0002:000002a8 00000004H .CRT$XIZ                DATA
 0002:000002ac 00000004H .CRT$XPA                DATA
 0002:000002b0 00000004H .CRT$XPZ                DATA
 0002:000002b4 00000004H .CRT$XTA                DATA
 0002:000002b8 00000008H .CRT$XTZ                DATA
 0002:000002bc 00000000H .gfids$y                DATA
 0002:000002c0 00019290H .rdata                  DATA
 0002:00019550 00000004H .rdata$sxdata           DATA
 0002:00019554 000002a4H .rdata$zzzdbg           DATA
 0002:000197f8 00000004H .rtc$IAA                DATA
 0002:000197fc 00000004H .rtc$IZZ                DATA
 0002:00019800 00000004H .rtc$TAA                DATA
 0002:00019804 00000004H .rtc$TZZ                DATA
 0002:00019808 00000088H .xdata$x                DATA
 0002:00019890 0000065cH .edata                  DATA
 0002:00019eec 00000140H .idata$2                DATA
 0002:0001a02c 00000014H .idata$3                DATA
 0002:0001a040 00000298H .idata$4                DATA
 0002:0001a2d8 000009c6H .idata$6                DATA
 0003:00000000 0000c2e0H .data                   DATA
 0003:0000c2e0 038e6f74H .bss                    DATA
 0004:00000000 00000060H .rsrc$01                DATA
 0004:00000060 00000180H .rsrc$02                DATA

  Address         Publics by Value              Rva+Base       Lib:Object

 0000:00000000       ___guard_iat_table         00000000     <absolute>
 0000:00000000       ___volatile_metadata       00000000     <absolute>
 0000:00000000       ___dynamic_value_reloc_table 00000000     <absolute>
 0000:00000000       ___hybrid_auxiliary_iat    00000000     <absolute>
 0000:00000000       ___hybrid_code_map         00000000     <absolute>
 0000:00000000       ___enclave_config          00000000     <absolute>
 0000:00000000       ___guard_longjmp_count     00000000     <absolute>
 0000:00000000       ___guard_longjmp_table     00000000     <absolute>
 0000:00000000       ___guard_fids_count        00000000     <absolute>
 0000:00000000       ___guard_fids_table        00000000     <absolute>
 0000:00000000       ___guard_iat_count         00000000     <absolute>
 0000:00000000       ___hybrid_code_map_count   00000000     <absolute>
 0000:00000001       ___safe_se_handler_count   00000001     <absolute>
 0000:00000100       ___guard_flags             00000100     <absolute>
 0000:00000000       ___ImageBase               30000000     <linker-defined>
 0001:00000000       _BG_AnimParseAnimScript    30001000 f   bg_animation.obj
 0001:000007d0       _BG_AnimParseError         300017d0 f   bg_animation.obj
 0001:00000860       _BG_AnimScriptAnimation    30001860 f   bg_animation.obj
 0001:000009f0       _BG_AnimScriptCannedAnimation 300019f0 f   bg_animation.obj
 0001:00000a80       _BG_AnimScriptEvent        30001a80 f   bg_animation.obj
 0001:00000b00       _BG_AnimUpdatePlayerStateConditions 30001b00 f   bg_animation.obj
 0001:00000c40       _BG_AnimationForString     30001c40 f   bg_animation.obj
 0001:00000d50       _BG_ClearAnimTimer         30001d50 f   bg_animation.obj
 0001:00000d80       _BG_ClearConditionBitFlag  30001d80 f   bg_animation.obj
 0001:00000db0       _BG_CopyStringIntoBuffer   30001db0 f   bg_animation.obj
 0001:00000e20       _BG_EvaluateConditions     30001e20 f   bg_animation.obj
 0001:00000eb0       _BG_ExecuteCommand         30001eb0 f   bg_animation.obj
 0001:00000fd0       _BG_FirstValidItem         30001fd0 f   bg_animation.obj
 0001:00001010       _BG_GetAnimScriptAnimation 30002010 f   bg_animation.obj
 0001:000010a0       _BG_GetAnimScriptEvent     300020a0 f   bg_animation.obj
 0001:00001120       _BG_GetAnimString          30002120 f   bg_animation.obj
 0001:00001150       _BG_GetAnimationForIndex   30002150 f   bg_animation.obj
 0001:00001190       _BG_GetConditionBitFlag    30002190 f   bg_animation.obj
 0001:000011e0       _BG_GetConditionValue      300021e0 f   bg_animation.obj
 0001:00001250       _BG_IndexForString         30002250 f   bg_animation.obj
 0001:000012d0       _BG_InitWeaponStrings      300022d0 f   bg_animation.obj
 0001:00001670       _BG_ParseConditionBits     30002670 f   bg_animation.obj
 0001:00001960       _BG_ParseConditions        30002960 f   bg_animation.obj
 0001:00001ad0       _BG_PlayAnim               30002ad0 f   bg_animation.obj
 0001:00001bd0       _BG_PlayAnimName           30002bd0 f   bg_animation.obj
 0001:00001c00       _BG_SetConditionBitFlag    30002c00 f   bg_animation.obj
 0001:00001c30       _BG_StringHashValue        30002c30 f   bg_animation.obj
 0001:00001c90       _BG_StringHashValue_Lwr    30002c90 f   bg_animation.obj
 0001:00001cd0       _BG_UpdateConditionValue   30002cd0 f   bg_animation.obj
 0001:00001d30       _BG_ClearAnimationPool     30002d30 f   bg_animgroup.obj
 0001:000021e0       _BG_R_RegisterAnimationGroup 300031e0 f   bg_animgroup.obj
 0001:000023a0       _BG_LoadCampaignSave       300033a0 f   bg_campaign.obj
 0001:00002510       _BG_StoreCampaignSave      30003510 f   bg_campaign.obj
 0001:00002630       _BG_ClearCharacterPool     30003630 f   bg_character.obj
 0001:00002660       _BG_FindCharacter          30003660 f   bg_character.obj
 0001:000026b0       _BG_FindFreeCharacter      300036b0 f   bg_character.obj
 0001:00002740       _BG_GetCharacter           30003740 f   bg_character.obj
 0001:000027a0       _BG_GetCharacterForPlayerstate 300037a0 f   bg_character.obj
 0001:00002860       _BG_ParseCharacterFile     30003860 f   bg_character.obj
 0001:00002ba0       _BG_ClassHasWeapon         30003ba0 f   bg_classes.obj
 0001:00002bd0       _BG_ClassLetterForNumber   30003bd0 f   bg_classes.obj
 0001:00002c20       _BG_ClassName              30003c20 f   bg_classes.obj
 0001:00002c70       _BG_ClassSkillForClass     30003c70 f   bg_classes.obj
 0001:00002cc0       _BG_ClassTextToClass       30003cc0 f   bg_classes.obj
 0001:00002d70       _BG_ClassnameForNumber     30003d70 f   bg_classes.obj
 0001:00002dc0       _BG_GetPlayerClassInfo     30003dc0 f   bg_classes.obj
 0001:00002df0       _BG_PlayerClassForPlayerState 30003df0 f   bg_classes.obj
 0001:00002e10       _BG_ShortClassnameForNumber 30003e10 f   bg_classes.obj
 0001:00002e60       _BG_TeamName               30003e60 f   bg_classes.obj
 0001:00002ea0       _BG_WeaponIsPrimaryForClassAndTeam 30003ea0 f   bg_classes.obj
 0001:00002ef0       _BG_lwrcsClassName         30003ef0 f   bg_classes.obj
 0001:00002f40       _BG_AddMagicAmmo           30003f40 f   bg_misc.obj
 0001:000031f0       _BG_AddPathCorner          300041f0 f   bg_misc.obj
 0001:00003260       _BG_AddPredictableEventToPlayerstate 30004260 f   bg_misc.obj
 0001:00003290       _BG_AddSplineControl       30004290 f   bg_misc.obj
 0001:000032e0       _BG_AddSplinePath          300042e0 f   bg_misc.obj
 0001:00003380       _BG_AdjustAAGunMuzzleForBarrel 30004380 f   bg_misc.obj
 0001:00003630       _BG_AkimboFireSequence     30004630 f   bg_misc.obj
 0001:00003670       _BG_AkimboSidearm          30004670 f   bg_misc.obj
 0001:000036c0       _BG_BBoxCollision          300046c0 f   bg_misc.obj
 0001:00003710       _BG_BuildSplinePaths       30004710 f   bg_misc.obj
 0001:00003820       _BG_CalculateSpline_r      30004820 f   bg_misc.obj
 0001:000039c0       _BG_CanItemBeGrabbed       300049c0 f   bg_misc.obj
 0001:00003b50       _BG_CanUseWeapon           30004b50 f   bg_misc.obj
 0001:00003ca0       _BG_ComputeSegments        30004ca0 f   bg_misc.obj
 0001:00003df0       _BG_CreateRotationMatrix   30004df0 f   bg_misc.obj
 0001:00003e20       _BG_DuplicateWeapon        30004e20 f   bg_misc.obj
 0001:00003ea0       _BG_EvaluateTrajectory     30004ea0 f   bg_misc.obj
 0001:00004a90       _BG_EvaluateTrajectoryDelta 30005a90 f   bg_misc.obj
 0001:00004d40       _BG_FindAmmoForWeapon      30005d40 f   bg_misc.obj
 0001:00004d70       _BG_FindClipForWeapon      30005d70 f   bg_misc.obj
 0001:00004da0       _BG_FindItem               30005da0 f   bg_misc.obj
 0001:00004de0       _BG_FindItemForAmmo        30005de0 f   bg_misc.obj
 0001:00004e30       _BG_FindItemForClassName   30005e30 f   bg_misc.obj
 0001:00004e70       _BG_FindItemForHoldable    30005e70 f   bg_misc.obj
 0001:00004eb0       _BG_FindItemForWeapon      30005eb0 f   bg_misc.obj
 0001:00004ef0       _BG_Find_PathCorner        30005ef0 f   bg_misc.obj
 0001:00004f40       _BG_Find_Spline            30005f40 f   bg_misc.obj
 0001:00004f90       _BG_FootstepForSurface     30005f90 f   bg_misc.obj
 0001:00005020       _BG_GetLocationString      30006020 f   bg_misc.obj
 0001:00005090       _BG_GetMarkDir             30006090 f   bg_misc.obj
 0001:000052c0       _BG_GetSplineData          300062c0 f   bg_misc.obj
 0001:00005300       _BG_GrenadeTypeForTeam     30006300 f   bg_misc.obj
 0001:00005330       _BG_GrenadesForClass       30006330 f   bg_misc.obj
 0001:00005390       _BG_InitLocations          30006390 f   bg_misc.obj
 0001:00005490       _BG_IsAkimboSideArm        30006490 f   bg_misc.obj
 0001:000054e0       _BG_IsAkimboWeapon         300064e0 f   bg_misc.obj
 0001:00005510       _BG_IsScopedWeapon         30006510 f   bg_misc.obj
 0001:00005530       _BG_LinearPathOrigin2      30006530 f   bg_misc.obj
 0001:000057b0       _BG_MaxAmmoForWeapon       300067b0 f   bg_misc.obj
 0001:000058e0       _BG_PlayerStateToEntityState 300068e0 f   bg_misc.obj
 0001:00005c50       _BG_PlayerStateToEntityStateExtraPolate 30006c50 f   bg_misc.obj
 0001:00005f80       _BG_PlayerTouchesItem      30006f80 f   bg_misc.obj
 0001:00006020       _BG_RaySphereIntersection  30007020 f   bg_misc.obj
 0001:00006110       _BG_RotatePoint            30007110 f   bg_misc.obj
 0001:000061a0       _BG_SplineLength           300071a0 f   bg_misc.obj
 0001:000062e0       _BG_TransposeMatrix        300072e0 f   bg_misc.obj
 0001:00006320       _BG_TraverseSpline         30007320 f   bg_misc.obj
 0001:00006400       _BG_ValidStatWeapon        30007400 f   bg_misc.obj
 0001:00006470       _BG_WeaponForMOD           30007470 f   bg_misc.obj
 0001:000064a0       _BG_WeaponInWolfMP         300074a0 f   bg_misc.obj
 0001:00006510       _BG_cleanName              30007510 f   bg_misc.obj
 0001:00006580       _BG_colorstrncpyz          30007580 f   bg_misc.obj
 0001:00006600       _BG_drawStrlen             30007600 f   bg_misc.obj
 0001:00006640       _BG_isLightWeaponSupportingFastReload 30007640 f   bg_misc.obj
 0001:00006680       _BG_setCrosshair           30007680 f   bg_misc.obj
 0001:00006950       _BG_simpleHintsCollapse    30007950 f   bg_misc.obj
 0001:000069e0       _BG_simpleHintsExpand      300079e0 f   bg_misc.obj
 0001:00006a40       _BG_simpleWeaponState      30007a40 f   bg_misc.obj
 0001:00006aa0       _BG_strRelPos              30007aa0 f   bg_misc.obj
 0001:00006af0       _ConcatArgs                30007af0 f   bg_misc.obj
 0001:00006bc0       _PC_Color_Parse            30007bc0 f   bg_misc.obj
 0001:00006c10       _PC_Float_Parse            30007c10 f   bg_misc.obj
 0001:00006cd0       _PC_Int_Parse              30007cd0 f   bg_misc.obj
 0001:00006d80       _PC_SourceError            30007d80 f   bg_misc.obj
 0001:00006e00       _PC_SourceWarning          30007e00 f   bg_misc.obj
 0001:00006e80       _PC_String_Parse           30007e80 f   bg_misc.obj
 0001:00006ef0       _PC_String_ParseNoAlloc    30007ef0 f   bg_misc.obj
 0001:00006f60       _PC_Vec_Parse              30007f60 f   bg_misc.obj
 0001:00006fb0       _Q_vsnprintf               30007fb0 f   bg_misc.obj
 0001:00007000       ___local_stdio_printf_options 30008000 f i bg_misc.obj
 0001:00007010       _Com_GetFlamethrowerRange  30008010 f   bg_pmove.obj
 0001:000070f0       _PM_AddEvent               300080f0 f   bg_pmove.obj
 0001:00007110       _PM_AddEventExt            30008110 f   bg_pmove.obj
 0001:00007130       _PM_AddTouchEnt            30008130 f   bg_pmove.obj
 0001:00007180       _PM_AdjustAimSpreadScale   30008180 f   bg_pmove.obj
 0001:000076b0       _PM_AltSwitchFromForWeapon 300086b0 f   bg_pmove.obj
 0001:000076c0       _PM_AltSwitchToForWeapon   300086c0 f   bg_pmove.obj
 0001:00007700       _PM_AttackAnimForWeapon    30008700 f   bg_pmove.obj
 0001:00007750       _PM_BeginWeaponChange      30008750 f   bg_pmove.obj
 0001:00007fc0       _PM_CheckForReload         30008fc0 f   bg_pmove.obj
 0001:000082d0       _PM_CheckLadderMove        300092d0 f   bg_pmove.obj
 0001:00008f70       _PM_ClipVelocity           30009f70 f   bg_pmove.obj
 0001:000091a0       _PM_ContinueWeaponAnim     3000a1a0 f   bg_pmove.obj
 0001:000091e0       _PM_CoolWeapons            3000a1e0 f   bg_pmove.obj
 0001:00009840       _PM_DropAnimForWeapon      3000a840 f   bg_pmove.obj
 0001:0000ad00       _PM_IdleAnimForWeapon      3000bd00 f   bg_pmove.obj
 0001:0000ad50       _PM_LadderMove             3000bd50 f   bg_pmove.obj
 0001:0000b0a0       _PM_LastAttackAnimForWeapon 3000c0a0 f   bg_pmove.obj
 0001:0000b300       _PM_RaiseAnimForWeapon     3000c300 f   bg_pmove.obj
 0001:0000b360       _PM_ReloadAnimForWeapon    3000c360 f   bg_pmove.obj
 0001:0000b780       _PM_Sprint                 3000c780 f   bg_pmove.obj
 0001:0000ba70       _PM_TraceAll               3000ca70 f   bg_pmove.obj
 0001:0000baa0       _PM_TraceAllLegs           3000caa0 f   bg_pmove.obj
 0001:0000bbd0       _PM_TraceAllParts          3000cbd0 f   bg_pmove.obj
 0001:0000bda0       _PM_TraceHead              3000cda0 f   bg_pmove.obj
 0001:0000bec0       _PM_TraceLegs              3000cec0 f   bg_pmove.obj
 0001:0000c180       _PM_UpdateLean             3000d180 f   bg_pmove.obj
 0001:0000c460       _PM_UpdateViewAngles       3000d460 f   bg_pmove.obj
 0001:0000f500       _PM_WeaponAmmoAvailable    30010500 f   bg_pmove.obj
 0001:0000f5b0       _PM_WeaponClipEmpty        300105b0 f   bg_pmove.obj
 0001:0000f600       _PM_WeaponUseAmmo          30010600 f   bg_pmove.obj
 0001:0000f6b0       _Pmove                     300106b0 f   bg_pmove.obj
 0001:0000f7c0       _PmovePredict              300107c0 f   bg_pmove.obj
 0001:0000f830       _PmoveSingle               30010830 f   bg_pmove.obj
 0001:000100a0       _PM_SlideMove              300110a0 f   bg_slidemove.obj
 0001:00010940       _PM_StepSlideMove          30011940 f   bg_slidemove.obj
 0001:00010f00       _BG_ClearScriptSpeakerPool 30011f00 f   bg_sscript.obj
 0001:00010f10       _BG_GetIndexForSpeaker     30011f10 f   bg_sscript.obj
 0001:00010f30       _BG_GetScriptSpeaker       30011f30 f   bg_sscript.obj
 0001:00010f60       _BG_LoadSpeakerScript      30011f60 f   bg_sscript.obj
 0001:000110e0       _BG_NumScriptSpeakers      300120e0 f   bg_sscript.obj
 0001:000110f0       _BG_SS_DeleteSpeaker       300120f0 f   bg_sscript.obj
 0001:00011700       _BG_SS_StoreSpeaker        30012700 f   bg_sscript.obj
 0001:00011740       _BG_WeapStatForWeapon      30012740 f   bg_stats.obj
 0001:000117d0       _BG_GetGroundHeightAtPoint 300127d0 f   bg_tracemap.obj
 0001:00011860       _BG_GetSkyGroundHeightAtPoint 30012860 f   bg_tracemap.obj
 0001:000118f0       _BG_GetSkyHeightAtPoint    300128f0 f   bg_tracemap.obj
 0001:00011980       _BG_GetTracemapGroundCeil  30012980 f   bg_tracemap.obj
 0001:000119a0       _BG_GetTracemapGroundFloor 300129a0 f   bg_tracemap.obj
 0001:000119c0       _BG_LoadTraceMap           300129c0 f   bg_tracemap.obj
 0001:00011ed0       _CG_GenerateTracemap       30012ed0 f   bg_tracemap.obj
 0001:00012c10       _etpro_FinalizeTracemapClamp 30013c10 f   bg_tracemap.obj
 0001:00012c60       _MD5Final                  30013c60 f   md5.obj
 0001:00012d70       _MD5Init                   30013d70 f   md5.obj
 0001:00012dc0       _MD5Update                 30013dc0 f   md5.obj
 0001:00012e80       _MD5_Transform             30013e80 f   md5.obj
 0001:000135c0       _CG_AddAtmosphericEffects  300145c0 f   cg_atmospheric.obj
 0001:000138b0       _CG_AtmosphericKludge      300148b0 f   cg_atmospheric.obj
 0001:00013d60       _CG_EffectParse            30014d60 f   cg_atmospheric.obj
 0001:000153d0       _CG_CharacterForClientinfo 300163d0 f   cg_character.obj
 0001:00015490       _CG_CharacterForPlayerstate 30016490 f   cg_character.obj
 0001:000155a0       _CG_CpyCharacter           300165a0 f   cg_character.obj
 0001:00015780       _CG_GetSkinFileForCharType 30016780 f   cg_character.obj
 0001:00015850       _CG_GetSkinNameForClass    30016850 f   cg_character.obj
 0001:000158a0       _CG_LoadCharacterMods      300168a0 f   cg_character.obj
 0001:00015f60       _CG_RegisterCharacter      30016f60 f   cg_character.obj
 0001:00016370       _CG_RegisterPlayerClasses  30017370 f   cg_character.obj
 0001:00016470       _CG_AdjustAutomapZoom      30017470 f   cg_commandmap.obj
 0001:000164f0       _CG_CommandCentreClick     300174f0 f   cg_commandmap.obj
 0001:00016510       _CG_CommandCentreLayersClick 30017510 f   cg_commandmap.obj
 0001:000165b0       _CG_CommandCentreSpawnPointClick 300175b0 f   cg_commandmap.obj
 0001:000166e0       _CG_CommandMap_DrawHighlightText 300176e0 f   cg_commandmap.obj
 0001:00016740       _CG_CommandMap_SetHighlightText 30017740 f   cg_commandmap.obj
 0001:00016780       _CG_CurLayerForZ           30017780 f   cg_commandmap.obj
 0001:000167c0       _CG_DrawAutoMap            300177c0 f   cg_commandmap.obj
 0001:00016a20       _CG_DrawExpandedAutoMap    30017a20 f   cg_commandmap.obj
 0001:00017930       _CG_DrawMap                30018930 f   cg_commandmap.obj
 0001:00018050       _CG_DrawMapEntity          30019050 f   cg_commandmap.obj
 0001:00019140       _CG_DrawMortarMarker       3001a140 f   cg_commandmap.obj
 0001:00019580       _CG_DrawSpawnPointInfo     3001a580 f   cg_commandmap.obj
 0001:00019bd0       _CG_ParseMapEntity         3001abd0 f   cg_commandmap.obj
 0001:00019de0       _CG_ParseMapEntityInfo     3001ade0 f   cg_commandmap.obj
 0001:00019e50       _CG_PlayerSelected         3001ae50 f   cg_commandmap.obj
 0001:00019ea0       _CG_ScanForCommandCentreEntity 3001aea0 f   cg_commandmap.obj
 0001:0001a0d0       _CG_TransformAutomapEntity 3001b0d0 f   cg_commandmap.obj
 0001:0001a180       _CG_TransformToCommandMapCoord 3001b180 f   cg_commandmap.obj
 0001:0001a1e0       _CG_ScoresDown_f           3001b1e0 f   cg_consolecmds.obj
 0001:0001a2b0       _CG_ScoresUp_f             3001b2b0 f   cg_consolecmds.obj
 0001:0001a2d0       _CG_autoRecord_f           3001b2d0 f   cg_consolecmds.obj
 0001:0001a320       _CG_autoScreenShot_f       3001b320 f   cg_consolecmds.obj
 0001:0001a350       _CG_keyOn_f                3001b350 f   cg_consolecmds.obj
 0001:0001a390       _CG_keyOff_f               3001b390 f   cg_consolecmds.obj
 0001:0001a3b0       _CG_dumpStats_f            3001b3b0 f   cg_consolecmds.obj
 0001:0001a3f0       _CG_LimboMenu_f            3001b3f0 f   cg_consolecmds.obj
 0001:0001a410       _CG_TargetCommand_f        3001b410 f   cg_consolecmds.obj
 0001:0001a5f0       _CG_topshotsDown_f         3001b5f0 f   cg_consolecmds.obj
 0001:0001a680       _CG_topshotsUp_f           3001b680 f   cg_consolecmds.obj
 0001:0001a6f0       _CG_objectivesDown_f       3001b6f0 f   cg_consolecmds.obj
 0001:0001a770       _CG_objectivesUp_f         3001b770 f   cg_consolecmds.obj
 0001:0001aaf0       _CG_SpawnSelectMenu_f      3001baf0 f   cg_consolecmds.obj
 0001:0001ab10       _CG_TeamSelectMenu_f       3001bb10 f   cg_consolecmds.obj
 0001:0001ab30       _CG_ClassSelectMenu_f      3001bb30 f   cg_consolecmds.obj
 0001:0001ab50       _CG_QuickMessage_f         3001bb50 f   cg_consolecmds.obj
 0001:0001aba0       _CG_QuickFireteamAdmin_f   3001bba0 f   cg_consolecmds.obj
 0001:0001b280       _CG_currentTime_f          3001c280 f   cg_consolecmds.obj
 0001:0001b2e0       _CG_vstrDown_f             3001c2e0 f   cg_consolecmds.obj
 0001:0001b320       _CG_vstrUp_f               3001c320 f   cg_consolecmds.obj
 0001:0001b520       _CG_ForceTapOut_f          3001c520 f   cg_consolecmds.obj
 0001:0001b760       _CG_TimerSet_f             3001c760 f   cg_consolecmds.obj
 0001:0001b890       _CG_ResetTimer_f           3001c890 f   cg_consolecmds.obj
 0001:0001b910       _CG_ConsoleCommand         3001c910 f   cg_consolecmds.obj
 0001:0001bc10       _CG_FreeCamera             3001cc10 f   cg_consolecmds.obj
 0001:0001bc30       _CG_InitConsoleCommands    3001cc30 f   cg_consolecmds.obj
 0001:0001bfa0       _CG_LoadCamera             3001cfa0 f   cg_consolecmds.obj
 0001:0001bff0       _CG_Obj_f                  3001cff0 f   cg_consolecmds.obj
 0001:0001c000       _CG_QuickFireteamMessage_f 3001d000 f   cg_consolecmds.obj
 0001:0001c040       _CG_SetInitialCamera       3001d040 f   cg_consolecmds.obj
 0001:0001c070       _CG_StartCamera            3001d070 f   cg_consolecmds.obj
 0001:0001c190       _CG_StartInitialCamera     3001d190 f   cg_consolecmds.obj
 0001:0001c1c0       _CG_StopCamera             3001d1c0 f   cg_consolecmds.obj
 0001:0001c220       _CG_getHudList             3001d220 f   cg_consolecmds.obj
 0001:0001c2e0       _CG_parseMapVoteListInfo   3001d2e0 f   cg_consolecmds.obj
 0001:0001c420       _CG_parseMapVoteTally      3001d420 f   cg_consolecmds.obj
 0001:0001c460       _CG_toggleSpecHelp_f       3001d460 f   cg_consolecmds.obj
 0001:0001c4a0       _CG_wStatsDown_f           3001d4a0 f   cg_consolecmds.obj
 0001:0001c530       _CG_wStatsUp_f             3001d530 f   cg_consolecmds.obj
 0001:0001c560       _Crash_Printf              3001d560 f   cg_crash.obj
 0001:0001c5d0       _DisableCoreDump           3001d5d0 f   cg_crash.obj
 0001:0001c5e0       _DisableStackTrace         3001d5e0 f   cg_crash.obj
 0001:0001c5f0       _EnableCoreDumps           3001d5f0 f   cg_crash.obj
 0001:0001c600       _EnableStackTrace          3001d600 f   cg_crash.obj
 0001:0001c610       _EnumModules@12            3001d610 f   cg_crash.obj
 0001:0001c630       _ExceptionName             3001d630 f   cg_crash.obj
 0001:0001c870       _win32_backtrace           3001d870 f   cg_crash.obj
 0001:0001c9e0       _win32_deinitialize_handler 3001d9e0 f   cg_crash.obj
 0001:0001ca40       _win32_dllinfo             3001da40 f   cg_crash.obj
 0001:0001ca70       _win32_exception_handler@4 3001da70 f   cg_crash.obj
 0001:0001cbd0       _win32_exceptioninfo       3001dbd0 f   cg_crash.obj
 0001:0001cc10       _win32_initialize_handler  3001dc10 f   cg_crash.obj
 0001:0001cd20       _CG_Debriefing_ChatEditFinish 3001dd20 f   cg_debriefing.obj
 0001:0001cdd0       _CG_Debriefing_HTMLButton_Draw 3001ddd0 f   cg_debriefing.obj
 0001:0001cdf0       _CG_Debriefing_NextButton_Draw 3001ddf0 f   cg_debriefing.obj
 0001:0001ce00       _CG_Debriefing_ChatButton_Draw 3001de00 f   cg_debriefing.obj
 0001:0001ce60       _CG_Debriefing_ReadyButton_Draw 3001de60 f   cg_debriefing.obj
 0001:0001ce80       _CG_MapVote_VoteButton_Draw 3001de80 f   cg_debriefing.obj
 0001:0001cf70       _CG_MapVote_MultiVoteButton_Draw 3001df70 f   cg_debriefing.obj
 0001:0001d080       _CG_Debriefing_ChatButton_KeyDown 3001e080 f   cg_debriefing.obj
 0001:0001d0e0       _CG_Debriefing_ReadyButton_KeyDown 3001e0e0 f   cg_debriefing.obj
 0001:0001d120       _CG_MapVote_VoteButton_KeyDown 3001e120 f   cg_debriefing.obj
 0001:0001d180       _CG_MapVote_MultiVoteButton_KeyDown 3001e180 f   cg_debriefing.obj
 0001:0001d210       _CG_Debriefing_QCButton_KeyDown 3001e210 f   cg_debriefing.obj
 0001:0001d230       _CG_Debriefing_NextButton_KeyDown 3001e230 f   cg_debriefing.obj
 0001:0001d280       _CG_Debriefing_PlayerName_Draw 3001e280 f   cg_debriefing.obj
 0001:0001d2e0       _CG_Debriefing_PlayerRank_Draw 3001e2e0 f   cg_debriefing.obj
 0001:0001d3d0       _CG_Debriefing_PlayerMedals_Draw 3001e3d0 f   cg_debriefing.obj
 0001:0001d4d0       _CG_Debriefing_PlayerTime_Draw 3001e4d0 f   cg_debriefing.obj
 0001:0001d5f0       _CG_Debriefing_PlayerXP_Draw 3001e5f0 f   cg_debriefing.obj
 0001:0001d6e0       _CG_Debriefing_PlayerACC_Draw 3001e6e0 f   cg_debriefing.obj
 0001:0001d7d0       _CG_Debriefing_PlayerSkills_Draw 3001e7d0 f   cg_debriefing.obj
 0001:0001da10       _CG_DebriefingPlayerWeaponStats_Draw 3001ea10 f   cg_debriefing.obj
 0001:0001dc20       _CG_DebriefingXPHeader_Draw 3001ec20 f   cg_debriefing.obj
 0001:0001dc50       _CG_DebriefingTitle_Draw   3001ec50 f   cg_debriefing.obj
 0001:0001de70       _CG_DebriefingPlayerList_Draw 3001ee70 f   cg_debriefing.obj
 0001:0001e220       _CG_MapVoteList_Draw       3001f220 f   cg_debriefing.obj
 0001:0001e670       _CG_DebriefingPlayerList_KeyDown 3001f670 f   cg_debriefing.obj
 0001:0001e6d0       _CG_MapVoteList_KeyDown    3001f6d0 f   cg_debriefing.obj
 0001:0001e720       _CG_Debriefing_ChatEdit_Draw 3001f720 f   cg_debriefing.obj
 0001:0001e880       _CG_Debriefing_ChatBox_Draw 3001f880 f   cg_debriefing.obj
 0001:0001eaf0       _CG_Debriefing_Scrollbar_Draw 3001faf0 f   cg_debriefing.obj
 0001:0001eba0       _CG_Debriefing_Scrollbar_KeyDown 3001fba0 f   cg_debriefing.obj
 0001:0001ec70       _CG_Debriefing_Scrollbar_KeyUp 3001fc70 f   cg_debriefing.obj
 0001:0001eca0       _CG_TeamDebriefingOutcome_Draw 3001fca0 f   cg_debriefing.obj
 0001:0001ee40       _CG_TeamDebriefingMapList_Draw 3001fe40 f   cg_debriefing.obj
 0001:0001ef80       _CG_TeamDebriefingMapList_KeyDown 3001ff80 f   cg_debriefing.obj
 0001:0001efe0       _CG_TeamDebriefingMapWinner_Draw 3001ffe0 f   cg_debriefing.obj
 0001:0001eff0       _CG_TeamDebriefingMapShot_Draw 3001fff0 f   cg_debriefing.obj
 0001:0001f080       _CG_TeamDebriefingTeamSkillXP_Draw 30020080 f   cg_debriefing.obj
 0001:0001f110       _CG_Debriefing2_Maps_KeyDown 30020110 f   cg_debriefing.obj
 0001:0001f180       _CG_Debriefing2TeamSkillHeaders_Draw 30020180 f   cg_debriefing.obj
 0001:0001f2b0       _CG_Debriefing2TeamSkillXP_Draw 300202b0 f   cg_debriefing.obj
 0001:0001f460       _CG_Debriefing2_Title_Draw 30020460 f   cg_debriefing.obj
 0001:0001f700       _CG_Debriefing2_MissionTitle_Draw 30020700 f   cg_debriefing.obj
 0001:0001f770       _CG_Debriefing2_Mission_Draw 30020770 f   cg_debriefing.obj
 0001:0001ff60       _CG_Debriefing2_Maps_Draw  30020f60 f   cg_debriefing.obj
 0001:00020230       _CG_Debriefing2_Awards_Draw 30021230 f   cg_debriefing.obj
 0001:000203d0       _CG_PanelButtonsRender_Window 300213d0 f   cg_debriefing.obj
 0001:00020400       _CG_PanelButtonsRender_Button 30021400 f   cg_debriefing.obj
 0001:00020420       _CG_ChatPanel_Setup        30021420 f   cg_debriefing.obj
 0001:00020450       _CG_Debriefing2_Awards_Parse 30021450 f   cg_debriefing.obj
 0001:00020550       _CG_Debriefing2_WinStringForTeam 30021550 f   cg_debriefing.obj
 0001:00020580       _CG_Debriefing_CalcCampaignProgress 30021580 f   cg_debriefing.obj
 0001:000205f0       _CG_Debriefing_Draw        300215f0 f   cg_debriefing.obj
 0001:000207a0       _CG_Debriefing_FindOveralWinningTeam 300217a0 f   cg_debriefing.obj
 0001:000207b0       _CG_Debriefing_FindWinningTeam 300217b0 f   cg_debriefing.obj
 0001:000207d0       _CG_Debriefing_FindWinningTeamForMap 300217d0 f   cg_debriefing.obj
 0001:00020810       _CG_Debriefing_FindWinningTeamForPos 30021810 f   cg_debriefing.obj
 0001:00020940       _CG_Debriefing_FullRankNameForClientInfo 30021940 f   cg_debriefing.obj
 0001:00020980       _CG_Debriefing_GetNextWeaponStat 30021980 f   cg_debriefing.obj
 0001:000209b0       _CG_Debriefing_GetSelectedClientInfo 300219b0 f   cg_debriefing.obj
 0001:00020a00       _CG_Debriefing_InfoRequests 30021a00 f   cg_debriefing.obj
 0001:00020ac0       _CG_Debriefing_KeyEvent    30021ac0 f   cg_debriefing.obj
 0001:00020b50       _CG_Debriefing_MouseEvent  30021b50 f   cg_debriefing.obj
 0001:00020ca0       _CG_Debriefing_ParsePlayerKillsDeaths 30021ca0 f   cg_debriefing.obj
 0001:00020d00       _CG_Debriefing_ParseWeaponAccuracies 30021d00 f   cg_debriefing.obj
 0001:00020d40       _CG_Debriefing_ParseWeaponStats 30021d40 f   cg_debriefing.obj
 0001:00020da0       _CG_Debriefing_RankNameForClientInfo 30021da0 f   cg_debriefing.obj
 0001:00020de0       _CG_Debriefing_ScrollCheckOffset 30021de0 f   cg_debriefing.obj
 0001:00020e40       _CG_Debriefing_ScrollGetBarRect 30021e40 f   cg_debriefing.obj
 0001:00020ed0       _CG_Debriefing_ScrollGetCount 30021ed0 f   cg_debriefing.obj
 0001:00021040       _CG_Debriefing_ScrollGetMax 30022040 f   cg_debriefing.obj
 0001:00021080       _CG_Debriefing_ScrollGetOffset 30022080 f   cg_debriefing.obj
 0001:000210d0       _CG_Debriefing_ScrollSetOffset 300220d0 f   cg_debriefing.obj
 0001:00021120       _CG_Debriefing_ServerCommand 30022120 f   cg_debriefing.obj
 0001:00021190       _CG_Debriefing_Shutdown    30022190 f   cg_debriefing.obj
 0001:000211a0       _CG_Debriefing_Startup     300221a0 f   cg_debriefing.obj
 0001:00021290       _CG_Debriefing_TimeToString 30022290 f   cg_debriefing.obj
 0001:00021300       _CG_Debrieing_SetSelectedClient 30022300 f   cg_debriefing.obj
 0001:00021330       _CG_MapVote_SetSelectedMap 30022330 f   cg_debriefing.obj
 0001:00021350       _CG_PanelButtonsRender_Button_Ext 30022350 f   cg_debriefing.obj
 0001:00021490       _CG_PanelButtonsRender_Window_Ext 30022490 f   cg_debriefing.obj
 0001:00021640       _CG_SortPlayersByXP        30022640 f   cg_debriefing.obj
 0001:00021690       _CG_TeamDebriefingTeamXP_Draw 30022690 f   cg_debriefing.obj
 0001:00021730       _CG_TeamDebriefing_CalcXP  30022730 f   cg_debriefing.obj
 0001:00021950       _CG_AddLagometerFrameInfo  30022950 f   cg_draw.obj
 0001:00021980       _CG_AddLagometerSnapshotInfo 30022980 f   cg_draw.obj
 0001:000219f0       _CG_BannerPrint            300229f0 f   cg_draw.obj
 0001:00021c30       _CG_BotIsSelected          30022c30 f   cg_draw.obj
 0001:00021c60       _CG_CalculateReinfTime     30022c60 f   cg_draw.obj
 0001:00021c80       _CG_CalculateReinfTime_Float 30022c80 f   cg_draw.obj
 0001:00021d10       _CG_CenterPrint            30022d10 f   cg_draw.obj
 0001:00021d30       _CG_CheckForCursorHints    30022d30 f   cg_draw.obj
 0001:00021f70       _CG_ClassSkillForPosition  30022f70 f   cg_draw.obj
 0001:00022250       _CG_Draw3DModel            30023250 f   cg_draw.obj
 0001:00022380       _CG_DrawActive             30023380 f   cg_draw.obj
 0001:00022c50       _CG_DrawCompassIcon        30023c50 f   cg_draw.obj
 0001:00024050       _CG_DrawDemoRecording      30025050 f   cg_draw.obj
 0001:000244c0       _CG_DrawField              300254c0 f   cg_draw.obj
 0001:00024660       _CG_DrawFieldWidth         30025660 f   cg_draw.obj
 0001:00025250       _CG_DrawKeyModel           30026250 f   cg_draw.obj
 0001:00025aa0       _CG_DrawLivesLeft          30026aa0 f   cg_draw.obj
 0001:00025bb0       _CG_DrawMiscGamemodels     30026bb0 f   cg_draw.obj
 0001:000294d0       _CG_DrawTeamBackground     3002a4d0 f   cg_draw.obj
 0001:000298d0       _CG_DrawTime               3002a8d0 f   cg_draw.obj
 0001:00029b10       _CG_DrawTimedMenus         3002ab10 f   cg_draw.obj
 0001:0002b5f0       _CG_Fade                   3002c5f0 f   cg_draw.obj
 0001:0002b630       _CG_InitStatsDebug         3002c630 f   cg_draw.obj
 0001:0002b670       _CG_LoadFont               3002c670 f   cg_draw.obj
 0001:0002b750       _CG_ObjectivePrint         3002c750 f   cg_draw.obj
 0001:0002b830       _CG_PickupItemText         3002c830 f   cg_draw.obj
 0001:0002ba90       _CG_PriorityCenterPrint    3002ca90 f   cg_draw.obj
 0001:0002bd90       _CG_ScanForCrosshairDyna   3002cd90 f   cg_draw.obj
 0001:0002c0c0       _CG_ScanForCrosshairMine   3002d0c0 f   cg_draw.obj
 0001:0002c320       _CG_ShakeCamera            3002d320 f   cg_draw.obj
 0001:0002c460       _CG_StartShakeCamera       3002d460 f   cg_draw.obj
 0001:0002c4e0       _CG_StatsDebugAddText      3002d4e0 f   cg_draw.obj
 0001:0002c570       _CG_Text_Height            3002d570 f   cg_draw.obj
 0001:0002c5a0       _CG_Text_Height_Ext        3002d5a0 f   cg_draw.obj
 0001:0002c630       _CG_Text_Paint             3002d630 f   cg_draw.obj
 0001:0002c690       _CG_Text_PaintChar         3002d690 f   cg_draw.obj
 0001:0002c740       _CG_Text_PaintChar_Ext     3002d740 f   cg_draw.obj
 0001:0002c7e0       _CG_Text_Paint_Centred_Ext 3002d7e0 f   cg_draw.obj
 0001:0002c870       _CG_Text_Paint_Ext         3002d870 f   cg_draw.obj
 0001:0002cb10       _CG_Text_SetActiveFont     3002db10 f   cg_draw.obj
 0001:0002cb20       _CG_Text_Width             3002db20 f   cg_draw.obj
 0001:0002cb50       _CG_Text_Width_Ext         3002db50 f   cg_draw.obj
 0001:0002cbe0       _CG_AdjustFrom640          3002dbe0 f   cg_drawtools.obj
 0001:0002cc40       _CG_ColorForHealth         3002dc40 f   cg_drawtools.obj
 0001:0002ccf0       _CG_DrawBigString          3002dcf0 f   cg_drawtools.obj
 0001:0002cd50       _CG_DrawBigString2         3002dd50 f   cg_drawtools.obj
 0001:0002cdb0       _CG_DrawBigStringColor     3002ddb0 f   cg_drawtools.obj
 0001:0002cde0       _CG_DrawBigStringColor2    3002dde0 f   cg_drawtools.obj
 0001:0002ce10       _CG_DrawBottom_NoScale     3002de10 f   cg_drawtools.obj
 0001:0002cea0       _CG_DrawChar               3002dea0 f   cg_drawtools.obj
 0001:0002cfa0       _CG_DrawChar2              3002dfa0 f   cg_drawtools.obj
 0001:0002d0a0       _CG_DrawPic                3002e0a0 f   cg_drawtools.obj
 0001:0002d1a0       _CG_DrawPicST              3002e1a0 f   cg_drawtools.obj
 0001:0002d230       _CG_DrawRect               3002e230 f   cg_drawtools.obj
 0001:0002d2c0       _CG_DrawRect_FixedBorder   3002e2c0 f   cg_drawtools.obj
 0001:0002d360       _CG_DrawRotatedPic         3002e360 f   cg_drawtools.obj
 0001:0002d3e0       _CG_DrawSides              3002e3e0 f   cg_drawtools.obj
 0001:0002d4d0       _CG_DrawSides_NoScale      3002e4d0 f   cg_drawtools.obj
 0001:0002d5b0       _CG_DrawSmallString        3002e5b0 f   cg_drawtools.obj
 0001:0002d610       _CG_DrawSmallStringColor   3002e610 f   cg_drawtools.obj
 0001:0002d640       _CG_DrawStringExt          3002e640 f   cg_drawtools.obj
 0001:0002d7d0       _CG_DrawStringExt2         3002e7d0 f   cg_drawtools.obj
 0001:0002d7f0       _CG_DrawStringExt3         3002e7f0 f   cg_drawtools.obj
 0001:0002d9b0       _CG_DrawStringExt_Shadow   3002e9b0 f   cg_drawtools.obj
 0001:0002db50       _CG_DrawStrlen             3002eb50 f   cg_drawtools.obj
 0001:0002db90       _CG_DrawTopBottom          3002eb90 f   cg_drawtools.obj
 0001:0002dc80       _CG_DrawTopBottom_NoScale  3002ec80 f   cg_drawtools.obj
 0001:0002dd60       _CG_FadeColor              3002ed60 f   cg_drawtools.obj
 0001:0002dde0       _CG_FillRect               3002ede0 f   cg_drawtools.obj
 0001:0002de70       _CG_FillRectGradient       3002ee70 f   cg_drawtools.obj
 0001:0002df00       _CG_FilledBar              3002ef00 f   cg_drawtools.obj
 0001:0002e180       _CG_GetColorForHealth      3002f180 f   cg_drawtools.obj
 0001:0002e230       _CG_HorizontalPercentBar   3002f230 f   cg_drawtools.obj
 0001:0002e2c0       _CG_TeamColor              3002f2c0 f   cg_drawtools.obj
 0001:0002e300       _CG_TileClear              3002f300 f   cg_drawtools.obj
 0001:0002e470       _CG_TranslateString        3002f470 f   cg_drawtools.obj
 0001:0002e4b0       _UI_DrawBannerString       3002f4b0 f   cg_drawtools.obj
 0001:0002e710       _UI_DrawProportionalString 3002f710 f   cg_drawtools.obj
 0001:0002eac0       _UI_ProportionalSizeScale  3002fac0 f   cg_drawtools.obj
 0001:0002eaf0       _UI_ProportionalStringWidth 3002faf0 f   cg_drawtools.obj
 0001:0002eb80       _CG_AddBloodTrails         3002fb80 f   cg_effects.obj
 0001:0002edf0       _CG_AddSmokeSprites        3002fdf0 f   cg_effects.obj
 0001:0002f1c0       _CG_Bleed                  300301c0 f   cg_effects.obj
 0001:0002f490       _CG_BubbleTrail            30030490 f   cg_effects.obj
 0001:0002f790       _CG_GetOriginForTag        30030790 f   cg_effects.obj
 0001:0002f8d0       _CG_GibPlayer              300308d0 f   cg_effects.obj
 0001:0002ffa0       _CG_LaunchGib              30030fa0 f   cg_effects.obj
 0001:000301c0       _CG_LoseHat                300311c0 f   cg_effects.obj
 0001:000304e0       _CG_MakeExplosion          300314e0 f   cg_effects.obj
 0001:000306e0       _CG_ProjectedSpotLight     300316e0 f   cg_effects.obj
 0001:00030800       _CG_RenderSmokeGrenadeSmoke 30031800 f   cg_effects.obj
 0001:00030b10       _CG_RumbleEfx              30031b10 f   cg_effects.obj
 0001:00030d30       _CG_SmokePuff              30031d30 f   cg_effects.obj
 0001:00031000       _CG_SparklerSparks         30032000 f   cg_effects.obj
 0001:00031150       _CG_SpawnEffect            30032150 f   cg_effects.obj
 0001:00031160       _CG_SpawnSmokeSprite       30032160 f   cg_effects.obj
 0001:00031240       _CG_Spotlight              30032240 f   cg_effects.obj
 0001:000321b0       _InitSmokeSprites          300331b0 f   cg_effects.obj
 0001:00032200       _getTestShader             30033200 f   cg_effects.obj
 0001:00032220       _lt_crandom                30033220 f   cg_effects.obj
 0001:00032280       _lt_random                 30033280 f   cg_effects.obj
 0001:000322d0       _CGRefEntityToTag          300332d0 f   cg_ents.obj
 0001:00032330       _CGTagToRefEntity          30033330 f   cg_ents.obj
 0001:00032390       _CG_AddCEntity             30033390 f   cg_ents.obj
 0001:000323c0       _CG_AddCEntity_Filter      300333c0 f   cg_ents.obj
 0001:00032420       _CG_AddEntityToTag         30033420 f   cg_ents.obj
 0001:000325d0       _CG_AddLightstyle          300335d0 f   cg_ents.obj
 0001:00032880       _CG_AddLinkedEntity        30033880 f   cg_ents.obj
 0001:00032e40       _CG_AddPacketEntities      30033e40 f   cg_ents.obj
 0001:00033050       _CG_AdjustPositionForMover 30034050 f   cg_ents.obj
 0001:00033400       _CG_AttachBitsToTank       30034400 f   cg_ents.obj
 0001:000337f0       _CG_Beam                   300347f0 f   cg_ents.obj
 0001:00033910       _CG_Beam_2                 30034910 f   cg_ents.obj
 0001:00033c90       _CG_Cabinet                30034c90 f   cg_ents.obj
 0001:00033e80       _CG_CalcEntityLerpPositions 30034e80 f   cg_ents.obj
 0001:00036470       _CG_Mover_PostProcess      30037470 f   cg_ents.obj
 0001:00036700       _CG_PlayerSeesItem         30037700 f   cg_ents.obj
 0001:000369d0       _CG_PositionEntityOnTag    300379d0 f   cg_ents.obj
 0001:00036b30       _CG_PositionRotatedEntityOnTag 30037b30 f   cg_ents.obj
 0001:000370a0       _CG_SetEntitySoundPosition 300380a0 f   cg_ents.obj
 0001:00037130       _CG_SetupCabinets          30038130 f   cg_ents.obj
 0001:00037880       _CG_CheckEvents            30038880 f   cg_event.obj
 0001:00037970       _CG_Debris                 30038970 f   cg_event.obj
 0001:00037b20       _CG_Effect                 30038b20 f   cg_event.obj
 0001:00037fc0       _CG_EntityEvent            30038fc0 f   cg_event.obj
 0001:0003a0f0       _CG_Explode                3003b0f0 f   cg_event.obj
 0001:0003a200       _CG_Explodef               3003b200 f   cg_event.obj
 0001:0003ab30       _CG_MortarImpact           3003bb30 f   cg_event.obj
 0001:0003ac90       _CG_MortarMiss             3003bc90 f   cg_event.obj
 0001:0003b410       _CG_PainEvent              3003c410 f   cg_event.obj
 0001:0003b480       _CG_PrecacheFXSounds       3003c480 f   cg_event.obj
 0001:0003b4c0       _CG_Rubble                 3003c4c0 f   cg_event.obj
 0001:0003b5f0       _CG_RubbleFx               3003c5f0 f   cg_event.obj
 0001:0003be10       _CG_Shard                  3003ce10 f   cg_event.obj
 0001:0003c1c0       _CG_ShardJunk              3003d1c0 f   cg_event.obj
 0001:0003c410       _CG_BuildSelectedFirteamString 3003d410 f   cg_fireteamoverlay.obj
 0001:0003c4f0       _CG_ClientInfoForPosition  3003d4f0 f   cg_fireteamoverlay.obj
 0001:0003c560       _CG_DrawFakeFireTeamOverlay 3003d560 f   cg_fireteamoverlay.obj
 0001:0003c9b0       _CG_DrawFireTeamOverlay    3003d9b0 f   cg_fireteamoverlay.obj
 0001:0003d2b0       _CG_FireTeamForPosition    3003e2b0 f   cg_fireteamoverlay.obj
 0001:0003d320       _CG_FireTeamPlayerForPosition 3003e320 f   cg_fireteamoverlay.obj
 0001:0003d390       _CG_FireteamGetBoxNeedsButtons 3003e390 f   cg_fireteamoverlay.obj
 0001:0003d3e0       _CG_FireteamGetBoxText     3003e3e0 f   cg_fireteamoverlay.obj
 0001:0003d4e0       _CG_FireteamHasClass       3003e4e0 f   cg_fireteamoverlay.obj
 0001:0003d540       _CG_IsFireTeamLeader       3003e540 f   cg_fireteamoverlay.obj
 0001:0003d560       _CG_IsOnSameFireteam       3003e560 f   cg_fireteamoverlay.obj
 0001:0003d590       _CG_ParseFireteams         3003e590 f   cg_fireteamoverlay.obj
 0001:0003d710       _CG_SortClientFireteam     3003e710 f   cg_fireteamoverlay.obj
 0001:0003d7a0       _CG_SortFireTeam           3003e7a0 f   cg_fireteamoverlay.obj
 0001:0003d830       _CG_SortedFireTeamPlayerForPosition 3003e830 f   cg_fireteamoverlay.obj
 0001:0003d880       ___local_stdio_scanf_options 3003e880 f i cg_fireteamoverlay.obj
 0001:0003d890       _sscanf                    3003e890 f i cg_fireteamoverlay.obj
 0001:0003d8c0       _CG_Fireteams_MenuText_Draw 3003e8c0 f   cg_fireteams.obj
 0001:0003de90       _CG_Fireteams_MenuTitleText_Draw 3003ee90 f   cg_fireteams.obj
 0001:0003dff0       _CG_CountFireteamsByTeam   3003eff0 f   cg_fireteams.obj
 0001:0003e0d0       _CG_CountPlayersNF         3003f0d0 f   cg_fireteams.obj
 0001:0003e120       _CG_CountPlayersSF         3003f120 f   cg_fireteams.obj
 0001:0003e180       _CG_DrawFireteamsByTeam    3003f180 f   cg_fireteams.obj
 0001:0003e280       _CG_DrawPlayerNF           3003f280 f   cg_fireteams.obj
 0001:0003e480       _CG_DrawPlayerSF           3003f480 f   cg_fireteams.obj
 0001:0003e680       _CG_FireteamCheckExecKey   3003f680 f   cg_fireteams.obj
 0001:0003edd0       _CG_Fireteams_Draw         3003fdd0 f   cg_fireteams.obj
 0001:0003ede0       _CG_Fireteams_KeyHandling  3003fde0 f   cg_fireteams.obj
 0001:0003ee00       _CG_Fireteams_Setup        3003fe00 f   cg_fireteams.obj
 0001:0003ee10       _CG_PlayerNFFromPos        3003fe10 f   cg_fireteams.obj
 0001:0003eed0       _CG_PlayerSFFromPos        3003fed0 f   cg_fireteams.obj
 0001:0003ef90       _CG_AddFlameChunks         3003ff90 f   cg_flamethrower.obj
 0001:0003f0e0       _CG_AddFlameSpriteToScene  300400e0 f   cg_flamethrower.obj
 0001:0003f6c0       _CG_AddFlameToScene        300406c0 f   cg_flamethrower.obj
 0001:00040070       _CG_ClearFlameChunks       30041070 f   cg_flamethrower.obj
 0001:00040120       _CG_FireFlameChunks        30041120 f   cg_flamethrower.obj
 0001:00040a10       _CG_FlameAdjustSpeed       30041a10 f   cg_flamethrower.obj
 0001:00040a60       _CG_FlameCalcOrg           30041a60 f   cg_flamethrower.obj
 0001:00040af0       _CG_FlameDamage            30041af0 f   cg_flamethrower.obj
 0001:00040b00       _CG_FlameLerpVec           30041b00 f   cg_flamethrower.obj
 0001:00040ba0       _CG_FreeFlameChunk         30041ba0 f   cg_flamethrower.obj
 0001:00040c50       _CG_GenerateShaders        30041c50 f   cg_flamethrower.obj
 0001:00040e70       _CG_InitFlameChunks        30041e70 f   cg_flamethrower.obj
 0001:00040f10       _CG_MergeFlameChunks       30041f10 f   cg_flamethrower.obj
 0001:00040fa0       _CG_MoveFlameChunk         30041fa0 f   cg_flamethrower.obj
 0001:00041320       _CG_SpawnFlameChunk        30042320 f   cg_flamethrower.obj
 0001:000413f0       _CG_UpdateFlamethrowerSounds 300423f0 f   cg_flamethrower.obj
 0001:00041530       _CG_CancelHudMenu_f        30042530 f   cg_hud.obj
 0001:00041560       _CG_DumpHud                30042560 f   cg_hud.obj
 0001:00041870       _CG_EditHud                30042870 f   cg_hud.obj
 0001:00043100       _CG_HudEditor_Draw         30044100 f   cg_hud.obj
 0001:00043e30       _CG_HudEditor_KeyHandling  30044e30 f   cg_hud.obj
 0001:00044ee0       _CG_HudEditor_MouseHandling 30045ee0 f   cg_hud.obj
 0001:00045b50       _CG_HudEditor_f            30046b50 f   cg_hud.obj
 0001:00045cf0       _CG_LoadBlankHud           30046cf0 f   cg_hud.obj
 0001:00045e10       _CG_LoadDefaultHud         30046e10 f   cg_hud.obj
 0001:00046060       _CG_LoadHud                30047060 f   cg_hud.obj
 0001:00046a60       _CG_LoadHudMenu_f          30047a60 f   cg_hud.obj
 0001:00046ab0       _CG_SaveHud                30047ab0 f   cg_hud.obj
 0001:00047470       _CG_SaveHudMenu_f          30048470 f   cg_hud.obj
 0001:000474c0       _CG_SaveHud_f              300484c0 f   cg_hud.obj
 0001:00047580       _CG_DemoClick              30048580 f   cg_info.obj
 0001:00047be0       _CG_DemoHelpDraw           30048be0 f   cg_info.obj
 0001:000480a0       _CG_DrawInformation        300490a0 f   cg_info.obj
 0001:000480e0       _CG_DrawOverlays           300490e0 f   cg_info.obj
 0001:00048100       _CG_GameStatsDraw          30049100 f   cg_info.obj
 0001:00048ae0       _CG_LoadingString          30049ae0 f   cg_info.obj
 0001:00048b20       _CG_ObjectivesDraw         30049b20 f   cg_info.obj
 0001:00049a30       _CG_ShowHelp_Off           3004aa30 f   cg_info.obj
 0001:00049aa0       _CG_ShowHelp_On            3004aaa0 f   cg_info.obj
 0001:00049b10       _CG_SpecHelpDraw           3004ab10 f   cg_info.obj
 0001:00049fb0       _CG_TopShotsDraw           3004afb0 f   cg_info.obj
 0001:0004a4e0       _CG_ViewingDraw            3004b4e0 f   cg_info.obj
 0001:0004a650       _CG_getBindKeyName         3004b650 f   cg_info.obj
 0001:0004a6d0       _CG_LimboPanel_WeaponLights_KeyDown 3004b6d0 f   cg_limbopanel.obj
 0001:0004a720       _CG_LimboPanel_WeaponPanel_KeyDown 3004b720 f   cg_limbopanel.obj
 0001:0004a770       _CG_LimboPanel_WeaponPanel_KeyUp 3004b770 f   cg_limbopanel.obj
 0001:0004a860       _CG_LimboPanel_ObjectiveText_KeyDown 3004b860 f   cg_limbopanel.obj
 0001:0004a8e0       _CG_LimboPanel_TeamButton_KeyDown 3004b8e0 f   cg_limbopanel.obj
 0001:0004a950       _CG_LimboPanel_ClassButton_KeyDown 3004b950 f   cg_limbopanel.obj
 0001:0004a9b0       _CG_LimboPanel_OkButton_KeyDown 3004b9b0 f   cg_limbopanel.obj
 0001:0004a9e0       _CG_LimboPanel_PlusButton_KeyDown 3004b9e0 f   cg_limbopanel.obj
 0001:0004aa40       _CG_LimboPanel_MinusButton_KeyDown 3004ba40 f   cg_limbopanel.obj
 0001:0004aaa0       _CG_LimboPanel_CancelButton_KeyDown 3004baa0 f   cg_limbopanel.obj
 0001:0004ab00       _CG_LimboPanel_Filter_KeyDown 3004bb00 f   cg_limbopanel.obj
 0001:0004ab40       _CG_LimboPanel_BriefingButton_KeyDown 3004bb40 f   cg_limbopanel.obj
 0001:0004abd0       _CG_LimboPanel_BriefingButton_Draw 3004bbd0 f   cg_limbopanel.obj
 0001:0004ac60       _CG_LimboPanel_ClassBar_Draw 3004bc60 f   cg_limbopanel.obj
 0001:0004ae80       _CG_LimboPanel_Filter_Draw 3004be80 f   cg_limbopanel.obj
 0001:0004af20       _CG_LimboPanel_RenderSkillIcon 3004bf20 f   cg_limbopanel.obj
 0001:0004af80       _CG_LimboPanel_RenderTeamButton 3004bf80 f   cg_limbopanel.obj
 0001:0004b100       _CG_LimboPanel_RenderClassButton 3004c100 f   cg_limbopanel.obj
 0001:0004b500       _CG_LimboPanel_RenderObjectiveText 3004c500 f   cg_limbopanel.obj
 0001:0004b850       _CG_LimboPanel_RenderCommandMap 3004c850 f   cg_limbopanel.obj
 0001:0004b890       _CG_LimboPanel_RenderObjectiveBack 3004c890 f   cg_limbopanel.obj
 0001:0004b8c0       _CG_LimboPanel_RenderLight 3004c8c0 f   cg_limbopanel.obj
 0001:0004b950       _CG_LimboPanel_WeaponLights 3004c950 f   cg_limbopanel.obj
 0001:0004b9b0       _CG_LimboPanel_RenderHead  3004c9b0 f   cg_limbopanel.obj
 0001:0004bd90       _CG_LimboPanel_WeaponPanel 3004cd90 f   cg_limbopanel.obj
 0001:0004c150       _CG_LimboPanel_Border_Draw 3004d150 f   cg_limbopanel.obj
 0001:0004c170       _CG_LimboPanel_RenderMedal 3004d170 f   cg_limbopanel.obj
 0001:0004c200       _CG_LimboPanel_RenderCounter 3004d200 f   cg_limbopanel.obj
 0001:0004c570       _CG_LimboPanelRenderText_NoLMS 3004d570 f   cg_limbopanel.obj
 0001:0004c590       _CG_LimboPanelRenderText_SkillsText 3004d590 f   cg_limbopanel.obj
 0001:0004c5b0       _CG_LimboPanel_NameEditFinish 3004d5b0 f   cg_limbopanel.obj
 0001:0004c600       _CG_DrawBorder             3004d600 f   cg_limbopanel.obj
 0001:0004c970       _CG_DrawPlayerHead         3004d970 f   cg_limbopanel.obj
 0001:0004cd40       _CG_IsHeavyWeapon          3004dd40 f   cg_limbopanel.obj
 0001:0004cd70       _CG_LimboPanel_Draw        3004dd70 f   cg_limbopanel.obj
 0001:0004cea0       _CG_LimboPanel_GetCharacter 3004dea0 f   cg_limbopanel.obj
 0001:0004ced0       _CG_LimboPanel_GetClass    3004ded0 f   cg_limbopanel.obj
 0001:0004cee0       _CG_LimboPanel_GetMaxObjectives 3004dee0 f   cg_limbopanel.obj
 0001:0004cf10       _CG_LimboPanel_GetPlayerClass 3004df10 f   cg_limbopanel.obj
 0001:0004cf30       _CG_LimboPanel_GetRealTeam 3004df30 f   cg_limbopanel.obj
 0001:0004cf50       _CG_LimboPanel_GetSelectedWeapon 3004df50 f   cg_limbopanel.obj
 0001:0004cf70       _CG_LimboPanel_GetSelectedWeaponForSlot 3004df70 f   cg_limbopanel.obj
 0001:0004cfa0       _CG_LimboPanel_GetSelectedWeaponNum 3004dfa0 f   cg_limbopanel.obj
 0001:0004cfe0       _CG_LimboPanel_GetSelectedWeaponStat 3004dfe0 f   cg_limbopanel.obj
 0001:0004cff0       _CG_LimboPanel_GetTeam     3004dff0 f   cg_limbopanel.obj
 0001:0004d000       _CG_LimboPanel_GetWeaponCardIconData 3004e000 f   cg_limbopanel.obj
 0001:0004d260       _CG_LimboPanel_GetWeaponForNumber 3004e260 f   cg_limbopanel.obj
 0001:0004d380       _CG_LimboPanel_GetWeaponNumberForPos 3004e380 f   cg_limbopanel.obj
 0001:0004d3f0       _CG_LimboPanel_Init        3004e3f0 f   cg_limbopanel.obj
 0001:0004d400       _CG_LimboPanel_KeyHandling 3004e400 f   cg_limbopanel.obj
 0001:0004d470       _CG_LimboPanel_RealWeaponIsDisabled 3004e470 f   cg_limbopanel.obj
 0001:0004d8e0       _CG_LimboPanel_RenderCounterNumber 3004e8e0 f   cg_limbopanel.obj
 0001:0004d9f0       _CG_LimboPanel_RenderCounter_CountsDown 3004e9f0 f   cg_limbopanel.obj
 0001:0004da10       _CG_LimboPanel_RenderCounter_CountsUp 3004ea10 f   cg_limbopanel.obj
 0001:0004da30       _CG_LimboPanel_RenderCounter_GetShaders 3004ea30 f   cg_limbopanel.obj
 0001:0004da80       _CG_LimboPanel_RenderCounter_IsReversed 3004ea80 f   cg_limbopanel.obj
 0001:0004daa0       _CG_LimboPanel_RenderCounter_MaxChangeForButton 3004eaa0 f   cg_limbopanel.obj
 0001:0004dac0       _CG_LimboPanel_RenderCounter_NumRollers 3004eac0 f   cg_limbopanel.obj
 0001:0004db40       _CG_LimboPanel_RenderCounter_RollTimeForButton 3004eb40 f   cg_limbopanel.obj
 0001:0004dbe0       _CG_LimboPanel_RenderCounter_StartSet 3004ebe0 f   cg_limbopanel.obj
 0001:0004dc00       _CG_LimboPanel_RenderCounter_ValueForButton 3004ec00 f   cg_limbopanel.obj
 0001:0004de40       _CG_LimboPanel_RenderLight_GetValue 3004ee40 f   cg_limbopanel.obj
 0001:0004de90       _CG_LimboPanel_RequestObjective 3004ee90 f   cg_limbopanel.obj
 0001:0004dee0       _CG_LimboPanel_RequestWeaponStats 3004eee0 f   cg_limbopanel.obj
 0001:0004df00       _CG_LimboPanel_SendSetupMsg 3004ef00 f   cg_limbopanel.obj
 0001:0004e040       _CG_LimboPanel_SetSelectedWeaponNum 3004f040 f   cg_limbopanel.obj
 0001:0004e080       _CG_LimboPanel_SetSelectedWeaponNumForSlot 3004f080 f   cg_limbopanel.obj
 0001:0004e0a0       _CG_LimboPanel_Setup       3004f0a0 f   cg_limbopanel.obj
 0001:0004e290       _CG_LimboPanel_TeamCount   3004f290 f   cg_limbopanel.obj
 0001:0004e300       _CG_LimboPanel_WeaponCount 3004f300 f   cg_limbopanel.obj
 0001:0004e310       _CG_LimboPanel_WeaponCount_ForSlot 3004f310 f   cg_limbopanel.obj
 0001:0004e380       _CG_LimboPanel_WeaponFromNum 3004f380 f   cg_limbopanel.obj
 0001:0004e3c0       _CG_LimboPanel_WeaponIsDisabled 3004f3c0 f   cg_limbopanel.obj
 0001:0004e3e0       _CG_LimboPanel_WeaponPanel_DrawWeapon 3004f3e0 f   cg_limbopanel.obj
 0001:0004e730       _ExtractInt                3004f730 f   cg_limbopanel.obj
 0001:0004e7d0       _CG_LoadPanel_RenderCampaignPins 3004f7d0 f   cg_loadpanel.obj
 0001:0004e970       _CG_LoadPanel_RenderMissionDescriptionText 3004f970 f   cg_loadpanel.obj
 0001:0004eb00       _CG_LoadPanel_RenderCampaignTypeText 3004fb00 f   cg_loadpanel.obj
 0001:0004eb80       _CG_LoadPanel_RenderCampaignNameText 3004fb80 f   cg_loadpanel.obj
 0001:0004ecf0       _CG_LoadPanel_RenderLoadingBar 3004fcf0 f   cg_loadpanel.obj
 0001:0004eda0       _CG_DrawConnectScreen      3004fda0 f   cg_loadpanel.obj
 0001:0004f4b0       _CG_LoadPanel_ContinueButtonKeyDown 300504b0 f   cg_loadpanel.obj
 0001:0004f4e0       _CG_LoadPanel_DrawPin      300504e0 f   cg_loadpanel.obj
 0001:0004f790       _CG_LoadPanel_GameTypeName 30050790 f   cg_loadpanel.obj
 0001:0004f800       _CG_LoadPanel_KeyHandling  30050800 f   cg_loadpanel.obj
 0001:0004f820       _CG_AddBloodElements       30050820 f   cg_localents.obj
 0001:0004f9f0       _CG_AddConstRGB            300509f0 f   cg_localents.obj
 0001:0004fa40       _CG_AddDebrisElements      30050a40 f   cg_localents.obj
 0001:0004fc30       _CG_AddEmitter             30050c30 f   cg_localents.obj
 0001:0004fda0       _CG_AddFadeRGB             30050da0 f   cg_localents.obj
 0001:0004ff20       _CG_AddFragment            30050f20 f   cg_localents.obj
 0001:000509d0       _CG_AddFuseSparkElements   300519d0 f   cg_localents.obj
 0001:00050b00       _CG_AddLocalEntities       30051b00 f   cg_localents.obj
 0001:00050db0       _CG_AddMovingTracer        30051db0 f   cg_localents.obj
 0001:00050f50       _CG_AddShrapnel            30051f50 f   cg_localents.obj
 0001:00051180       _CG_AddSparkElements       30052180 f   cg_localents.obj
 0001:00051570       _CG_AllocLocalEntity       30052570 f   cg_localents.obj
 0001:000515d0       _CG_BloodTrail             300525d0 f   cg_localents.obj
 0001:00051700       _CG_FragmentBounceMark     30052700 f   cg_localents.obj
 0001:000517e0       _CG_FragmentBounceSound    300527e0 f   cg_localents.obj
 0001:000518c0       _CG_FreeLocalEntity        300528c0 f   cg_localents.obj
 0001:00051900       _CG_GetLocation            30052900 f   cg_localents.obj
 0001:000519e0       _CG_GetLocationMsg         300529e0 f   cg_localents.obj
 0001:00051a30       _CG_InitLocalEntities      30052a30 f   cg_localents.obj
 0001:00051a90       _CG_LoadLocations          30052a90 f   cg_localents.obj
 0001:00051e90       _CG_ReflectVelocity        30052e90 f   cg_localents.obj
 0001:00052010       _CG_Argv                   30053010 f   cg_main.obj
 0001:00052030       _CG_AssetCache             30053030 f   cg_main.obj
 0001:00052140       _CG_Asset_Parse            30053140 f   cg_main.obj
 0001:00052540       _CG_BackupProfile          30053540 f   cg_main.obj
 0001:000526d0       _CG_CheckExecKey           300536d0 f   cg_main.obj
 0001:000526f0       _CG_ConfigString           300536f0 f   cg_main.obj
 0001:00052720       _CG_ConfigStringCopy       30053720 f   cg_main.obj
 0001:00052750       _CG_CrosshairPlayer        30053750 f   cg_main.obj
 0001:00052770       _CG_Cvar_Get               30053770 f   cg_main.obj
 0001:00052810       _CG_Error                  30053810 f   cg_main.obj
 0001:00052cc0       _CG_Init                   30053cc0 f   cg_main.obj
 0001:00053240       _CG_IsSinglePlayer         30054240 f   cg_main.obj
 0001:00053260       _CG_LastAttacker           30054260 f   cg_main.obj
 0001:00053290       _CG_LoadHudMenu            30054290 f   cg_main.obj
 0001:00053510       _CG_LoadMenus              30054510 f   cg_main.obj
 0001:00053680       _CG_LoadObjectiveData      30054680 f   cg_main.obj
 0001:00053900       _CG_Load_Menu              30054900 f   cg_main.obj
 0001:00053990       _CG_ParseMenu              30054990 f   cg_main.obj
 0001:00053a90       _CG_Printf                 30054a90 f   cg_main.obj
 0001:00053b00       _CG_QueueMusic             30054b00 f   cg_main.obj
 0001:00053b90       _CG_RegisterCvars          30054b90 f   cg_main.obj
 0001:00055e40       _CG_RestoreProfile         30056e40 f   cg_main.obj
 0001:00055fc0       _CG_SetupDlightstyles      30056fc0 f   cg_main.obj
 0001:00056140       _CG_Shutdown               30057140 f   cg_main.obj
 0001:00056170       _CG_StartMusic             30057170 f   cg_main.obj
 0001:00056220       _CG_Text_PaintWithCursor   30057220 f   cg_main.obj
 0001:00056270       _CG_UpdateCvars            30057270 f   cg_main.obj
 0001:00056570       _CG_execFile               30057570 f   cg_main.obj
 0001:000565c0       _CG_findClientNum          300575c0 f   cg_main.obj
 0001:000566f0       _CG_generateFilename       300576f0 f   cg_main.obj
 0001:00056770       _CG_nameCleanFilename      30057770 f   cg_main.obj
 0001:000567e0       _CG_printConsoleString     300577e0 f   cg_main.obj
 0001:00056800       _CG_setClientFlags         30057800 f   cg_main.obj
 0001:00056880       _CG_setMacAddress          30057880 f   cg_main.obj
 0001:00056950       _Com_Error                 30057950 f   cg_main.obj
 0001:000569a0       _Com_Printf                300579a0 f   cg_main.obj
 0001:000569f0       _vmMain                    300579f0 f   cg_main.obj
 0001:00056b40       _CG_AddMarks               30057b40 f   cg_marks.obj
 0001:00056c60       _CG_AllocMark              30057c60 f   cg_marks.obj
 0001:00056cd0       _CG_FreeMarkPoly           30057cd0 f   cg_marks.obj
 0001:00056d10       _CG_ImpactMark             30057d10 f   cg_marks.obj
 0001:00056ef0       _CG_InitMarkPolys          30057ef0 f   cg_marks.obj
 0001:00056f50       _CG_DescriptionForCampaign 30057f50 f   cg_missionbriefing.obj
 0001:00056f70       _CG_FindArenaInfo          30057f70 f   cg_missionbriefing.obj
 0001:00057440       _CG_FindCampaignInFile     30058440 f   cg_missionbriefing.obj
 0001:000578a0       _CG_LocateArena            300588a0 f   cg_missionbriefing.obj
 0001:00057900       _CG_LocateCampaign         30058900 f   cg_missionbriefing.obj
 0001:00057a30       _CG_NameForCampaign        30058a30 f   cg_missionbriefing.obj
 0001:00057a50       _CG_mvClientLocate         30058a50 f   cg_multiview.obj
 0001:00057aa0       _CG_mvCreate               30058aa0 f   cg_multiview.obj
 0001:00057bd0       _CG_mvCurrent              30058bd0 f   cg_multiview.obj
 0001:00057c10       _CG_mvDelete_f             30058c10 f   cg_multiview.obj
 0001:00057ca0       _CG_mvDraw                 30058ca0 f   cg_multiview.obj
 0001:00058420       _CG_mvFindNonMainview      30059420 f   cg_multiview.obj
 0001:000584c0       _CG_mvFree                 300594c0 f   cg_multiview.obj
 0001:00058500       _CG_mvHideView_f           30059500 f   cg_multiview.obj
 0001:00058520       _CG_mvMainviewSwap         30059520 f   cg_multiview.obj
 0001:00058560       _CG_mvMergedClientLocate   30059560 f   cg_multiview.obj
 0001:000585a0       _CG_mvNew_f                300595a0 f   cg_multiview.obj
 0001:00058620       _CG_mvOverlayClientUpdate  30059620 f   cg_multiview.obj
 0001:000586f0       _CG_mvOverlayDisplay       300596f0 f   cg_multiview.obj
 0001:00058960       _CG_mvOverlayUpdate        30059960 f   cg_multiview.obj
 0001:000589a0       _CG_mvProcessClientList    300599a0 f   cg_multiview.obj
 0001:00058a20       _CG_mvShowView_f           30059a20 f   cg_multiview.obj
 0001:00058a70       _CG_mvSwapViews_f          30059a70 f   cg_multiview.obj
 0001:00058a90       _CG_mvToggleAll_f          30059a90 f   cg_multiview.obj
 0001:00058ad0       _CG_mvToggleView_f         30059ad0 f   cg_multiview.obj
 0001:00058b20       _CG_mvTransitionPlayerState 30059b20 f   cg_multiview.obj
 0001:00058d60       _CG_mvUpdateClientInfo     30059d60 f   cg_multiview.obj
 0001:00058f90       _CG_mvWindowOverlay        30059f90 f   cg_multiview.obj
 0001:00059560       _CG_mvZoomBinoc            3005a560 f   cg_multiview.obj
 0001:00059870       _CG_mvZoomSniper           3005a870 f   cg_multiview.obj
 0001:00059ae0       _CG_mv_KeyHandling         3005aae0 f   cg_multiview.obj
 0001:00059c80       _CG_ClientNumFromName      3005ac80 f   cg_newDraw.obj
 0001:00059ce0       _CG_DrawCursorhint         3005ace0 f   cg_newDraw.obj
 0001:0005a190       _CG_DrawPlayerWeaponIcon   3005b190 f   cg_newDraw.obj
 0001:0005a370       _CG_DrawWeapHeat           3005b370 f   cg_newDraw.obj
 0001:0005a400       _CG_DrawWeapStability      3005b400 f   cg_newDraw.obj
 0001:0005a4b0       _CG_EventHandling          3005b4b0 f   cg_newDraw.obj
 0001:0005a700       _CG_FitTextToWidth2        3005b700 f   cg_newDraw.obj
 0001:0005a800       _CG_FitTextToWidth_Ext     3005b800 f   cg_newDraw.obj
 0001:0005a900       _CG_FitTextToWidth_SingleLine 3005b900 f   cg_newDraw.obj
 0001:0005a9b0       _CG_GetTeamColor           3005b9b0 f   cg_newDraw.obj
 0001:0005aa10       _CG_GetValue               3005ba10 f   cg_newDraw.obj
 0001:0005aa20       _CG_KeyEvent               3005ba20 f   cg_newDraw.obj
 0001:0005aac0       _CG_MouseEvent             3005bac0 f   cg_newDraw.obj
 0001:0005ac20       _CG_OtherTeamHasFlag       3005bc20 f   cg_newDraw.obj
 0001:0005ac30       _CG_OwnerDrawVisible       3005bc30 f   cg_newDraw.obj
 0001:0005ac40       _CG_RunMenuScript          3005bc40 f   cg_newDraw.obj
 0001:0005ac50       _CG_TrimLeftPixels         3005bc50 f   cg_newDraw.obj
 0001:0005ad40       _CG_YourTeamHasFlag        3005bd40 f   cg_newDraw.obj
 0001:0005adc0       _CG_BuildFilePath          3005bdc0 f   cg_osfile.obj
 0001:0005ae30       _CG_DeleteFile             3005be30 f   cg_osfile.obj
 0001:0005ae50       _CG_IsDirectory            3005be50 f   cg_osfile.obj
 0001:0005aeb0       _CG_IsFile                 3005beb0 f   cg_osfile.obj
 0001:0005af10       _CG_IterateDirectory       3005bf10 f   cg_osfile.obj
 0001:0005b050       _CG_ReadDataFromFile       3005c050 f   cg_osfile.obj
 0001:0005b110       _CG_RenameFile             3005c110 f   cg_osfile.obj
 0001:0005b130       _CG_WriteDataToFile        3005c130 f   cg_osfile.obj
 0001:0005b1f0       _CG_AddParticleShrapnel    3005c1f0 f   cg_particles.obj
 0001:0005b200       _CG_AddParticleToScene     3005c200 f   cg_particles.obj
 0001:0005cc90       _CG_AddParticles           3005dc90 f   cg_particles.obj
 0001:0005cfc0       _CG_ClearParticles         3005dfc0 f   cg_particles.obj
 0001:0005d0d0       _CG_NewParticleArea        3005e0d0 f   cg_particles.obj
 0001:0005d290       _CG_OilSlickRemove         3005e290 f   cg_particles.obj
 0001:0005d2f0       _CG_ParticleBloodCloud     3005e2f0 f   cg_particles.obj
 0001:0005d510       _CG_ParticleBloodCloudZombie 3005e510 f   cg_particles.obj
 0001:0005d870       _CG_ParticleBubble         3005e870 f   cg_particles.obj
 0001:0005db10       _CG_ParticleBulletDebris   3005eb10 f   cg_particles.obj
 0001:0005dc00       _CG_ParticleDirtBulletDebris 3005ec00 f   cg_particles.obj
 0001:0005dd20       _CG_ParticleDirtBulletDebris_Core 3005ed20 f   cg_particles.obj
 0001:0005de40       _CG_ParticleDust           3005ee40 f   cg_particles.obj
 0001:0005e260       _CG_ParticleExplosion      3005f260 f   cg_particles.obj
 0001:0005e3d0       _CG_ParticleImpactSmokePuff 3005f3d0 f   cg_particles.obj
 0001:0005e400       _CG_ParticleImpactSmokePuffExtended 3005f400 f   cg_particles.obj
 0001:0005e590       _CG_ParticleMisc           3005f590 f   cg_particles.obj
 0001:0005e660       _CG_ParticleSmoke          3005f660 f   cg_particles.obj
 0001:0005eb70       _CG_ParticleSnow           3005fb70 f   cg_particles.obj
 0001:0005eda0       _CG_ParticleSnowFlurry     3005fda0 f   cg_particles.obj
 0001:0005efe0       _CG_ParticleSparks         3005ffe0 f   cg_particles.obj
 0001:0005f290       _CG_Particle_Bleed         30060290 f   cg_particles.obj
 0001:0005f3d0       _CG_Particle_OilParticle   300603d0 f   cg_particles.obj
 0001:0005f530       _CG_Particle_OilSlick      30060530 f   cg_particles.obj
 0001:0005f700       _CG_SnowLink               30060700 f   cg_particles.obj
 0001:0005f750       _ValidBloodPool            30060750 f   cg_particles.obj
 0001:0005fad0       _CG_AddRefEntityWithPowerups 30060ad0 f   cg_players.obj
 0001:0005fca0       _CG_AnimPlayerConditions   30060ca0 f   cg_players.obj
 0001:0005ffc0       _CG_ClearHudHeadLerpFrame  30060fc0 f   cg_players.obj
 0001:00060050       _CG_ClearLerpFrameRate     30061050 f   cg_players.obj
 0001:000600a0       _CG_CustomSound            300610a0 f   cg_players.obj
 0001:000600c0       _CG_DrawPlayer_Limbo       300610c0 f   cg_players.obj
 0001:00060810       _CG_EntOnFire              30061810 f   cg_players.obj
 0001:00060870       _CG_GetBleedOrigin         30061870 f   cg_players.obj
 0001:00060a20       _CG_GetLimboAnimation      30061a20 f   cg_players.obj
 0001:00060ab0       _CG_GetSelectedWeapon      30061ab0 f   cg_players.obj
 0001:00060ac0       _CG_GetTag                 30061ac0 f   cg_players.obj
 0001:00060c20       _CG_GetWeaponTag           30061c20 f   cg_players.obj
 0001:00060da0       _CG_HudHeadAnimation       30061da0 f   cg_players.obj
 0001:00060de0       _CG_IsCrouchingAnim        30061de0 f   cg_players.obj
 0001:00060e50       _CG_MenuCheckPendingAnimation 30061e50 f   cg_players.obj
 0001:00060ef0       _CG_MenuPendingAnimation   30061ef0 f   cg_players.obj
 0001:00060f80       _CG_MenuSetAnimation       30061f80 f   cg_players.obj
 0001:00061050       _CG_NewClientInfo          30062050 f   cg_players.obj
 0001:000616e0       _CG_ParseTeamXPs           300626e0 f   cg_players.obj
 0001:00061750       _CG_Player                 30062750 f   cg_players.obj
 0001:000623f0       _CG_PlayerAngles_Limbo     300633f0 f   cg_players.obj
 0001:000626d0       _CG_PlayerClassForClientinfo 300636d0 f   cg_players.obj
 0001:00062f80       _CG_ResetPlayerEntity      30063f80 f   cg_players.obj
 0001:00063100       _CG_RunHudHeadLerpFrame    30064100 f   cg_players.obj
 0001:00063240       _CG_RunLerpFrame           30064240 f   cg_players.obj
 0001:000633b0       _CG_RunLerpFrameRate       300643b0 f   cg_players.obj
 0001:000639c0       _CG_SetHudHeadLerpFrameAnimation 300649c0 f   cg_players.obj
 0001:00063aa0       _CG_SetLerpFrameAnimationRate 30064aa0 f   cg_players.obj
 0001:00063fd0       _WM_FindWeaponTypeForWeapon 30064fd0 f   cg_players.obj
 0001:00064010       _WM_RegisterWeaponTypeShaders 30065010 f   cg_players.obj
 0001:00064030       _vtosf                     30065030 f   cg_players.obj
 0001:00064090       _CG_CheckAmmo              30065090 f   cg_playerstate.obj
 0001:00064120       _CG_CheckChangedPredictableEvents 30065120 f   cg_playerstate.obj
 0001:000641b0       _CG_CheckLocalSounds       300651b0 f   cg_playerstate.obj
 0001:00064490       _CG_CheckPlayerstateEvents 30065490 f   cg_playerstate.obj
 0001:00064560       _CG_CheckPlayerstateEvents_wolf 30065560 f   cg_playerstate.obj
 0001:000645c0       _CG_DamageFeedback         300655c0 f   cg_playerstate.obj
 0001:00064a00       _CG_Respawn                30065a00 f   cg_playerstate.obj
 0001:00064b80       _CG_TransitionPlayerState  30065b80 f   cg_playerstate.obj
 0001:00064dd0       _CG_PB_ClearPolyBuffers    30065dd0 f   cg_polybus.obj
 0001:00064df0       _CG_PB_FindFreePolyBuffer  30065df0 f   cg_polybus.obj
 0001:00064ec0       _CG_PB_RenderPolyBuffers   30065ec0 f   cg_polybus.obj
 0001:00064f00       _CG_AddPMItem              30065f00 f   cg_popupmessages.obj
 0001:00065020       _CG_AddPMItemBig           30066020 f   cg_popupmessages.obj
 0001:000650c0       _CG_AddToListFront         300660c0 f   cg_popupmessages.obj
 0001:000650e0       _CG_DrawKeyHint            300660e0 f   cg_popupmessages.obj
 0001:000650f0       _CG_DrawPMItems            300660f0 f   cg_popupmessages.obj
 0001:000653e0       _CG_DrawPMItemsBig         300663e0 f   cg_popupmessages.obj
 0001:00065530       _CG_FindFreePMItem         30066530 f   cg_popupmessages.obj
 0001:000655b0       _CG_FindFreePMItem2        300665b0 f   cg_popupmessages.obj
 0001:000655e0       _CG_GetPMItemIcon          300665e0 f   cg_popupmessages.obj
 0001:00065630       _CG_GetPMItemText          30066630 f   cg_popupmessages.obj
 0001:00065a10       _CG_InitPM                 30066a10 f   cg_popupmessages.obj
 0001:00065a60       _CG_InitPMGraphics         30066a60 f   cg_popupmessages.obj
 0001:00065b30       _CG_PMItemBigSound         30066b30 f   cg_popupmessages.obj
 0001:00065b80       _CG_PlayPMItemSound        30066b80 f   cg_popupmessages.obj
 0001:00065cd0       _CG_TimeForBigPopup        30066cd0 f   cg_popupmessages.obj
 0001:00065ce0       _CG_TimeForPopup           30066ce0 f   cg_popupmessages.obj
 0001:00065cf0       _CG_UpdatePMLists          30066cf0 f   cg_popupmessages.obj
 0001:00065e50       _CG_BuildSolidList         30066e50 f   cg_predict.obj
 0001:00065f40       _CG_ClientHitboxMaxZ       30066f40 f   cg_predict.obj
 0001:00066410       _CG_FTTrace                30067410 f   cg_predict.obj
 0001:00066680       _CG_PointContents          30067680 f   cg_predict.obj
 0001:00066700       _CG_PredictPlayerState     30067700 f   cg_predict.obj
 0001:00067440       _CG_PredictionOk           30068440 f   cg_predict.obj
 0001:00067c10       _CG_Trace                  30068c10 f   cg_predict.obj
 0001:00067cc0       _CG_TraceCapsule           30068cc0 f   cg_predict.obj
 0001:00067d70       _CG_TraceCapsule_World     30068d70 f   cg_predict.obj
 0001:00067e00       _CG_Trace_World            30068e00 f   cg_predict.obj
 0001:00067e90       _CG_DrawScoreboard         30068e90 f   cg_scoreboard.obj
 0001:00067fd0       _CG_SortScoresByKR         30068fd0 f   cg_scoreboard.obj
 0001:00068010       _CG_SortScoresByPR         30069010 f   cg_scoreboard.obj
 0001:000691f0       _WM_DrawObjectives         3006a1f0 f   cg_scoreboard.obj
 0001:0006a390       _WM_TimeToString           3006b390 f   cg_scoreboard.obj
 0001:0006a400       _cf_draw                   3006b400 f   cg_scoreboard.obj
 0001:0006a5a0       _CG_AddBufferedVoiceChat   3006b5a0 f   cg_servercmds.obj
 0001:0006a5d0       _CG_AddToTeamChat          3006b5d0 f   cg_servercmds.obj
 0001:0006a790       _CG_Args                   3006b790 f   cg_servercmds.obj
 0001:0006a820       _CG_ChargeTimesChanged     3006b820 f   cg_servercmds.obj
 0001:0006aea0       _CG_ExecuteNewServerCommands 3006bea0 f   cg_servercmds.obj
 0001:0006afe0       _CG_GetVoiceChat           3006bfe0 f   cg_servercmds.obj
 0001:0006b090       _CG_HeadModelVoiceChats    3006c090 f   cg_servercmds.obj
 0001:0006b1e0       _CG_LoadVoiceChats         3006c1e0 f   cg_servercmds.obj
 0001:0006b240       _CG_LocalizeServerCommand  3006c240 f   cg_servercmds.obj
 0001:0006b720       _CG_OIDInfoForEntityNum    3006c720 f   cg_servercmds.obj
 0001:0006b750       _CG_ParseEtpubinfo         3006c750 f   cg_servercmds.obj
 0001:0006beb0       _CG_ParseOIDInfo           3006ceb0 f   cg_servercmds.obj
 0001:0006c080       _CG_ParseOIDInfos          3006d080 f   cg_servercmds.obj
 0001:0006c100       _CG_ParsePortalPos         3006d100 f   cg_servercmds.obj
 0001:0006c190       _CG_ParseReinforcementTimes 3006d190 f   cg_servercmds.obj
 0001:0006c450       _CG_ParseServerVersionInfo 3006d450 f   cg_servercmds.obj
 0001:0006c470       _CG_ParseServerinfo        3006d470 f   cg_servercmds.obj
 0001:0006c6e0       _CG_ParseSpawns            3006d6e0 f   cg_servercmds.obj
 0001:0006c9f0       _CG_ParseVoiceChats        3006d9f0 f   cg_servercmds.obj
 0001:0006ce90       _CG_ParseWeaponStats       3006de90 f   cg_servercmds.obj
 0001:0006cec0       _CG_ParseWolfinfo          3006dec0 f   cg_servercmds.obj
 0001:0006d000       _CG_PlayBufferedVoiceChats 3006e000 f   cg_servercmds.obj
 0001:0006d060       _CG_PlayVoiceChat          3006e060 f   cg_servercmds.obj
 0001:0006e430       _CG_SetConfigValues        3006f430 f   cg_servercmds.obj
 0001:0006e510       _CG_ShaderStateChanged     3006f510 f   cg_servercmds.obj
 0001:0006e660       _CG_VoiceChat              3006f660 f   cg_servercmds.obj
 0001:0006e880       _CG_VoiceChatListForClient 3006f880 f   cg_servercmds.obj
 0001:0006e8a0       _CG_VoiceChatLocal         3006f8a0 f   cg_servercmds.obj
 0001:0006eb40       _CG_dumpStats              3006fb40 f   cg_servercmds.obj
 0001:0006ec50       _CG_parseBestShotsStats_cmd 3006fc50 f   cg_servercmds.obj
 0001:0006ee50       _CG_parseTopShotsStats_cmd 3006fe50 f   cg_servercmds.obj
 0001:0006f030       _CG_parseWeaponStatsGS_cmd 30070030 f   cg_servercmds.obj
 0001:0006f510       _CG_parseWeaponStats_cmd   30070510 f   cg_servercmds.obj
 0001:0006fb40       _CG_printFile              30070b40 f   cg_servercmds.obj
 0001:0006fbc0       _CG_scores_cmd             30070bc0 f   cg_servercmds.obj
 0001:0006fd00       _CG_topshotsParse_cmd      30070d00 f   cg_servercmds.obj
 0001:0006fe60       _CG_wstatsParse_cmd        30070e60 f   cg_servercmds.obj
 0001:00070020       _CG_AddFloatingString      30071020 f   cg_shoutcaster.obj
 0001:00070260       _CG_DrawFloatingStrings    30071260 f   cg_shoutcaster.obj
 0001:00070340       _CG_DrawLandmine           30071340 f   cg_shoutcaster.obj
 0001:000703d0       _CG_PointIsVisible         300713d0 f   cg_shoutcaster.obj
 0001:00070420       _CG_WorldToScreen          30071420 f   cg_shoutcaster.obj
 0001:00070590       _CG_ProcessSnapshots       30071590 f   cg_snapshot.obj
 0001:000708b0       _CG_SetInitialSnapshot     300718b0 f   cg_snapshot.obj
 0001:00070fe0       _CG_SpeakerInfo_Text       30071fe0 f   cg_sound.obj
 0001:00071650       _CG_SpeakerEditor_RenderEdit 30072650 f   cg_sound.obj
 0001:00071740       _CG_SpeakerEditor_RenderButton 30072740 f   cg_sound.obj
 0001:000718c0       _CG_SpeakerEditor_RenderDropdown 300728c0 f   cg_sound.obj
 0001:00071e40       _CG_SpeakerEditor_Back     30072e40 f   cg_sound.obj
 0001:00071f80       _CG_SpeakerEditor_LocInfo  30072f80 f   cg_sound.obj
 0001:00072020       _CG_SpeakerEditor_NoiseEdit_KeyDown 30073020 f   cg_sound.obj
 0001:000722d0       _CG_SpeakerEditor_NoiseEditFinish 300732d0 f   cg_sound.obj
 0001:00072320       _CG_SpeakerEditor_TargetnameEditFinish 30073320 f   cg_sound.obj
 0001:00072340       _CG_SpeakerEditor_Dropdown_KeyDown 30073340 f   cg_sound.obj
 0001:00072370       _CG_SpeakerEditor_Looped_KeyUp 30073370 f   cg_sound.obj
 0001:00072430       _CG_SpeakerEditor_Broadcast_KeyUp 30073430 f   cg_sound.obj
 0001:000724d0       _CG_SpeakerEditor_WaitEditFinish 300734d0 f   cg_sound.obj
 0001:00072530       _CG_SpeakerEditor_RandomEditFinish 30073530 f   cg_sound.obj
 0001:00072590       _CG_SpeakerEditor_VolumeEditFinish 30073590 f   cg_sound.obj
 0001:00072610       _CG_SpeakerEditor_RangeEditFinish 30073610 f   cg_sound.obj
 0001:00072670       _CG_SpeakerEditor_Ok_KeyDown 30073670 f   cg_sound.obj
 0001:000726a0       _CG_SpeakerEditor_Ok_KeyUp 300736a0 f   cg_sound.obj
 0001:00072700       _CG_SpeakerEditor_Cancel_KeyDown 30073700 f   cg_sound.obj
 0001:00072730       _CG_SpeakerEditor_Cancel_KeyUp 30073730 f   cg_sound.obj
 0001:000727b0       _CG_SpeakerEditor_Delete_KeyDown 300737b0 f   cg_sound.obj
 0001:000727e0       _CG_SpeakerEditor_Delete_KeyUp 300737e0 f   cg_sound.obj
 0001:00072860       _CG_ActivateEditSoundMode  30073860 f   cg_sound.obj
 0001:000728e0       _CG_AddBufferedSoundScript 300738e0 f   cg_sound.obj
 0001:00072930       _CG_AddLineToScene         30073930 f   cg_sound.obj
 0001:00072a00       _CG_AddScriptSpeakers      30073a00 f   cg_sound.obj
 0001:00072b30       _CG_DeActivateEditSoundMode 30073b30 f   cg_sound.obj
 0001:00072b90       _CG_GetStrFromStrArray     30073b90 f   cg_sound.obj
 0001:00072bc0       _CG_ModifyEditSpeaker      30073bc0 f   cg_sound.obj
 0001:000731d0       _CG_SaveSpeakersToScript   300741d0 f   cg_sound.obj
 0001:000734a0       _CG_SetActiveOnScriptSpeaker 300744a0 f   cg_sound.obj
 0001:000734c0       _CG_SetViewanglesForSpeakerEditor 300744c0 f   cg_sound.obj
 0001:00073540       _CG_SoundInit              30074540 f   cg_sound.obj
 0001:00073b90       _CG_SoundPickOldestRandomSound 30074b90 f   cg_sound.obj
 0001:00073c60       _CG_SoundPlayIndexedScript 30074c60 f   cg_sound.obj
 0001:00073c90       _CG_SoundPlaySoundScript   30074c90 f   cg_sound.obj
 0001:00073d20       _CG_SoundScriptPrecache    30074d20 f   cg_sound.obj
 0001:00073dc0       _CG_SpeakerEditorDraw      30074dc0 f   cg_sound.obj
 0001:00074380       _CG_SpeakerEditorMouseMove_Handling 30075380 f   cg_sound.obj
 0001:000744a0       _CG_SpeakerEditor_KeyHandling 300754a0 f   cg_sound.obj
 0001:00074780       _CG_ToggleActiveOnScriptSpeaker 30075780 f   cg_sound.obj
 0001:000747b0       _CG_UndoEditSpeaker        300757b0 f   cg_sound.obj
 0001:000748c0       _CG_UnsetActiveOnScriptSpeaker 300758c0 f   cg_sound.obj
 0001:000748e0       _CG_UpdateBufferedSoundScripts 300758e0 f   cg_sound.obj
 0001:00074a20       _SP_path_corner_2          30075a20 f   cg_spawn.obj
 0001:00074ad0       _SP_info_train_spline_main 30075ad0 f   cg_spawn.obj
 0001:00074c10       _SP_misc_gamemodel         30075c10 f   cg_spawn.obj
 0001:00074f40       _SP_trigger_objective_info 30075f40 f   cg_spawn.obj
 0001:00074fb0       _CG_AddSpawnVarToken       30075fb0 f   cg_spawn.obj
 0001:00075020       _CG_ParseEntitiesFromString 30076020 f   cg_spawn.obj
 0001:00075080       _CG_ParseEntityFromSpawnVars 30076080 f   cg_spawn.obj
 0001:000750f0       _CG_ParseSpawnVars         300760f0 f   cg_spawn.obj
 0001:00075240       _CG_SpawnFloat             30076240 f   cg_spawn.obj
 0001:00075270       _CG_SpawnInt               30076270 f   cg_spawn.obj
 0001:000752a0       _CG_SpawnString            300762a0 f   cg_spawn.obj
 0001:00075330       _CG_SpawnVector            30076330 f   cg_spawn.obj
 0001:00075370       _CG_SpawnVector2D          30076370 f   cg_spawn.obj
 0001:000753b0       _SP_worldspawn             300763b0 f   cg_spawn.obj
 0001:000757e0       _vtos                      300767e0 f   cg_spawn.obj
 0001:00075830       _CG_LoadRankIcons          30076830 f   cg_statsranksmedals.obj
 0001:00075860       _dllEntry                  30076860 f   cg_syscalls.obj
 0001:00075870       _testPrintFloat            30076870 f   cg_syscalls.obj
 0001:00075890       _testPrintInt              30076890 f   cg_syscalls.obj
 0001:000758b0       _trap_AddCommand           300768b0 f   cg_syscalls.obj
 0001:000758d0       _trap_Argc                 300768d0 f   cg_syscalls.obj
 0001:000758e0       _trap_Args                 300768e0 f   cg_syscalls.obj
 0001:00075900       _trap_Argv                 30076900 f   cg_syscalls.obj
 0001:00075920       _trap_CIN_DrawCinematic    30076920 f   cg_syscalls.obj
 0001:00075940       _trap_CIN_PlayCinematic    30076940 f   cg_syscalls.obj
 0001:00075970       _trap_CIN_RunCinematic     30076970 f   cg_syscalls.obj
 0001:00075990       _trap_CIN_SetExtents       30076990 f   cg_syscalls.obj
 0001:000759b0       _trap_CIN_StopCinematic    300769b0 f   cg_syscalls.obj
 0001:000759d0       _trap_CM_BoxTrace          300769d0 f   cg_syscalls.obj
 0001:00075a00       _trap_CM_CapsuleTrace      30076a00 f   cg_syscalls.obj
 0001:00075a30       _trap_CM_InlineModel       30076a30 f   cg_syscalls.obj
 0001:00075a50       _trap_CM_LoadMap           30076a50 f   cg_syscalls.obj
 0001:00075a70       _trap_CM_MarkFragments     30076a70 f   cg_syscalls.obj
 0001:00075aa0       _trap_CM_NumInlineModels   30076aa0 f   cg_syscalls.obj
 0001:00075ab0       _trap_CM_PointContents     30076ab0 f   cg_syscalls.obj
 0001:00075ad0       _trap_CM_TempBoxModel      30076ad0 f   cg_syscalls.obj
 0001:00075af0       _trap_CM_TempCapsuleModel  30076af0 f   cg_syscalls.obj
 0001:00075b10       _trap_CM_TransformedBoxTrace 30076b10 f   cg_syscalls.obj
 0001:00075b40       _trap_CM_TransformedCapsuleTrace 30076b40 f   cg_syscalls.obj
 0001:00075b70       _trap_CM_TransformedPointContents 30076b70 f   cg_syscalls.obj
 0001:00075b90       _trap_Cvar_LatchedVariableStringBuffer 30076b90 f   cg_syscalls.obj
 0001:00075bb0       _trap_Cvar_Register        30076bb0 f   cg_syscalls.obj
 0001:00075bd0       _trap_Cvar_Set             30076bd0 f   cg_syscalls.obj
 0001:00075bf0       _trap_Cvar_Update          30076bf0 f   cg_syscalls.obj
 0001:00075c10       _trap_Cvar_VariableStringBuffer 30076c10 f   cg_syscalls.obj
 0001:00075c30       _trap_Error                30076c30 f   cg_syscalls.obj
 0001:00075c50       _trap_FS_Delete            30076c50 f   cg_syscalls.obj
 0001:00075c70       _trap_FS_FCloseFile        30076c70 f   cg_syscalls.obj
 0001:00075c90       _trap_FS_FOpenFile         30076c90 f   cg_syscalls.obj
 0001:00075cb0       _trap_FS_GetFileList       30076cb0 f   cg_syscalls.obj
 0001:00075cd0       _trap_FS_Read              30076cd0 f   cg_syscalls.obj
 0001:00075cf0       _trap_FS_Write             30076cf0 f   cg_syscalls.obj
 0001:00075d10       _trap_GetCurrentCmdNumber  30076d10 f   cg_syscalls.obj
 0001:00075d20       _trap_GetCurrentSnapshotNumber 30076d20 f   cg_syscalls.obj
 0001:00075d40       _trap_GetEntityToken       30076d40 f   cg_syscalls.obj
 0001:00075d60       _trap_GetGameState         30076d60 f   cg_syscalls.obj
 0001:00075d80       _trap_GetGlconfig          30076d80 f   cg_syscalls.obj
 0001:00075da0       _trap_GetHunkData          30076da0 f   cg_syscalls.obj
 0001:00075dc0       _trap_GetServerCommand     30076dc0 f   cg_syscalls.obj
 0001:00075de0       _trap_GetSnapshot          30076de0 f   cg_syscalls.obj
 0001:00075e00       _trap_GetUserCmd           30076e00 f   cg_syscalls.obj
 0001:00075e20       _trap_Key_GetBindingBuf    30076e20 f   cg_syscalls.obj
 0001:00075e40       _trap_Key_GetCatcher       30076e40 f   cg_syscalls.obj
 0001:00075e50       _trap_Key_GetKey           30076e50 f   cg_syscalls.obj
 0001:00075e70       _trap_Key_GetOverstrikeMode 30076e70 f   cg_syscalls.obj
 0001:00075e80       _trap_Key_IsDown           30076e80 f   cg_syscalls.obj
 0001:00075ea0       _trap_Key_KeynumToStringBuf 30076ea0 f   cg_syscalls.obj
 0001:00075ec0       _trap_Key_KeysForBinding   30076ec0 f   cg_syscalls.obj
 0001:00075ee0       _trap_Key_SetBinding       30076ee0 f   cg_syscalls.obj
 0001:00075f00       _trap_Key_SetCatcher       30076f00 f   cg_syscalls.obj
 0001:00075f20       _trap_Key_SetOverstrikeMode 30076f20 f   cg_syscalls.obj
 0001:00075f40       _trap_MemoryRemaining      30076f40 f   cg_syscalls.obj
 0001:00075f50       _trap_MessageStatus        30076f50 f   cg_syscalls.obj
 0001:00075f60       _trap_Milliseconds         30076f60 f   cg_syscalls.obj
 0001:00075f70       _trap_PC_AddGlobalDefine   30076f70 f   cg_syscalls.obj
 0001:00075f90       _trap_PC_FreeSource        30076f90 f   cg_syscalls.obj
 0001:00075fb0       _trap_PC_LoadSource        30076fb0 f   cg_syscalls.obj
 0001:00075fd0       _trap_PC_ReadToken         30076fd0 f   cg_syscalls.obj
 0001:00075ff0       _trap_PC_SourceFileAndLine 30076ff0 f   cg_syscalls.obj
 0001:00076010       _trap_PC_UnReadToken       30077010 f   cg_syscalls.obj
 0001:00076030       _trap_Print                30077030 f   cg_syscalls.obj
 0001:00076050       _trap_R_Add2dPolys         30077050 f   cg_syscalls.obj
 0001:00076070       _trap_R_AddCoronaToScene   30077070 f   cg_syscalls.obj
 0001:000760a0       _trap_R_AddLightToScene    300770a0 f   cg_syscalls.obj
 0001:000760d0       _trap_R_AddPolyBufferToScene 300770d0 f   cg_syscalls.obj
 0001:000760f0       _trap_R_AddPolyToScene     300770f0 f   cg_syscalls.obj
 0001:00076110       _trap_R_AddPolysToScene    30077110 f   cg_syscalls.obj
 0001:00076130       _trap_R_AddRefEntityToScene 30077130 f   cg_syscalls.obj
 0001:00076150       _trap_R_ClearDecals        30077150 f   cg_syscalls.obj
 0001:00076160       _trap_R_ClearScene         30077160 f   cg_syscalls.obj
 0001:00076170       _trap_R_DrawRotatedPic     30077170 f   cg_syscalls.obj
 0001:000761b0       _trap_R_DrawStretchPic     300771b0 f   cg_syscalls.obj
 0001:000761e0       _trap_R_DrawStretchPicGradient 300771e0 f   cg_syscalls.obj
 0001:00076220       _trap_R_Finish             30077220 f   cg_syscalls.obj
 0001:00076230       _trap_R_GetShaderFromModel 30077230 f   cg_syscalls.obj
 0001:00076250       _trap_R_GetSkinModel       30077250 f   cg_syscalls.obj
 0001:00076270       _trap_R_GetTextureId       30077270 f   cg_syscalls.obj
 0001:00076290       _trap_R_LerpTag            30077290 f   cg_syscalls.obj
 0001:000762b0       _trap_R_LoadDynamicShader  300772b0 f   cg_syscalls.obj
 0001:000762d0       _trap_R_LoadWorldMap       300772d0 f   cg_syscalls.obj
 0001:000762f0       _trap_R_ModelBounds        300772f0 f   cg_syscalls.obj
 0001:00076310       _trap_R_ProjectDecal       30077310 f   cg_syscalls.obj
 0001:00076340       _trap_R_RegisterFont       30077340 f   cg_syscalls.obj
 0001:00076390       _trap_R_RegisterModel      30077390 f   cg_syscalls.obj
 0001:000763b0       _trap_R_RegisterShader     300773b0 f   cg_syscalls.obj
 0001:000763d0       _trap_R_RegisterShaderNoMip 300773d0 f   cg_syscalls.obj
 0001:000763f0       _trap_R_RegisterSkin       300773f0 f   cg_syscalls.obj
 0001:00076410       _trap_R_RemapShader        30077410 f   cg_syscalls.obj
 0001:00076430       _trap_R_RenderScene        30077430 f   cg_syscalls.obj
 0001:00076450       _trap_R_RenderToTexture    30077450 f   cg_syscalls.obj
 0001:00076480       _trap_R_RestoreViewParms   30077480 f   cg_syscalls.obj
 0001:00076490       _trap_R_SaveViewParms      30077490 f   cg_syscalls.obj
 0001:000764a0       _trap_R_SetColor           300774a0 f   cg_syscalls.obj
 0001:000764c0       _trap_R_SetFog             300774c0 f   cg_syscalls.obj
 0001:000764f0       _trap_R_SetGlobalFog       300774f0 f   cg_syscalls.obj
 0001:00076520       _trap_R_inPVS              30077520 f   cg_syscalls.obj
 0001:00076540       _trap_RealTime             30077540 f   cg_syscalls.obj
 0001:00076560       _trap_RemoveCommand        30077560 f   cg_syscalls.obj
 0001:00076580       _trap_S_AddLoopingSound    30077580 f   cg_syscalls.obj
 0001:000765b0       _trap_S_AddRealLoopingSound 300775b0 f   cg_syscalls.obj
 0001:000765e0       _trap_S_ClearLoopingSounds 300775e0 f   cg_syscalls.obj
 0001:000765f0       _trap_S_ClearSounds        300775f0 f   cg_syscalls.obj
 0001:00076610       _trap_S_FadeAllSound       30077610 f   cg_syscalls.obj
 0001:00076630       _trap_S_FadeBackgroundTrack 30077630 f   cg_syscalls.obj
 0001:00076650       _trap_S_GetCurrentSoundTime 30077650 f   cg_syscalls.obj
 0001:00076660       _trap_S_GetSoundLength     30077660 f   cg_syscalls.obj
 0001:00076680       _trap_S_GetVoiceAmplitude  30077680 f   cg_syscalls.obj
 0001:000766a0       _trap_S_RegisterSound      300776a0 f   cg_syscalls.obj
 0001:000766c0       _trap_S_Respatialize       300776c0 f   cg_syscalls.obj
 0001:000766e0       _trap_S_StartBackgroundTrack 300776e0 f   cg_syscalls.obj
 0001:00076700       _trap_S_StartLocalSound    30077700 f   cg_syscalls.obj
 0001:00076720       _trap_S_StartSound         30077720 f   cg_syscalls.obj
 0001:00076740       _trap_S_StartSoundEx       30077740 f   cg_syscalls.obj
 0001:00076770       _trap_S_StartSoundExVControl 30077770 f   cg_syscalls.obj
 0001:000767a0       _trap_S_StartSoundVControl 300777a0 f   cg_syscalls.obj
 0001:000767c0       _trap_S_StartStreamingSound 300777c0 f   cg_syscalls.obj
 0001:000767e0       _trap_S_StopBackgroundTrack 300777e0 f   cg_syscalls.obj
 0001:000767f0       _trap_S_StopStreamingSound 300777f0 f   cg_syscalls.obj
 0001:00076810       _trap_S_UpdateEntityPosition 30077810 f   cg_syscalls.obj
 0001:00076830       _trap_SendClientCommand    30077830 f   cg_syscalls.obj
 0001:00076850       _trap_SendConsoleCommand   30077850 f   cg_syscalls.obj
 0001:00076870       _trap_SendMessage          30077870 f   cg_syscalls.obj
 0001:00076890       _trap_SetClientLerpOrigin  30077890 f   cg_syscalls.obj
 0001:000768b0       _trap_SetUserCmdValue      300778b0 f   cg_syscalls.obj
 0001:000768d0       _trap_SnapVector           300778d0 f   cg_syscalls.obj
 0001:000768f0       _trap_TranslateString      300778f0 f   cg_syscalls.obj
 0001:00076910       _trap_UI_Popup             30077910 f   cg_syscalls.obj
 0001:00076930       _trap_UpdateScreen         30077930 f   cg_syscalls.obj
 0001:00076940       _trap_getCameraInfo        30077940 f   cg_syscalls.obj
 0001:00076960       _trap_loadCamera           30077960 f   cg_syscalls.obj
 0001:00076980       _trap_startCamera          30077980 f   cg_syscalls.obj
 0001:000769a0       _trap_stopCamera           300779a0 f   cg_syscalls.obj
 0001:000769c0       _CG_AddSmokeJunc           300779c0 f   cg_trails.obj
 0001:00076b10       _CG_AddSparkJunc           30077b10 f   cg_trails.obj
 0001:00076c60       _CG_AddTrailJunc           30077c60 f   cg_trails.obj
 0001:00076e00       _CG_AddTrailToScene        30077e00 f   cg_trails.obj
 0001:00077dc0       _CG_AddTrails              30078dc0 f   cg_trails.obj
 0001:00077fc0       _CG_ClearTrails            30078fc0 f   cg_trails.obj
 0001:00078060       _CG_FreeTrailJunc          30079060 f   cg_trails.obj
 0001:00078110       _CG_KillTrail              30079110 f   cg_trails.obj
 0001:00078160       _CG_SpawnTrailJunc         30079160 f   cg_trails.obj
 0001:00078240       _CG_GenerateGUIDFromKey    30079240 f   cg_uid.obj
 0001:00078290       _CG_IsValidGUID            30079290 f   cg_uid.obj
 0001:00078320       _CG_PBCompatibleMD5        30079320 f   cg_uid.obj
 0001:000783b0       _CG_UpdateGUID             300793b0 f   cg_uid.obj
 0001:00078660       _CG_cURLOptWriteFunction   30079660 f   cg_uid.obj
 0001:000787e0       _CG_AdjustZoomVal          300797e0 f   cg_view.obj
 0001:00078bf0       _CG_CalcViewValues         30079bf0 f   cg_view.obj
 0001:00079670       _CG_Concussive             3007a670 f   cg_view.obj
 0001:000797a0       _CG_CullPoint              3007a7a0 f   cg_view.obj
 0001:00079810       _CG_CullPointAndRadius     3007a810 f   cg_view.obj
 0001:00079b70       _CG_DrawActiveFrame        3007ab70 f   cg_view.obj
 0001:0007a100       _CG_DrawSkyBoxPortal       3007b100 f   cg_view.obj
 0001:0007a370       _CG_KickAngles             3007b370 f   cg_view.obj
 0001:0007a680       _CG_Letterbox              3007b680 f   cg_view.obj
 0001:0007a750       _CG_MustParse              3007b750 f   cg_view.obj
 0001:0007ae90       _CG_OffsetThirdPersonView  3007be90 f   cg_view.obj
 0001:0007b2e0       _CG_ParseSkyBox            3007c2e0 f   cg_view.obj
 0001:0007b480       _CG_ParseTagConnect        3007c480 f   cg_view.obj
 0001:0007b530       _CG_ParseTagConnects       3007c530 f   cg_view.obj
 0001:0007b550       _CG_SetupFrustum           3007c550 f   cg_view.obj
 0001:0007b8f0       _CG_TestGun_f              3007c8f0 f   cg_view.obj
 0001:0007b910       _CG_TestModelNextFrame_f   3007c910 f   cg_view.obj
 0001:0007b930       _CG_TestModelNextSkin_f    3007c930 f   cg_view.obj
 0001:0007b950       _CG_TestModelPrevFrame_f   3007c950 f   cg_view.obj
 0001:0007b980       _CG_TestModelPrevSkin_f    3007c980 f   cg_view.obj
 0001:0007b9b0       _CG_TestModel_f            3007c9b0 f   cg_view.obj
 0001:0007bb40       _CG_Zoom                   3007cb40 f   cg_view.obj
 0001:0007bc60       _CG_ZoomIn_f               3007cc60 f   cg_view.obj
 0001:0007bcb0       _CG_ZoomOut_f              3007ccb0 f   cg_view.obj
 0001:0007be30       _CG_AddBulletParticles     3007ce30 f   cg_weapons.obj
 0001:0007c040       _CG_AddDebris              3007d040 f   cg_weapons.obj
 0001:0007c3b0       _CG_AddDirtBulletParticles 3007d3b0 f   cg_weapons.obj
 0001:0007c580       _CG_AddPlayerWeapon        3007d580 f   cg_weapons.obj
 0001:0007dd00       _CG_AddSparks              3007ed00 f   cg_weapons.obj
 0001:0007dfc0       _CG_AddViewWeapon          3007efc0 f   cg_weapons.obj
 0001:0007e8a0       _CG_AltWeapon_f            3007f8a0 f   cg_weapons.obj
 0001:0007eb50       _CG_Bullet                 3007fb50 f   cg_weapons.obj
 0001:0007fad0       _CG_CalcMuzzlePoint        30080ad0 f   cg_weapons.obj
 0001:00080650       _CG_ClearWeapLerpFrame     30081650 f   cg_weapons.obj
 0001:000806d0       _CG_DrawHitBoxOnHit        300816d0 f   cg_weapons.obj
 0001:00080aa0       _CG_DrawTracer             30081aa0 f   cg_weapons.obj
 0001:00080e10       _CG_FinishWeaponChange     30081e10 f   cg_weapons.obj
 0001:00081080       _CG_FireWeapon             30082080 f   cg_weapons.obj
 0001:000814e0       _CG_GetBestWeapon          300824e0 f   cg_weapons.obj
 0001:00081590       _CG_GetPartFramesFromWeap  30082590 f   cg_weapons.obj
 0001:00081640       _CG_GetWindVector          30082640 f   cg_weapons.obj
 0001:00081830       _CG_LastWeaponUsed_f       30082830 f   cg_weapons.obj
 0001:000818c0       _CG_MG42EFX                300828c0 f   cg_weapons.obj
 0001:00081ab0       _CG_MachineGunEjectBrass   30082ab0 f   cg_weapons.obj
 0001:00082090       _CG_MachineGunEjectBrassNew 30083090 f   cg_weapons.obj
 0001:000823e0       _CG_MissileHitPlayer       300833e0 f   cg_weapons.obj
 0001:00082430       _CG_MissileHitWall         30083430 f   cg_weapons.obj
 0001:00083c80       _CG_MissileHitWallSmall    30084c80 f   cg_weapons.obj
 0001:00083dc0       _CG_MortarEFX              30084dc0 f   cg_weapons.obj
 0001:00083f00       _CG_NextWeap               30084f00 f   cg_weapons.obj
 0001:00084220       _CG_NextWeaponInBank_f     30085220 f   cg_weapons.obj
 0001:00084290       _CG_NextWeapon_f           30085290 f   cg_weapons.obj
 0001:00084330       _CG_OutOfAmmoChange        30085330 f   cg_weapons.obj
 0001:00084ac0       _CG_PlaySwitchSound        30085ac0 f   cg_weapons.obj
 0001:00084b60       _CG_PrevWeap               30085b60 f   cg_weapons.obj
 0001:00084e30       _CG_PrevWeaponInBank_f     30085e30 f   cg_weapons.obj
 0001:00084ea0       _CG_PrevWeapon_f           30085ea0 f   cg_weapons.obj
 0001:00084f40       _CG_PyroSmokeTrail         30085f40 f   cg_weapons.obj
 0001:000865c0       _CG_RailTrail              300875c0 f   cg_weapons.obj
 0001:00086760       _CG_RailTrail2             30087760 f   cg_weapons.obj
 0001:00086870       _CG_RegisterItemVisuals    30087870 f   cg_weapons.obj
 0001:00086950       _CG_RegisterWeapon         30087950 f   cg_weapons.obj
 0001:00086d90       _CG_RocketTrail            30087d90 f   cg_weapons.obj
 0001:00087360       _CG_SetSniperZoom          30088360 f   cg_weapons.obj
 0001:00087460       _CG_SpawnTracer            30088460 f   cg_weapons.obj
 0001:00087750       _CG_Tracer                 30088750 f   cg_weapons.obj
 0001:00087890       _CG_WaterRipple            30088890 f   cg_weapons.obj
 0001:00087a00       _CG_WeaponBank_f           30088a00 f   cg_weapons.obj
 0001:00087ba0       _CG_WeaponFireRecoil       30088ba0 f   cg_weapons.obj
 0001:00087d50       _CG_WeaponIndex            30088d50 f   cg_weapons.obj
 0001:00087ea0       _CG_WeaponSelectable       30088ea0 f   cg_weapons.obj
 0001:00087ef0       _CG_Weapon_f               30088ef0 f   cg_weapons.obj
 0001:00087f40       _SnapVectorTowards         30088f40 f   cg_weapons.obj
 0001:00087fe0       _getEquivWeapon            30088fe0 f   cg_weapons.obj
 0001:00088290       _CG_addString              30089290 f   cg_window.obj
 0001:00088380       _CG_createMOTDWindow       30089380 f   cg_window.obj
 0001:00088440       _CG_createStatsWindow      30089440 f   cg_window.obj
 0001:000884e0       _CG_createTopShotsWindow   300894e0 f   cg_window.obj
 0001:000885a0       _CG_cursorUpdate           300895a0 f   cg_window.obj
 0001:00088b50       _CG_demoAviFPSDraw         30089b50 f   cg_window.obj
 0001:00088bc0       _CG_demoTimescaleDraw      30089bc0 f   cg_window.obj
 0001:00088cb0       _CG_initStrings            30089cb0 f   cg_window.obj
 0001:00088ce0       _CG_printWindow            30089ce0 f   cg_window.obj
 0001:00088db0       _CG_removeStrings          30089db0 f   cg_window.obj
 0001:00088e20       _CG_windowAlloc            30089e20 f   cg_window.obj
 0001:00088e80       _CG_windowCleanup          30089e80 f   cg_window.obj
 0001:00088ed0       _CG_windowDraw             30089ed0 f   cg_window.obj
 0001:000893d0       _CG_windowFree             3008a3d0 f   cg_window.obj
 0001:00089490       _CG_windowInit             3008a490 f   cg_window.obj
 0001:00089530       _CG_windowNormalizeOnText  3008a530 f   cg_window.obj
 0001:000896d0       _CG_windowReset            3008a6d0 f   cg_window.obj
 0001:00089770       _AddPointToBounds          3008a770 f   q_math.obj
 0001:000897f0       _AngleDelta                3008a7f0 f   q_math.obj
 0001:00089810       _AngleMod                  3008a810 f   q_math.obj
 0001:00089850       _AngleNormalize180         3008a850 f   q_math.obj
 0001:00089890       _AngleNormalize2Pi         3008a890 f   q_math.obj
 0001:000898d0       _AngleNormalize360         3008a8d0 f   q_math.obj
 0001:00089910       _AngleNormalizeInt         3008a910 f   q_math.obj
 0001:00089940       _AngleSubtract             3008a940 f   q_math.obj
 0001:000899a0       _AngleVectors              3008a9a0 f   q_math.obj
 0001:00089b70       _AnglesSubtract            3008ab70 f   q_math.obj
 0001:00089be0       _AnglesToAxis              3008abe0 f   q_math.obj
 0001:00089c40       _AxisClear                 3008ac40 f   q_math.obj
 0001:00089c90       _AxisCopy                  3008ac90 f   q_math.obj
 0001:00089cd0       _AxisToAngles              3008acd0 f   q_math.obj
 0001:00089e10       _BoxOnPlaneSide            3008ae10 f   q_math.obj
 0001:00089e60       _BoxOnPlaneSide_fast       3008ae60 f i q_math.obj
 0001:0008a0a0       _ByteToDir                 3008b0a0 f   q_math.obj
 0001:0008a100       _ClampChar                 3008b100 f   q_math.obj
 0001:0008a120       _ClampShort                3008b120 f   q_math.obj
 0001:0008a150       _ClearBounds               3008b150 f   q_math.obj
 0001:0008a190       _ColorBytes3               3008b190 f   q_math.obj
 0001:0008a1d0       _ColorBytes4               3008b1d0 f   q_math.obj
 0001:0008a220       _CrossProduct              3008b220 f   q_math.obj
 0001:0008a280       _DirToByte                 3008b280 f   q_math.obj
 0001:0008a300       _Distance                  3008b300 f   q_math.obj
 0001:0008a350       _DistanceFromLineSquared   3008b350 f   q_math.obj
 0001:0008a4b0       _DistanceFromVectorSquared 3008b4b0 f   q_math.obj
 0001:0008a510       _DistanceSquared           3008b510 f   q_math.obj
 0001:0008a560       _GetPerpendicularViewVector 3008b560 f   q_math.obj
 0001:0008a600       _LerpAngle                 3008b600 f   q_math.obj
 0001:0008a660       _LerpPosition              3008b660 f   q_math.obj
 0001:0008a6c0       _MakeNormalVectors         3008b6c0 f   q_math.obj
 0001:0008a770       _MatrixMultiply            3008b770 f   q_math.obj
 0001:0008a900       _NormalizeColor            3008b900 f   q_math.obj
 0001:0008a970       _PerpendicularVector       3008b970 f   q_math.obj
 0001:0008aa30       _PlaneFromPoints           3008ba30 f   q_math.obj
 0001:0008ab10       _PointInBounds             3008bb10 f   q_math.obj
 0001:0008ab70       _ProjectPointOnPlane       3008bb70 f   q_math.obj
 0001:0008ac20       _ProjectPointOntoVector    3008bc20 f   q_math.obj
 0001:0008ad20       _ProjectPointOntoVectorBounded 3008bd20 f   q_math.obj
 0001:0008aed0       _Q_crandom                 3008bed0 f   q_math.obj
 0001:0008af00       _Q_fabs                    3008bf00 f   q_math.obj
 0001:0008af10       _Q_log2                    3008bf10 f   q_math.obj
 0001:0008af30       _Q_rand                    3008bf30 f   q_math.obj
 0001:0008af50       _Q_random                  3008bf50 f   q_math.obj
 0001:0008af80       _Q_rsqrt                   3008bf80 f   q_math.obj
 0001:0008afd0       _RadiusFromBounds          3008bfd0 f   q_math.obj
 0001:0008b060       _RotateAroundDirection     3008c060 f   q_math.obj
 0001:0008b0d0       _RotatePointAroundVector   3008c0d0 f   q_math.obj
 0001:0008b310       _RotatePointAroundVertex   3008c310 f   q_math.obj
 0001:0008b490       _SetPlaneSignbits          3008c490 f   q_math.obj
 0001:0008b4c0       _Vector4Scale              3008c4c0 f   q_math.obj
 0001:0008b510       _VectorCompare             3008c510 f   q_math.obj
 0001:0008b550       _VectorDistance            3008c550 f   q_math.obj
 0001:0008b5a0       _VectorDistanceSquared     3008c5a0 f   q_math.obj
 0001:0008b5f0       _VectorInverse             3008c5f0 f   q_math.obj
 0001:0008b630       _VectorLength              3008c630 f   q_math.obj
 0001:0008b680       _VectorLengthSquared       3008c680 f   q_math.obj
 0001:0008b6c0       _VectorNormalize           3008c6c0 f   q_math.obj
 0001:0008b770       _VectorNormalize2          3008c770 f   q_math.obj
 0001:0008b820       _VectorNormalizeFast       3008c820 f   q_math.obj
 0001:0008b8b0       _VectorRotate              3008c8b0 f   q_math.obj
 0001:0008b940       __DotProduct               3008c940 f   q_math.obj
 0001:0008b960       __VectorAdd                3008c960 f   q_math.obj
 0001:0008b9a0       __VectorCopy               3008c9a0 f   q_math.obj
 0001:0008b9c0       __VectorMA                 3008c9c0 f   q_math.obj
 0001:0008ba10       __VectorScale              3008ca10 f   q_math.obj
 0001:0008ba50       __VectorSubtract           3008ca50 f   q_math.obj
 0001:0008ba90       _myftol                    3008ca90 f   q_math.obj
 0001:0008bab0       _vectoangles               3008cab0 f   q_math.obj
 0001:0008bc30       _vectoyaw                  3008cc30 f   q_math.obj
 0001:0008bce0       _BigFloat                  3008cce0 f   q_shared.obj
 0001:0008bd00       _BigLong                   3008cd00 f   q_shared.obj
 0001:0008bd10       _BigLong64                 3008cd10 f   q_shared.obj
 0001:0008bd30       _BigShort                  3008cd30 f   q_shared.obj
 0001:0008bd40       _COM_BackupParseSession    3008cd40 f   q_shared.obj
 0001:0008bd60       _COM_BeginParseSession     3008cd60 f   q_shared.obj
 0001:0008bd90       _COM_BitCheck              3008cd90 f   q_shared.obj
 0001:0008bdd0       _COM_BitClear              3008cdd0 f   q_shared.obj
 0001:0008be10       _COM_BitSet                3008ce10 f   q_shared.obj
 0001:0008be50       _COM_Compress              3008ce50 f   q_shared.obj
 0001:0008bee0       _COM_DefaultExtension      3008cee0 f   q_shared.obj
 0001:0008bf60       _COM_FixPath               3008cf60 f   q_shared.obj
 0001:0008bf90       _COM_GetCurrentParseLine   3008cf90 f   q_shared.obj
 0001:0008bfa0       _COM_MatchToken            3008cfa0 f   q_shared.obj
 0001:0008c000       _COM_Parse                 3008d000 f   q_shared.obj
 0001:0008c020       _COM_ParseError            3008d020 f   q_shared.obj
 0001:0008c060       _COM_ParseExt              3008d060 f   q_shared.obj
 0001:0008c240       _COM_ParseWarning          3008d240 f   q_shared.obj
 0001:0008c280       _COM_RestoreParseSession   3008d280 f   q_shared.obj
 0001:0008c2a0       _COM_SetCurrentParseLine   3008d2a0 f   q_shared.obj
 0001:0008c2b0       _COM_SkipPath              3008d2b0 f   q_shared.obj
 0001:0008c2e0       _COM_StripExtension        3008d2e0 f   q_shared.obj
 0001:0008c310       _COM_StripExtension2       3008d310 f   q_shared.obj
 0001:0008c350       _COM_StripExtensionSafe    3008d350 f   q_shared.obj
 0001:0008c3a0       _COM_StripFilename         3008d3a0 f   q_shared.obj
 0001:0008c3e0       _Com_Clamp                 3008d3e0 f   q_shared.obj
 0001:0008c410       _Com_ParseInfos            3008d410 f   q_shared.obj
 0001:0008c5a0       _Com_sprintf               3008d5a0 f   q_shared.obj
 0001:0008c5d0       _FloatNoSwap               3008d5d0 f   q_shared.obj
 0001:0008c5e0       _FloatSwap                 3008d5e0 f   q_shared.obj
 0001:0008c610       _Info_NextPair             3008d610 f   q_shared.obj
 0001:0008c680       _Info_RemoveKey            3008d680 f   q_shared.obj
 0001:0008c780       _Info_RemoveKey_Big        3008d780 f   q_shared.obj
 0001:0008c880       _Info_SetValueForKey       3008d880 f   q_shared.obj
 0001:0008ca20       _Info_SetValueForKey_Big   3008da20 f   q_shared.obj
 0001:0008cbc0       _Info_Validate             3008dbc0 f   q_shared.obj
 0001:0008cc10       _Info_ValueForKey          3008dc10 f   q_shared.obj
 0001:0008cd20       _LittleFloat               3008dd20 f   q_shared.obj
 0001:0008cd40       _LittleLong                3008dd40 f   q_shared.obj
 0001:0008cd50       _LittleLong64              3008dd50 f   q_shared.obj
 0001:0008cd70       _LittleShort               3008dd70 f   q_shared.obj
 0001:0008cd80       _Long64NoSwap              3008dd80 f   q_shared.obj
 0001:0008cd90       _Long64Swap                3008dd90 f   q_shared.obj
 0001:0008cde0       _LongNoSwap                3008dde0 f   q_shared.obj
 0001:0008cdf0       _LongSwap                  3008ddf0 f   q_shared.obj
 0001:0008ce30       _Parse1DMatrix             3008de30 f   q_shared.obj
 0001:0008ce80       _Parse2DMatrix             3008de80 f   q_shared.obj
 0001:0008cee0       _Parse3DMatrix             3008dee0 f   q_shared.obj
 0001:0008cf40       _Q_CleanDirName            3008df40 f   q_shared.obj
 0001:0008cf90       _Q_CleanStr                3008df90 f   q_shared.obj
 0001:0008d000       _Q_PrintStrlen             3008e000 f   q_shared.obj
 0001:0008d040       _Q_StrReplace              3008e040 f   q_shared.obj
 0001:0008d1a0       _Q_isBadDirChar            3008e1a0 f   q_shared.obj
 0001:0008d200       _Q_isalpha                 3008e200 f   q_shared.obj
 0001:0008d230       _Q_isalphanumeric          3008e230 f   q_shared.obj
 0001:0008d260       _Q_isforfilename           3008e260 f   q_shared.obj
 0001:0008d290       _Q_islower                 3008e290 f   q_shared.obj
 0001:0008d2b0       _Q_isnumeric               3008e2b0 f   q_shared.obj
 0001:0008d2d0       _Q_isprint                 3008e2d0 f   q_shared.obj
 0001:0008d2f0       _Q_isupper                 3008e2f0 f   q_shared.obj
 0001:0008d310       _Q_strcat                  3008e310 f   q_shared.obj
 0001:0008d360       _Q_strchr                  3008e360 f   q_shared.obj
 0001:0008d390       _Q_stricmp                 3008e390 f   q_shared.obj
 0001:0008d3c0       _Q_stricmpn                3008e3c0 f   q_shared.obj
 0001:0008d430       _Q_strlwr                  3008e430 f   q_shared.obj
 0001:0008d460       _Q_strncmp                 3008e460 f   q_shared.obj
 0001:0008d4b0       _Q_strncpyz                3008e4b0 f   q_shared.obj
 0001:0008d500       _Q_strrchr                 3008e500 f   q_shared.obj
 0001:0008d530       _Q_strupr                  3008e530 f   q_shared.obj
 0001:0008d560       _ShortNoSwap               3008e560 f   q_shared.obj
 0001:0008d570       _ShortSwap                 3008e570 f   q_shared.obj
 0001:0008d5a0       _SkipBracedSection         3008e5a0 f   q_shared.obj
 0001:0008d5e0       _SkipBracedSection_Depth   3008e5e0 f   q_shared.obj
 0001:0008d620       _SkipRestOfLine            3008e620 f   q_shared.obj
 0001:0008d6a0       _Swap_Init                 3008e6a0 f   q_shared.obj
 0001:0008d840       _escape_string             3008e840 f   q_shared.obj
 0001:0008d850       _need_escape               3008e850 f   q_shared.obj
 0001:0008d880       _tv                        3008e880 f   q_shared.obj
 0001:0008d8c0       _unescape_string           3008e8c0 f   q_shared.obj
 0001:0008d990       _va                        3008e990 f   q_shared.obj
 0001:0008da30       _Script_SetColor           3008ea30 f   ui_shared.obj
 0001:0008daf0       _Script_SetAsset           3008eaf0 f   ui_shared.obj
 0001:0008db10       _Script_SetBackground      3008eb10 f   ui_shared.obj
 0001:0008db50       _Script_SetTeamColor       3008eb50 f   ui_shared.obj
 0001:0008dba0       _Script_SetItemColor       3008eba0 f   ui_shared.obj
 0001:0008dcc0       _Script_SetMenuItemColor   3008ecc0 f   ui_shared.obj
 0001:0008de00       _Script_Show               3008ee00 f   ui_shared.obj
 0001:0008de40       _Script_Hide               3008ee40 f   ui_shared.obj
 0001:0008de80       _Script_FadeIn             3008ee80 f   ui_shared.obj
 0001:0008dec0       _Script_FadeOut            3008eec0 f   ui_shared.obj
 0001:0008df00       _Script_Open               3008ef00 f   ui_shared.obj
 0001:0008df30       _Script_FadeInMenu         3008ef30 f   ui_shared.obj
 0001:0008df70       _Script_FadeOutMenu        3008ef70 f   ui_shared.obj
 0001:0008dfb0       _Script_ConditionalOpen    3008efb0 f   ui_shared.obj
 0001:0008e0d0       _Script_ConditionalScript  3008f0d0 f   ui_shared.obj
 0001:0008e970       _Script_Close              3008f970 f   ui_shared.obj
 0001:0008e9a0       _Script_CloseAll           3008f9a0 f   ui_shared.obj
 0001:0008e9b0       _Script_CloseAllOtherMenus 3008f9b0 f   ui_shared.obj
 0001:0008ea00       _Script_Clipboard          3008fa00 f   ui_shared.obj
 0001:0008ea10       _Script_NotebookShowpage   3008fa10 f   ui_shared.obj
 0001:0008ea20       _Script_Transition         3008fa20 f   ui_shared.obj
 0001:0008eae0       _Script_Orbit              3008fae0 f   ui_shared.obj
 0001:0008ebd0       _Script_SetFocus           3008fbd0 f   ui_shared.obj
 0001:0008ec60       _Script_ClearFocus         3008fc60 f   ui_shared.obj
 0001:0008ec80       _Script_SetPlayerModel     3008fc80 f   ui_shared.obj
 0001:0008ecc0       _Script_SetPlayerHead      3008fcc0 f   ui_shared.obj
 0001:0008ed00       _Script_ClearCvar          3008fd00 f   ui_shared.obj
 0001:0008ed30       _Script_SetCvar            3008fd30 f   ui_shared.obj
 0001:0008ed90       _Script_CopyCvar           3008fd90 f   ui_shared.obj
 0001:0008ee30       _Script_Exec               3008fe30 f   ui_shared.obj
 0001:0008ee80       _Script_ExecNOW            3008fe80 f   ui_shared.obj
 0001:0008eed0       _Script_Play               3008fed0 f   ui_shared.obj
 0001:0008ef20       _Script_playLooped         3008ff20 f   ui_shared.obj
 0001:0008ef70       _Script_playStream         3008ff70 f   ui_shared.obj
 0001:0008efb0       _Script_AddListItem        3008ffb0 f   ui_shared.obj
 0001:0008f070       _Script_CheckAutoUpdate    30090070 f   ui_shared.obj
 0001:0008f080       _Script_GetAutoUpdate      30090080 f   ui_shared.obj
 0001:0008f090       _Script_SetMenuFocus       30090090 f   ui_shared.obj
 0001:0008f0e0       _Script_ExecWolfConfig     300900e0 f   ui_shared.obj
 0001:0008f340       _Script_SetEditFocus       30090340 f   ui_shared.obj
 0001:0008f410       _Script_Abort              30090410 f   ui_shared.obj
 0001:0008f420       _ItemParse_name            30090420 f   ui_shared.obj
 0001:0008f440       _ItemParse_focusSound      30090440 f   ui_shared.obj
 0001:0008f490       _ItemParse_text            30090490 f   ui_shared.obj
 0001:0008f4b0       _ItemParse_textfile        300904b0 f   ui_shared.obj
 0001:0008f530       _ItemParse_group           30090530 f   ui_shared.obj
 0001:0008f550       _ItemParse_asset_model     30090550 f   ui_shared.obj
 0001:0008f5b0       _ItemParse_asset_shader    300905b0 f   ui_shared.obj
 0001:0008f600       _ItemParse_model_origin    30090600 f   ui_shared.obj
 0001:0008f660       _ItemParse_model_fovx      30090660 f   ui_shared.obj
 0001:0008f690       _ItemParse_model_fovy      30090690 f   ui_shared.obj
 0001:0008f6c0       _ItemParse_model_rotation  300906c0 f   ui_shared.obj
 0001:0008f6f0       _ItemParse_model_angle     300906f0 f   ui_shared.obj
 0001:0008f720       _ItemParse_model_animplay  30090720 f   ui_shared.obj
 0001:0008f7c0       _ItemParse_rect            300907c0 f   ui_shared.obj
 0001:0008f7e0       _ItemParse_origin          300907e0 f   ui_shared.obj
 0001:0008f850       _ItemParse_style           30090850 f   ui_shared.obj
 0001:0008f870       _ItemParse_decoration      30090870 f   ui_shared.obj
 0001:0008f890       _ItemParse_textasint       30090890 f   ui_shared.obj
 0001:0008f8b0       _ItemParse_textasfloat     300908b0 f   ui_shared.obj
 0001:0008f8d0       _ItemParse_notselectable   300908d0 f   ui_shared.obj
 0001:0008f910       _ItemParse_wrapped         30090910 f   ui_shared.obj
 0001:0008f930       _ItemParse_autowrapped     30090930 f   ui_shared.obj
 0001:0008f950       _ItemParse_horizontalscroll 30090950 f   ui_shared.obj
 0001:0008f970       _ItemParse_type            30090970 f   ui_shared.obj
 0001:0008f9b0       _ItemParse_elementwidth    300909b0 f   ui_shared.obj
 0001:0008f9e0       _ItemParse_elementheight   300909e0 f   ui_shared.obj
 0001:0008fa10       _ItemParse_feeder          30090a10 f   ui_shared.obj
 0001:0008fa30       _ItemParse_elementtype     30090a30 f   ui_shared.obj
 0001:0008fa70       _ItemParse_columns         30090a70 f   ui_shared.obj
 0001:0008fb50       _ItemParse_border          30090b50 f   ui_shared.obj
 0001:0008fb70       _ItemParse_bordersize      30090b70 f   ui_shared.obj
 0001:0008fb90       _ItemParse_visible         30090b90 f   ui_shared.obj
 0001:0008fbd0       _ItemParse_ownerdraw       30090bd0 f   ui_shared.obj
 0001:0008fc00       _ItemParse_align           30090c00 f   ui_shared.obj
 0001:0008fc20       _ItemParse_textalign       30090c20 f   ui_shared.obj
 0001:0008fc40       _ItemParse_textalignx      30090c40 f   ui_shared.obj
 0001:0008fc60       _ItemParse_textaligny      30090c60 f   ui_shared.obj
 0001:0008fc80       _ItemParse_textscale       30090c80 f   ui_shared.obj
 0001:0008fca0       _ItemParse_textstyle       30090ca0 f   ui_shared.obj
 0001:0008fcc0       _ItemParse_textfont        30090cc0 f   ui_shared.obj
 0001:0008fce0       _ItemParse_backcolor       30090ce0 f   ui_shared.obj
 0001:0008fd40       _ItemParse_forecolor       30090d40 f   ui_shared.obj
 0001:0008fda0       _ItemParse_bordercolor     30090da0 f   ui_shared.obj
 0001:0008fe00       _ItemParse_outlinecolor    30090e00 f   ui_shared.obj
 0001:0008fe20       _ItemParse_background      30090e20 f   ui_shared.obj
 0001:0008fe70       _ItemParse_cinematic       30090e70 f   ui_shared.obj
 0001:0008fe90       _ItemParse_doubleClick     30090e90 f   ui_shared.obj
 0001:0008fed0       _ItemParse_onEsc           30090ed0 f   ui_shared.obj
 0001:0008fef0       _ItemParse_onEnter         30090ef0 f   ui_shared.obj
 0001:0008ff10       _ItemParse_contextMenu     30090f10 f   ui_shared.obj
 0001:0008ff50       _ItemParse_onFocus         30090f50 f   ui_shared.obj
 0001:0008ff70       _ItemParse_leaveFocus      30090f70 f   ui_shared.obj
 0001:0008ff90       _ItemParse_mouseEnter      30090f90 f   ui_shared.obj
 0001:0008ffb0       _ItemParse_mouseExit       30090fb0 f   ui_shared.obj
 0001:0008ffd0       _ItemParse_mouseEnterText  30090fd0 f   ui_shared.obj
 0001:0008fff0       _ItemParse_mouseExitText   30090ff0 f   ui_shared.obj
 0001:00090010       _ItemParse_action          30091010 f   ui_shared.obj
 0001:00090030       _ItemParse_accept          30091030 f   ui_shared.obj
 0001:00090050       _ItemParse_special         30091050 f   ui_shared.obj
 0001:00090070       _ItemParse_cvarTest        30091070 f   ui_shared.obj
 0001:00090090       _ItemParse_cvar            30091090 f   ui_shared.obj
 0001:000900f0       _ItemParse_maxChars        300910f0 f   ui_shared.obj
 0001:00090150       _ItemParse_maxPaintChars   30091150 f   ui_shared.obj
 0001:000901b0       _ItemParse_cvarInt         300911b0 f   ui_shared.obj
 0001:00090250       _ItemParse_cvarFloat       30091250 f   ui_shared.obj
 0001:000902d0       _ItemParse_cvarStrList     300912d0 f   ui_shared.obj
 0001:000903f0       _ItemParse_cvarFloatList   300913f0 f   ui_shared.obj
 0001:00090510       _ItemParse_cvarListUndefined 30091510 f   ui_shared.obj
 0001:000905a0       _ItemParse_addColorRangeRel 300915a0 f   ui_shared.obj
 0001:000905c0       _ItemParse_addColorRange   300915c0 f   ui_shared.obj
 0001:000905e0       _ItemParse_ownerdrawFlag   300915e0 f   ui_shared.obj
 0001:00090620       _ItemParse_enableCvar      30091620 f   ui_shared.obj
 0001:00090660       _ItemParse_disableCvar     30091660 f   ui_shared.obj
 0001:000906a0       _ItemParse_noToggle        300916a0 f   ui_shared.obj
 0001:000906c0       _ItemParse_showCvar        300916c0 f   ui_shared.obj
 0001:00090700       _ItemParse_hideCvar        30091700 f   ui_shared.obj
 0001:00090740       _ItemParse_execKey         30091740 f   ui_shared.obj
 0001:00090790       _ItemParse_settingDisabled 30091790 f   ui_shared.obj
 0001:000907c0       _ItemParse_settingEnabled  300917c0 f   ui_shared.obj
 0001:000907f0       _ItemParse_tooltip         300917f0 f   ui_shared.obj
 0001:00090830       _ItemParse_tooltipalignx   30091830 f   ui_shared.obj
 0001:00090870       _ItemParse_tooltipaligny   30091870 f   ui_shared.obj
 0001:000908b0       _ItemParse_voteFlag        300918b0 f   ui_shared.obj
 0001:000908d0       _MenuParse_name            300918d0 f   ui_shared.obj
 0001:00090910       _MenuParse_fullscreen      30091910 f   ui_shared.obj
 0001:00090930       _MenuParse_rect            30091930 f   ui_shared.obj
 0001:00090950       _MenuParse_style           30091950 f   ui_shared.obj
 0001:00090970       _MenuParse_visible         30091970 f   ui_shared.obj
 0001:000909b0       _MenuParse_onOpen          300919b0 f   ui_shared.obj
 0001:000909d0       _MenuParse_onClose         300919d0 f   ui_shared.obj
 0001:000909f0       _MenuParse_onESC           300919f0 f   ui_shared.obj
 0001:00090a10       _MenuParse_onEnter         30091a10 f   ui_shared.obj
 0001:00090a30       _MenuParse_onTimeout       30091a30 f   ui_shared.obj
 0001:00090a70       _MenuParse_border          30091a70 f   ui_shared.obj
 0001:00090a90       _MenuParse_borderSize      30091a90 f   ui_shared.obj
 0001:00090ab0       _MenuParse_backcolor       30091ab0 f   ui_shared.obj
 0001:00090b10       _MenuParse_forecolor       30091b10 f   ui_shared.obj
 0001:00090b70       _MenuParse_bordercolor     30091b70 f   ui_shared.obj
 0001:00090bd0       _MenuParse_focuscolor      30091bd0 f   ui_shared.obj
 0001:00090c40       _MenuParse_disablecolor    30091c40 f   ui_shared.obj
 0001:00090ca0       _MenuParse_outlinecolor    30091ca0 f   ui_shared.obj
 0001:00090cc0       _MenuParse_background      30091cc0 f   ui_shared.obj
 0001:00090d10       _MenuParse_cinematic       30091d10 f   ui_shared.obj
 0001:00090d30       _MenuParse_ownerdrawFlag   30091d30 f   ui_shared.obj
 0001:00090d70       _MenuParse_ownerdraw       30091d70 f   ui_shared.obj
 0001:00090d90       _MenuParse_popup           30091d90 f   ui_shared.obj
 0001:00090db0       _MenuParse_outOfBounds     30091db0 f   ui_shared.obj
 0001:00090dd0       _MenuParse_soundLoop       30091dd0 f   ui_shared.obj
 0001:00090df0       _MenuParse_fadeClamp       30091df0 f   ui_shared.obj
 0001:00090e10       _MenuParse_fadeAmount      30091e10 f   ui_shared.obj
 0001:00090e30       _MenuParse_fadeCycle       30091e30 f   ui_shared.obj
 0001:00090e50       _MenuParse_itemDef         30091e50 f   ui_shared.obj
 0001:00090f30       _MenuParse_execKey         30091f30 f   ui_shared.obj
 0001:00090f80       _MenuParse_execKeyInt      30091f80 f   ui_shared.obj
 0001:00090fd0       _MenuParse_drawAlwaysOnTop 30091fd0 f   ui_shared.obj
 0001:00090ff0       _MenuParse_itemHotkeyMode  30091ff0 f   ui_shared.obj
 0001:00091010       _MenuParse_modal           30092010 f   ui_shared.obj
 0001:00091030       _AdjustFrom640             30092030 f   ui_shared.obj
 0001:00091090       _BG_CursorInRect           30092090 f   ui_shared.obj
 0001:000910e0       _BG_FitTextToWidth_Ext     300920e0 f   ui_shared.obj
 0001:000911f0       _BG_PanelButton_EditClick  300921f0 f   ui_shared.obj
 0001:00091450       _BG_PanelButton_RenderEdit 30092450 f   ui_shared.obj
 0001:00091690       _BG_PanelButtonsGetHighlightButton 30092690 f   ui_shared.obj
 0001:000916d0       _BG_PanelButtonsKeyEvent   300926d0 f   ui_shared.obj
 0001:000917d0       _BG_PanelButtonsRender     300927d0 f   ui_shared.obj
 0001:00091800       _BG_PanelButtonsRender_Img 30092800 f   ui_shared.obj
 0001:000918e0       _BG_PanelButtonsRender_Text 300928e0 f   ui_shared.obj
 0001:00091900       _BG_PanelButtonsRender_TextExt 30092900 f   ui_shared.obj
 0001:00091a90       _BG_PanelButtonsSetup      30092a90 f   ui_shared.obj
 0001:00091ac0       _BG_PanelButtons_GetFocusButton 30092ac0 f   ui_shared.obj
 0001:00091ad0       _BG_PanelButtons_SetFocusButton 30092ad0 f   ui_shared.obj
 0001:00091ae0       _BG_RectContainsPoint      30092ae0 f   ui_shared.obj
 0001:00091b20       _BindingFromName           30092b20 f   ui_shared.obj
 0001:00091c00       _BindingIDFromName         30092c00 f   ui_shared.obj
 0001:00091c40       _Color_Parse               30092c40 f   ui_shared.obj
 0001:00091c90       _Controls_GetConfig        30092c90 f   ui_shared.obj
 0001:00091cc0       _Controls_SetConfig        30092cc0 f   ui_shared.obj
 0001:00091d40       _Controls_SetDefaults      30092d40 f   ui_shared.obj
 0001:00091d80       _Display_CacheAll          30092d80 f   ui_shared.obj
 0001:00091db0       _Display_CaptureItem       30092db0 f   ui_shared.obj
 0001:00091e60       _Display_CursorType        30092e60 f   ui_shared.obj
 0001:00091f20       _Display_GetContext        30092f20 f   ui_shared.obj
 0001:00091f30       _Display_HandleKey         30092f30 f   ui_shared.obj
 0001:00091f60       _Display_KeyBindPending    30092f60 f   ui_shared.obj
 0001:00091f70       _Display_MouseMove         30092f70 f   ui_shared.obj
 0001:00092070       _Display_VisibleMenuCount  30093070 f   ui_shared.obj
 0001:000921d0       _Fade                      300931d0 f   ui_shared.obj
 0001:00092250       _FileExists                30093250 f   ui_shared.obj
 0001:00092290       _Float_Parse               30093290 f   ui_shared.obj
 0001:000922d0       _GradientBar_Paint         300932d0 f   ui_shared.obj
 0001:00092320       _Init_Display              30093320 f   ui_shared.obj
 0001:00092330       _Int_Parse                 30093330 f   ui_shared.obj
 0001:00092370       _IsVisible                 30093370 f   ui_shared.obj
 0001:00092390       _Item_Action               30093390 f   ui_shared.obj
 0001:000923b0       _Item_Bind_HandleKey       300933b0 f   ui_shared.obj
 0001:00092720       _Item_Bind_Paint           30093720 f   ui_shared.obj
 0001:000929b0       _Item_CheckBox_HandleKey   300939b0 f   ui_shared.obj
 0001:00092b10       _Item_CheckBox_Paint       30093b10 f   ui_shared.obj
 0001:00092e10       _Item_EnableShowViaCvar    30093e10 f   ui_shared.obj
 0001:00092f80       _Item_HandleKey            30093f80 f   ui_shared.obj
 0001:00093100       _Item_Image_Paint          30094100 f   ui_shared.obj
 0001:00093170       _Item_Init                 30094170 f   ui_shared.obj
 0001:000931b0       _Item_InitControls         300941b0 f   ui_shared.obj
 0001:00093200       _Item_ListBox_HandleKey    30094200 f   ui_shared.obj
 0001:00093710       _Item_ListBox_MaxScroll    30094710 f   ui_shared.obj
 0001:00093790       _Item_ListBox_MouseEnter   30094790 f   ui_shared.obj
 0001:00093930       _Item_ListBox_OverLB       30094930 f   ui_shared.obj
 0001:00093d20       _Item_ListBox_Paint        30094d20 f   ui_shared.obj
 0001:00094760       _Item_ListBox_ThumbDrawPosition 30095760 f   ui_shared.obj
 0001:00094850       _Item_ListBox_ThumbPosition 30095850 f   ui_shared.obj
 0001:00094930       _Item_Model_Paint          30095930 f   ui_shared.obj
 0001:00094d50       _Item_MouseEnter           30095d50 f   ui_shared.obj
 0001:00094ee0       _Item_MouseLeave           30095ee0 f   ui_shared.obj
 0001:00094f30       _Item_Multi_CountSettings  30095f30 f   ui_shared.obj
 0001:00094f50       _Item_Multi_FindCvarByValue 30095f50 f   ui_shared.obj
 0001:00095060       _Item_Multi_HandleKey      30096060 f   ui_shared.obj
 0001:00095210       _Item_Multi_Paint          30096210 f   ui_shared.obj
 0001:000953e0       _Item_Multi_Setting        300963e0 f   ui_shared.obj
 0001:00095510       _Item_OwnerDraw_HandleKey  30096510 f   ui_shared.obj
 0001:00095550       _Item_OwnerDraw_Paint      30096550 f   ui_shared.obj
 0001:00095930       _Item_Paint                30096930 f   ui_shared.obj
 0001:00095df0       _Item_Parse                30096df0 f   ui_shared.obj
 0001:00095f10       _Item_RunScript            30096f10 f   ui_shared.obj
 0001:00096090       _Item_SetFocus             30097090 f   ui_shared.obj
 0001:00096250       _Item_SetMouseOver         30097250 f   ui_shared.obj
 0001:00096280       _Item_SetScreenCoords      30097280 f   ui_shared.obj
 0001:00096340       _Item_SetTextExtents       30097340 f   ui_shared.obj
 0001:00096580       _Item_SettingShow          30097580 f   ui_shared.obj
 0001:00096670       _Item_SetupKeywordHash     30097670 f   ui_shared.obj
 0001:000966c0       _Item_Slider_HandleKey     300976c0 f   ui_shared.obj
 0001:00096980       _Item_Slider_OverSlider    30097980 f   ui_shared.obj
 0001:000969e0       _Item_Slider_Paint         300979e0 f   ui_shared.obj
 0001:00096c00       _Item_Slider_ThumbPosition 30097c00 f   ui_shared.obj
 0001:00096cb0       _Item_StartCapture         30097cb0 f   ui_shared.obj
 0001:00096e90       _Item_StopCapture          30097e90 f   ui_shared.obj
 0001:00096ea0       _Item_TextColor            30097ea0 f   ui_shared.obj
 0001:000970c0       _Item_TextField_HandleKey  300980c0 f   ui_shared.obj
 0001:000975d0       _Item_TextField_Paint      300985d0 f   ui_shared.obj
 0001:00097970       _Item_Text_AutoWrapped_Paint 30098970 f   ui_shared.obj
 0001:00097c40       _Item_Text_Paint           30098c40 f   ui_shared.obj
 0001:00097e50       _Item_Text_Wrapped_Paint   30098e50 f   ui_shared.obj
 0001:00098040       _Item_UpdatePosition       30099040 f   ui_shared.obj
 0001:00098080       _Item_ValidateTooltipData  30099080 f   ui_shared.obj
 0001:000980d0       _Item_ValidateTypeData     300990d0 f   ui_shared.obj
 0001:000981c0       _Item_YesNo_HandleKey      300991c0 f   ui_shared.obj
 0001:000982d0       _Item_YesNo_Paint          300992d0 f   ui_shared.obj
 0001:00098510       _KeywordHash_Add           30099510 f   ui_shared.obj
 0001:00098540       _KeywordHash_Find          30099540 f   ui_shared.obj
 0001:00098590       _KeywordHash_Key           30099590 f   ui_shared.obj
 0001:000985e0       _LerpColor                 300995e0 f   ui_shared.obj
 0001:00098730       _Menu_ClearFocus           30099730 f   ui_shared.obj
 0001:00098830       _Menu_Count                30099830 f   ui_shared.obj
 0001:00098840       _Menu_FadeItemByName       30099840 f   ui_shared.obj
 0001:000988a0       _Menu_FadeMenuByName       300998a0 f   ui_shared.obj
 0001:00098900       _Menu_FindItemByName       30099900 f   ui_shared.obj
 0001:00098960       _Menu_Get                  30099960 f   ui_shared.obj
 0001:00098990       _Menu_GetFocused           30099990 f   ui_shared.obj
 0001:000989d0       _Menu_GetFocusedItem       300999d0 f   ui_shared.obj
 0001:00098a10       _Menu_GetMatchingItemByNumber 30099a10 f   ui_shared.obj
 0001:00098af0       _Menu_HandleKey            30099af0 f   ui_shared.obj
 0001:00099140       _Menu_HandleMouseMove      3009a140 f   ui_shared.obj
 0001:000993a0       _Menu_HitTest              3009a3a0 f   ui_shared.obj
 0001:00099400       _Menu_Init                 3009a400 f   ui_shared.obj
 0001:00099480       _Menu_ItemsMatchingGroup   3009a480 f   ui_shared.obj
 0001:00099540       _Menu_New                  3009a540 f   ui_shared.obj
 0001:000995a0       _Menu_OrbitItemByName      3009a5a0 f   ui_shared.obj
 0001:00099720       _Menu_Paint                3009a720 f   ui_shared.obj
 0001:00099940       _Menu_PaintAll             3009a940 f   ui_shared.obj
 0001:00099ac0       _Menu_Parse                3009aac0 f   ui_shared.obj
 0001:00099c00       _Menu_PostParse            3009ac00 f   ui_shared.obj
 0001:00099c40       _Menu_Reset                3009ac40 f   ui_shared.obj
 0001:00099ca0       _Menu_ScrollFeeder         3009aca0 f   ui_shared.obj
 0001:00099d10       _Menu_SetFeederSelection   3009ad10 f   ui_shared.obj
 0001:00099d30       _Menu_SetFeederSelectionExt 3009ad30 f   ui_shared.obj
 0001:00099e00       _Menu_SetNextCursorItem    3009ae00 f   ui_shared.obj
 0001:00099f00       _Menu_SetPrevCursorItem    3009af00 f   ui_shared.obj
 0001:0009a000       _Menu_SetupKeywordHash     3009b000 f   ui_shared.obj
 0001:0009a050       _Menu_ShowItemByName       3009b050 f   ui_shared.obj
 0001:0009a0e0       _Menu_TransitionItemByName 3009b0e0 f   ui_shared.obj
 0001:0009a190       _Menu_UpdatePosition       3009b190 f   ui_shared.obj
 0001:0009a200       _Menus_Activate            3009b200 f   ui_shared.obj
 0001:0009a2b0       _Menus_ActivateByName      3009b2b0 f   ui_shared.obj
 0001:0009a370       _Menus_AnyFullScreenVisible 3009b370 f   ui_shared.obj
 0001:0009a3a0       _Menus_CaptureFuncActive   3009b3a0 f   ui_shared.obj
 0001:0009a3b0       _Menus_CloseAll            3009b3b0 f   ui_shared.obj
 0001:0009a3f0       _Menus_CloseByName         3009b3f0 f   ui_shared.obj
 0001:0009a4a0       _Menus_FindByName          3009b4a0 f   ui_shared.obj
 0001:0009a4f0       _Menus_HandleOOBClick      3009b4f0 f   ui_shared.obj
 0001:0009a5f0       _Menus_OpenByName          3009b5f0 f   ui_shared.obj
 0001:0009a610       _Menus_ShowByName          3009b610 f   ui_shared.obj
 0001:0009a630       _PC_Char_Parse             3009b630 f   ui_shared.obj
 0001:0009a690       _PC_Rect_Parse             3009b690 f   ui_shared.obj
 0001:0009a6f0       _PC_Script_Parse           3009b6f0 f   ui_shared.obj
 0001:0009a820       _PC_String_Parse_Trans     3009b820 f   ui_shared.obj
 0001:0009a890       _ParseColorRange           3009b890 f   ui_shared.obj
 0001:0009a980       _Rect_ContainsPoint        3009b980 f   ui_shared.obj
 0001:0009a9d0       _Rect_Parse                3009b9d0 f   ui_shared.obj
 0001:0009aa30       _Rect_ToWindowCoords       3009ba30 f   ui_shared.obj
 0001:0009aa50       _Script_CheckProfile       3009ba50 f   ui_shared.obj
 0001:0009ab10       _Script_WriteProfile       3009bb10 f   ui_shared.obj
 0001:0009af90       _String_Alloc              3009bf90 f   ui_shared.obj
 0001:0009b0b0       _String_Init               3009c0b0 f   ui_shared.obj
 0001:0009b100       _String_Parse              3009c100 f   ui_shared.obj
 0001:0009b140       _String_Report             3009c140 f   ui_shared.obj
 0001:0009b1d0       _ToWindowCoords            3009c1d0 f   ui_shared.obj
 0001:0009b200       _Tooltip_ComputePosition   3009c200 f   ui_shared.obj
 0001:0009b330       _Tooltip_Initialize        3009c330 f   ui_shared.obj
 0001:0009b400       _UI_Alloc                  3009c400 f   ui_shared.obj
 0001:0009b460       _UI_InitMemory             3009c460 f   ui_shared.obj
 0001:0009b480       _UI_OutOfMemory            3009c480 f   ui_shared.obj
 0001:0009b520       _Window_Init               3009c520 f   ui_shared.obj
 0001:0009b570       _Window_Paint              3009c570 f   ui_shared.obj
 0001:0009ba5d       _GetAdaptersInfo@8         3009ca5d f   iphlpapi:IPHLPAPI.DLL
 0001:0009ba70       _Curl_easy_addmulti        3009ca70 f   libcurl:easy.obj
 0001:0009ba90       _Curl_easy_initHandleData  3009ca90 f   libcurl:easy.obj
 0001:0009bac0       _curl_easy_cleanup         3009cac0 f   libcurl:easy.obj
 0001:0009bae0       _curl_easy_duphandle       3009cae0 f   libcurl:easy.obj
 0001:0009bce0       _curl_easy_getinfo         3009cce0 f   libcurl:easy.obj
 0001:0009bd00       _curl_easy_init            3009cd00 f   libcurl:easy.obj
 0001:0009bd40       _curl_easy_pause           3009cd40 f   libcurl:easy.obj
 0001:0009be60       _curl_easy_perform         3009ce60 f   libcurl:easy.obj
 0001:0009bf10       _curl_easy_recv            3009cf10 f   libcurl:easy.obj
 0001:0009bf60       _curl_easy_reset           3009cf60 f   libcurl:easy.obj
 0001:0009c010       _curl_easy_send            3009d010 f   libcurl:easy.obj
 0001:0009c080       _curl_easy_setopt          3009d080 f   libcurl:easy.obj
 0001:0009c0b0       _curl_global_cleanup       3009d0b0 f   libcurl:easy.obj
 0001:0009c0f0       _curl_global_init          3009d0f0 f   libcurl:easy.obj
 0001:0009c170       _curl_global_init_mem      3009d170 f   libcurl:easy.obj
 0001:0009c2e0       _Curl_slist_duplicate      3009d2e0 f   libcurl:slist.obj
 0001:0009c320       _curl_slist_append         3009d320 f   libcurl:slist.obj
 0001:0009c380       _curl_slist_free_all       3009d380 f   libcurl:slist.obj
 0001:0009c3e0       _Curl_cookie_add           3009d3e0 f   libcurl:cookie.obj
 0001:0009ce50       _Curl_cookie_cleanup       3009de50 f   libcurl:cookie.obj
 0001:0009cea0       _Curl_cookie_clearall      3009dea0 f   libcurl:cookie.obj
 0001:0009ced0       _Curl_cookie_clearsess     3009ded0 f   libcurl:cookie.obj
 0001:0009cf40       _Curl_cookie_freelist      3009df40 f   libcurl:cookie.obj
 0001:0009cf80       _Curl_cookie_getlist       3009df80 f   libcurl:cookie.obj
 0001:0009d130       _Curl_cookie_init          3009e130 f   libcurl:cookie.obj
 0001:0009d290       _Curl_cookie_list          3009e290 f   libcurl:cookie.obj
 0001:0009d300       _Curl_cookie_loadfiles     3009e300 f   libcurl:cookie.obj
 0001:0009d370       _Curl_flush_cookies        3009e370 f   libcurl:cookie.obj
 0001:0009d720       _Curl_hash_add             3009e720 f   libcurl:hash.obj
 0001:0009d7d0       _Curl_hash_alloc           3009e7d0 f   libcurl:hash.obj
 0001:0009d830       _Curl_hash_clean           3009e830 f   libcurl:hash.obj
 0001:0009d880       _Curl_hash_clean_with_criterium 3009e880 f   libcurl:hash.obj
 0001:0009d8f0       _Curl_hash_delete          3009e8f0 f   libcurl:hash.obj
 0001:0009d960       _Curl_hash_destroy         3009e960 f   libcurl:hash.obj
 0001:0009d980       _Curl_hash_init            3009e980 f   libcurl:hash.obj
 0001:0009da70       _Curl_hash_pick            3009ea70 f   libcurl:hash.obj
 0001:0009dad0       _Curl_hash_str             3009ead0 f   libcurl:hash.obj
 0001:0009db20       _Curl_str_key_compare      3009eb20 f   libcurl:hash.obj
 0001:0009dc40       _Curl_resolver_cancel      3009ec40 f   libcurl:asyn-thread.obj
 0001:0009dc50       _Curl_resolver_cleanup     3009ec50 f   libcurl:asyn-thread.obj
 0001:0009dc60       _Curl_resolver_duphandle   3009ec60 f   libcurl:asyn-thread.obj
 0001:0009dc70       _Curl_resolver_getaddrinfo 3009ec70 f   libcurl:asyn-thread.obj
 0001:0009dda0       _Curl_resolver_getsock     3009eda0 f   libcurl:asyn-thread.obj
 0001:0009ddb0       _Curl_resolver_global_cleanup 3009edb0 f   libcurl:asyn-thread.obj
 0001:0009ddc0       _Curl_resolver_global_init 3009edc0 f   libcurl:asyn-thread.obj
 0001:0009ddd0       _Curl_resolver_init        3009edd0 f   libcurl:asyn-thread.obj
 0001:0009dde0       _Curl_resolver_is_resolved 3009ede0 f   libcurl:asyn-thread.obj
 0001:0009ded0       _Curl_resolver_wait_resolv 3009eed0 f   libcurl:asyn-thread.obj
 0001:0009df70       _Curl_set_dns_servers      3009ef70 f   libcurl:asyn-thread.obj
 0001:0009e290       _Curl_cache_addr           3009f290 f   libcurl:hostip.obj
 0001:0009e350       _Curl_global_host_cache_dtor 3009f350 f   libcurl:hostip.obj
 0001:0009e380       _Curl_global_host_cache_init 3009f380 f   libcurl:hostip.obj
 0001:0009e3d0       _Curl_hostcache_clean      3009f3d0 f   libcurl:hostip.obj
 0001:0009e3f0       _Curl_hostcache_destroy    3009f3f0 f   libcurl:hostip.obj
 0001:0009e420       _Curl_hostcache_prune      3009f420 f   libcurl:hostip.obj
 0001:0009e490       _Curl_loadhostpairs        3009f490 f   libcurl:hostip.obj
 0001:0009e660       _Curl_mk_dnscache          3009f660 f   libcurl:hostip.obj
 0001:0009e680       _Curl_num_addresses        3009f680 f   libcurl:hostip.obj
 0001:0009e6a0       _Curl_printable_address    3009f6a0 f   libcurl:hostip.obj
 0001:0009e6d0       _Curl_resolv               3009f6d0 f   libcurl:hostip.obj
 0001:0009e860       _Curl_resolv_timeout       3009f860 f   libcurl:hostip.obj
 0001:0009e890       _Curl_resolv_unlock        3009f890 f   libcurl:hostip.obj
 0001:0009ecf0       _Curl_fillreadbuffer       3009fcf0 f   libcurl:transfer.obj
 0001:0009eea0       _Curl_follow               3009fea0 f   libcurl:transfer.obj
 0001:0009f110       _Curl_meets_timecondition  300a0110 f   libcurl:transfer.obj
 0001:0009f190       _Curl_perform              300a0190 f   libcurl:transfer.obj
 0001:0009f210       _Curl_posttransfer         300a0210 f   libcurl:transfer.obj
 0001:0009f220       _Curl_pretransfer          300a0220 f   libcurl:transfer.obj
 0001:0009f330       _Curl_readrewind           300a0330 f   libcurl:transfer.obj
 0001:0009f430       _Curl_readwrite            300a0430 f   libcurl:transfer.obj
 0001:0009f730       _Curl_reconnect_request    300a0730 f   libcurl:transfer.obj
 0001:0009f7d0       _Curl_retry_request        300a07d0 f   libcurl:transfer.obj
 0001:0009f8b0       _Curl_setup_transfer       300a08b0 f   libcurl:transfer.obj
 0001:0009f9b0       _Curl_single_getsock       300a09b0 f   libcurl:transfer.obj
 0001:0009fa50       _Curl_sleep_time           300a0a50 f   libcurl:transfer.obj
 0001:000a1130       _Curl_addHandleToPipeline  300a2130 f   libcurl:url.obj
 0001:000a1160       _Curl_ch_connc             300a2160 f   libcurl:url.obj
 0001:000a1230       _Curl_close                300a2230 f   libcurl:url.obj
 0001:000a1490       _Curl_connect              300a2490 f   libcurl:url.obj
 0001:000a1520       _Curl_connected_proxy      300a2520 f   libcurl:url.obj
 0001:000a15a0       _Curl_disconnect           300a25a0 f   libcurl:url.obj
 0001:000a1700       _Curl_do                   300a2700 f   libcurl:url.obj
 0001:000a1790       _Curl_do_more              300a2790 f   libcurl:url.obj
 0001:000a17e0       _Curl_doing_getsock        300a27e0 f   libcurl:url.obj
 0001:000a1810       _Curl_done                 300a2810 f   libcurl:url.obj
 0001:000a19b0       _Curl_dupset               300a29b0 f   libcurl:url.obj
 0001:000a1a20       _Curl_freeset              300a2a20 f   libcurl:url.obj
 0001:000a1a90       _Curl_getoff_all_pipelines 300a2a90 f   libcurl:url.obj
 0001:000a1b50       _Curl_init_userdefined     300a2b50 f   libcurl:url.obj
 0001:000a1d00       _Curl_isPipeliningEnabled  300a2d00 f   libcurl:url.obj
 0001:000a1d30       _Curl_mk_connc             300a2d30 f   libcurl:url.obj
 0001:000a1da0       _Curl_open                 300a2da0 f   libcurl:url.obj
 0001:000a1ec0       _Curl_protocol_connect     300a2ec0 f   libcurl:url.obj
 0001:000a1f80       _Curl_protocol_connecting  300a2f80 f   libcurl:url.obj
 0001:000a1fc0       _Curl_protocol_doing       300a2fc0 f   libcurl:url.obj
 0001:000a2000       _Curl_protocol_getsock     300a3000 f   libcurl:url.obj
 0001:000a2020       _Curl_removeHandleFromPipeline 300a3020 f   libcurl:url.obj
 0001:000a2060       _Curl_reset_reqproto       300a3060 f   libcurl:url.obj
 0001:000a20a0       _Curl_rm_connc             300a30a0 f   libcurl:url.obj
 0001:000a2110       _Curl_setopt               300a3110 f   libcurl:url.obj
 0001:000a4110       _Curl_setup_conn           300a5110 f   libcurl:url.obj
 0001:000a42a0       _Curl_verboseconnect       300a52a0 f   libcurl:url.obj
 0001:000a65f0       _Curl_getinfo              300a75f0 f   libcurl:getinfo.obj
 0001:000a6690       _Curl_initinfo             300a7690 f   libcurl:getinfo.obj
 0001:000a6cd0       _Curl_client_write         300a7cd0 f   libcurl:sendf.obj
 0001:000a6e30       _Curl_debug                300a7e30 f   libcurl:sendf.obj
 0001:000a6f10       _Curl_failf                300a7f10 f   libcurl:sendf.obj
 0001:000a6fb0       _Curl_infof                300a7fb0 f   libcurl:sendf.obj
 0001:000a7030       _Curl_read                 300a8030 f   libcurl:sendf.obj
 0001:000a7150       _Curl_read_plain           300a8150 f   libcurl:sendf.obj
 0001:000a7190       _Curl_recv_plain           300a8190 f   libcurl:sendf.obj
 0001:000a7220       _Curl_send_plain           300a8220 f   libcurl:sendf.obj
 0001:000a72b0       _Curl_sendf                300a82b0 f   libcurl:sendf.obj
 0001:000a7380       _Curl_write                300a8380 f   libcurl:sendf.obj
 0001:000a73e0       _Curl_write_plain          300a83e0 f   libcurl:sendf.obj
 0001:000a74f0       _Curl_closesocket          300a84f0 f   libcurl:connect.obj
 0001:000a7540       _Curl_connecthost          300a8540 f   libcurl:connect.obj
 0001:000a76e0       _Curl_getconnectinfo       300a86e0 f   libcurl:connect.obj
 0001:000a7740       _Curl_is_connected         300a8740 f   libcurl:connect.obj
 0001:000a7940       _Curl_persistconninfo      300a8940 f   libcurl:connect.obj
 0001:000a7a00       _Curl_sndbufset            300a8a00 f   libcurl:connect.obj
 0001:000a7a60       _Curl_socket               300a8a60 f   libcurl:connect.obj
 0001:000a7b20       _Curl_timeleft             300a8b20 f   libcurl:connect.obj
 0001:000a7be0       _Curl_updateconninfo       300a8be0 f   libcurl:connect.obj
 0001:000a8880       _Curl_rand                 300a9880 f   libcurl:curl_rand.obj
 0001:000a88a0       _Curl_srand                300a98a0 f   libcurl:curl_rand.obj
 0001:000a88c0       _Curl_strlcat              300a98c0 f   libcurl:strequal.obj
 0001:000a8930       _curl_strequal             300a9930 f   libcurl:strequal.obj
 0001:000a8950       _curl_strnequal            300a9950 f   libcurl:strequal.obj
 0001:000a8970       _Curl_gmtime               300a9970 f   libcurl:parsedate.obj
 0001:000a8ac0       _curl_getdate              300a9ac0 f   libcurl:parsedate.obj
 0001:000a9170       _curl_maprintf             300aa170 f   libcurl:mprintf.obj
 0001:000a9200       _curl_mfprintf             300aa200 f   libcurl:mprintf.obj
 0001:000a9220       _curl_mprintf              300aa220 f   libcurl:mprintf.obj
 0001:000a9250       _curl_msnprintf            300aa250 f   libcurl:mprintf.obj
 0001:000a9270       _curl_msprintf             300aa270 f   libcurl:mprintf.obj
 0001:000a92a0       _curl_mvaprintf            300aa2a0 f   libcurl:mprintf.obj
 0001:000a9330       _curl_mvfprintf            300aa330 f   libcurl:mprintf.obj
 0001:000a9350       _curl_mvprintf             300aa350 f   libcurl:mprintf.obj
 0001:000a9380       _curl_mvsnprintf           300aa380 f   libcurl:mprintf.obj
 0001:000a93e0       _curl_mvsprintf            300aa3e0 f   libcurl:mprintf.obj
 0001:000aa680       _sprintf                   300ab680 f i libcurl:mprintf.obj
 0001:000aa6e0       _Curl_strtok_r             300ab6e0 f   libcurl:strtok.obj
 0001:000aa760       _Curl_share_lock           300ab760 f   libcurl:share.obj
 0001:000aa7a0       _Curl_share_unlock         300ab7a0 f   libcurl:share.obj
 0001:000aa7e0       _curl_share_cleanup        300ab7e0 f   libcurl:share.obj
 0001:000aa870       _curl_share_init           300ab870 f   libcurl:share.obj
 0001:000aa890       _curl_share_setopt         300ab890 f   libcurl:share.obj
 0001:000aa9f0       _Curl_raw_equal            300ab9f0 f   libcurl:rawstr.obj
 0001:000aaa60       _Curl_raw_nequal           300aba60 f   libcurl:rawstr.obj
 0001:000aaaf0       _Curl_raw_toupper          300abaf0 f   libcurl:rawstr.obj
 0001:000aabe0       _Curl_strntoupper          300abbe0 f   libcurl:rawstr.obj
 0001:000aac20       _Curl_memrchr              300abc20 f   libcurl:curl_memrchr.obj
 0001:000aac40       _Curl_llist_alloc          300abc40 f   libcurl:llist.obj
 0001:000aac70       _Curl_llist_count          300abc70 f   libcurl:llist.obj
 0001:000aac80       _Curl_llist_destroy        300abc80 f   libcurl:llist.obj
 0001:000aacc0       _Curl_llist_insert_next    300abcc0 f   libcurl:llist.obj
 0001:000aad60       _Curl_llist_move           300abd60 f   libcurl:llist.obj
 0001:000aae20       _Curl_llist_remove         300abe20 f   libcurl:llist.obj
 0001:000aaed0       _Curl_tvlong               300abed0 f   libcurl:timeval.obj
 0001:000aaee0       _curlx_tvdiff              300abee0 f   libcurl:timeval.obj
 0001:000aaf10       _curlx_tvdiff_secs         300abf10 f   libcurl:timeval.obj
 0001:000aaf70       _curlx_tvnow               300abf70 f   libcurl:timeval.obj
 0001:000aafa0       _Curl_freeaddrinfo         300abfa0 f   libcurl:curl_addrinfo.obj
 0001:000aaff0       _Curl_getaddrinfo_ex       300abff0 f   libcurl:curl_addrinfo.obj
 0001:000ab170       _Curl_he2ai                300ac170 f   libcurl:curl_addrinfo.obj
 0001:000ab2b0       _Curl_ip2addr              300ac2b0 f   libcurl:curl_addrinfo.obj
 0001:000ab360       _Curl_str2addr             300ac360 f   libcurl:curl_addrinfo.obj
 0001:000ab3a0       _Curl_addrinfo_callback    300ac3a0 f   libcurl:hostasyn.obj
 0001:000ab440       _Curl_async_resolved       300ac440 f   libcurl:hostasyn.obj
 0001:000ab490       _Curl_getaddrinfo          300ac490 f   libcurl:hostasyn.obj
 0001:000ab4a0       _Curl_strerror             300ac4a0 f   libcurl:strerror.obj
 0001:000ab580       _curl_easy_strerror        300ac580 f   libcurl:strerror.obj
 0001:000ab930       _curl_multi_strerror       300ac930 f   libcurl:strerror.obj
 0001:000ab9b0       _curl_share_strerror       300ac9b0 f   libcurl:strerror.obj
 0001:000abd60       _Curl_expire               300acd60 f   libcurl:multi.obj
 0001:000abef0       _Curl_multi_canPipeline    300acef0 f   libcurl:multi.obj
 0001:000abf00       _Curl_multi_handlePipeBreak 300acf00 f   libcurl:multi.obj
 0001:000ac250       _curl_multi_add_handle     300ad250 f   libcurl:multi.obj
 0001:000ac470       _curl_multi_assign         300ad470 f   libcurl:multi.obj
 0001:000ac4b0       _curl_multi_cleanup        300ad4b0 f   libcurl:multi.obj
 0001:000ac610       _curl_multi_fdset          300ad610 f   libcurl:multi.obj
 0001:000ac770       _curl_multi_info_read      300ad770 f   libcurl:multi.obj
 0001:000ac7d0       _curl_multi_init           300ad7d0 f   libcurl:multi.obj
 0001:000ac880       _curl_multi_perform        300ad880 f   libcurl:multi.obj
 0001:000ac9b0       _curl_multi_remove_handle  300ad9b0 f   libcurl:multi.obj
 0001:000acbe0       _curl_multi_setopt         300adbe0 f   libcurl:multi.obj
 0001:000acc80       _curl_multi_socket         300adc80 f   libcurl:multi.obj
 0001:000accb0       _curl_multi_socket_action  300adcb0 f   libcurl:multi.obj
 0001:000acce0       _curl_multi_socket_all     300adce0 f   libcurl:multi.obj
 0001:000acd10       _curl_multi_timeout        300add10 f   libcurl:multi.obj
 0001:000acd40       _curl_multi_wait           300add40 f   libcurl:multi.obj
 0001:000ae680       _Curl_inet_pton            300af680 f   libcurl:inet_pton.obj
 0001:000ae770       _Curl_thread_create        300af770 f   libcurl:curl_threads.obj
 0001:000ae7a0       _Curl_thread_destroy       300af7a0 f   libcurl:curl_threads.obj
 0001:000ae7b0       _Curl_thread_join          300af7b0 f   libcurl:curl_threads.obj
 0001:000ae7e0       _Curl_ipv4_resolve_r       300af7e0 f   libcurl:hostip4.obj
 0001:000ae890       _Curl_ipvalid              300af890 f   libcurl:hostip4.obj
 0001:000ae8b0       _Curl_inet_ntop            300af8b0 f   libcurl:inet_ntop.obj
 0001:000ae980       _Curl_httpchunk_init       300af980 f   libcurl:http_chunks.obj
 0001:000ae9a0       _Curl_httpchunk_read       300af9a0 f   libcurl:http_chunks.obj
 0001:000aed90       _Curl_http                 300afd90 f   libcurl:http.obj
 0001:000b0380       _Curl_http_done            300b1380 f   libcurl:http.obj
 0001:000b04a0       _Curl_http_connect         300b14a0 f   libcurl:http.obj
 0001:000b0510       _Curl_add_buffer           300b1510 f   libcurl:http.obj
 0001:000b05e0       _Curl_add_buffer_init      300b15e0 f   libcurl:http.obj
 0001:000b05f0       _Curl_add_buffer_send      300b15f0 f   libcurl:http.obj
 0001:000b07a0       _Curl_add_bufferf          300b17a0 f   libcurl:http.obj
 0001:000b0810       _Curl_add_custom_headers   300b1810 f   libcurl:http.obj
 0001:000b0970       _Curl_add_timecondition    300b1970 f   libcurl:http.obj
 0001:000b0a60       _Curl_checkheaders         300b1a60 f   libcurl:http.obj
 0001:000b0ab0       _Curl_compareheader        300b1ab0 f   libcurl:http.obj
 0001:000b0b80       _Curl_http_auth_act        300b1b80 f   libcurl:http.obj
 0001:000b0d50       _Curl_http_input_auth      300b1d50 f   libcurl:http.obj
 0001:000b0ef0       _Curl_http_output_auth     300b1ef0 f   libcurl:http.obj
 0001:000b0ff0       _Curl_http_readwrite_headers 300b1ff0 f   libcurl:http.obj
 0001:000b2770       _Curl_wildcard_dtor        300b3770 f   libcurl:wildcard.obj
 0001:000b2800       _Curl_wildcard_init        300b3800 f   libcurl:wildcard.obj
 0001:000b2830       _Curl_speedcheck           300b3830 f   libcurl:speedcheck.obj
 0001:000b2920       _Curl_speedinit            300b3920 f   libcurl:speedcheck.obj
 0001:000b2940       _Curl_pgrsDone             300b3940 f   libcurl:progress.obj
 0001:000b29a0       _Curl_pgrsResetTimesSizes  300b39a0 f   libcurl:progress.obj
 0001:000b29e0       _Curl_pgrsSetDownloadCounter 300b39e0 f   libcurl:progress.obj
 0001:000b2a00       _Curl_pgrsSetDownloadSize  300b3a00 f   libcurl:progress.obj
 0001:000b2a50       _Curl_pgrsSetUploadCounter 300b3a50 f   libcurl:progress.obj
 0001:000b2a70       _Curl_pgrsSetUploadSize    300b3a70 f   libcurl:progress.obj
 0001:000b2ac0       _Curl_pgrsStartNow         300b3ac0 f   libcurl:progress.obj
 0001:000b2af0       _Curl_pgrsTime             300b3af0 f   libcurl:progress.obj
 0001:000b2c30       _Curl_pgrsUpdate           300b3c30 f   libcurl:progress.obj
 0001:000b3780       _Curl_poll                 300b4780 f   libcurl:select.obj
 0001:000b3af0       _Curl_socket_check         300b4af0 f   libcurl:select.obj
 0001:000b3e30       _Curl_wait_ms              300b4e30 f   libcurl:select.obj
 0001:000b3ee0       _curl_getenv               300b4ee0 f   libcurl:getenv.obj
 0001:000b3f80       _Curl_urldecode            300b4f80 f   libcurl:escape.obj
 0001:000b4090       _curl_easy_escape          300b5090 f   libcurl:escape.obj
 0001:000b4170       _curl_easy_unescape        300b5170 f   libcurl:escape.obj
 0001:000b41c0       _curl_escape               300b51c0 f   libcurl:escape.obj
 0001:000b41e0       _curl_free                 300b51e0 f   libcurl:escape.obj
 0001:000b4200       _curl_unescape             300b5200 f   libcurl:escape.obj
 0001:000b4220       _Curl_parsenetrc           300b5220 f   libcurl:netrc.obj
 0001:000b4570       _Curl_clone_ssl_config     300b5570 f   libcurl:sslgen.obj
 0001:000b4650       _Curl_free_ssl_config      300b5650 f   libcurl:sslgen.obj
 0001:000b46e0       _Curl_ssl_config_matches   300b56e0 f   libcurl:sslgen.obj
 0001:000b47b0       _Curl_digest_cleanup       300b57b0 f   libcurl:http_digest.obj
 0001:000b47e0       _Curl_input_digest         300b57e0 f   libcurl:http_digest.obj
 0001:000b4c10       _Curl_output_digest        300b5c10 f   libcurl:http_digest.obj
 0001:000b5380       _curlx_sitouz              300b6380 f   libcurl:warnless.obj
 0001:000b5390       _curlx_sltosi              300b6390 f   libcurl:warnless.obj
 0001:000b53a0       _curlx_sltoui              300b63a0 f   libcurl:warnless.obj
 0001:000b53b0       _curlx_sltous              300b63b0 f   libcurl:warnless.obj
 0001:000b53c0       _curlx_sotouz              300b63c0 f   libcurl:warnless.obj
 0001:000b53d0       _curlx_sztosi              300b63d0 f   libcurl:warnless.obj
 0001:000b53e0       _curlx_ultosi              300b63e0 f   libcurl:warnless.obj
 0001:000b53f0       _curlx_ultouc              300b63f0 f   libcurl:warnless.obj
 0001:000b5400       _curlx_ultous              300b6400 f   libcurl:warnless.obj
 0001:000b5410       _curlx_uztosi              300b6410 f   libcurl:warnless.obj
 0001:000b5420       _curlx_uztosz              300b6420 f   libcurl:warnless.obj
 0001:000b5430       _curlx_uztoui              300b6430 f   libcurl:warnless.obj
 0001:000b5440       _curlx_uztoul              300b6440 f   libcurl:warnless.obj
 0001:000b5450       _Curl_SOCKS4               300b6450 f   libcurl:socks.obj
 0001:000b5970       _Curl_SOCKS5               300b6970 f   libcurl:socks.obj
 0001:000b61b0       _Curl_blockread_all        300b71b0 f   libcurl:socks.obj
 0001:000b6260       _Curl_proxyCONNECT         300b7260 f   libcurl:http_proxy.obj
 0001:000b6bf0       _Curl_proxy_connect        300b7bf0 f   libcurl:http_proxy.obj
 0001:000b6c70       _Curl_if2ip                300b7c70 f   libcurl:if2ip.obj
 0001:000b6c80       _Curl_if_is_interface_name 300b7c80 f   libcurl:if2ip.obj
 0001:000b6c90       _curlx_nonblock            300b7c90 f   libcurl:nonblock.obj
 0001:000b6cc0       _Curl_splay                300b7cc0 f   libcurl:splay.obj
 0001:000b6d90       _Curl_splaygetbest         300b7d90 f   libcurl:splay.obj
 0001:000b6e60       _Curl_splayinsert          300b7e60 f   libcurl:splay.obj
 0001:000b6f40       _Curl_splayremovebyaddr    300b7f40 f   libcurl:splay.obj
 0001:000b7370       _Curl_FormBoundary         300b8370 f   libcurl:formdata.obj
 0001:000b73e0       _Curl_FormInit             300b83e0 f   libcurl:formdata.obj
 0001:000b7410       _Curl_FormReader           300b8410 f   libcurl:formdata.obj
 0001:000b7540       _Curl_formclean            300b8540 f   libcurl:formdata.obj
 0001:000b7580       _Curl_formpostheader       300b8580 f   libcurl:formdata.obj
 0001:000b75b0       _Curl_getformdata          300b85b0 f   libcurl:formdata.obj
 0001:000b82f0       _curl_formadd              300b92f0 f   libcurl:formdata.obj
 0001:000b8310       _curl_formfree             300b9310 f   libcurl:formdata.obj
 0001:000b83a0       _curl_formget              300b93a0 f   libcurl:formdata.obj
 0001:000b8640       _Curl_base64_decode        300b9640 f   libcurl:base64.obj
 0001:000b8720       _Curl_base64_encode        300b9720 f   libcurl:base64.obj
 0001:000b8940       _Curl_fileinfo_alloc       300b9940 f   libcurl:fileinfo.obj
 0001:000b8970       _Curl_fileinfo_dtor        300b9970 f   libcurl:fileinfo.obj
 0001:000b8a60       _Curl_MD5_final            300b9a60 f   libcurl:md5.obj
 0001:000b8a90       _Curl_MD5_init             300b9a90 f   libcurl:md5.obj
 0001:000b8ae0       _Curl_MD5_update           300b9ae0 f   libcurl:md5.obj
 0001:000b8b00       _Curl_md5it                300b9b00 f   libcurl:md5.obj
 0001:000b8b47       _WSAStartup@8              300b9b47 f   ws2_32:WS2_32.dll
 0001:000b8b4d       _WSACleanup@0              300b9b4d f   ws2_32:WS2_32.dll
 0001:000b8b53       _WSAGetLastError@0         300b9b53 f   ws2_32:WS2_32.dll
 0001:000b8b59       _recv@16                   300b9b59 f   ws2_32:WS2_32.dll
 0001:000b8b5f       _send@16                   300b9b5f f   ws2_32:WS2_32.dll
 0001:000b8b65       _bind@12                   300b9b65 f   ws2_32:WS2_32.dll
 0001:000b8b6b       _closesocket@4             300b9b6b f   ws2_32:WS2_32.dll
 0001:000b8b71       _connect@12                300b9b71 f   ws2_32:WS2_32.dll
 0001:000b8b77       _getpeername@12            300b9b77 f   ws2_32:WS2_32.dll
 0001:000b8b7d       _getsockname@12            300b9b7d f   ws2_32:WS2_32.dll
 0001:000b8b83       _getsockopt@20             300b9b83 f   ws2_32:WS2_32.dll
 0001:000b8b89       _htons@4                   300b9b89 f   ws2_32:WS2_32.dll
 0001:000b8b8f       _ntohs@4                   300b9b8f f   ws2_32:WS2_32.dll
 0001:000b8b95       _setsockopt@20             300b9b95 f   ws2_32:WS2_32.dll
 0001:000b8b9b       _socket@12                 300b9b9b f   ws2_32:WS2_32.dll
 0001:000b8ba1       _WSASetLastError@4         300b9ba1 f   ws2_32:WS2_32.dll
 0001:000b8ba7       _getaddrinfo@16            300b9ba7 f   ws2_32:WS2_32.dll
 0001:000b8bad       _freeaddrinfo@4            300b9bad f   ws2_32:WS2_32.dll
 0001:000b8bb3       ___WSAFDIsSet@8            300b9bb3 f   ws2_32:WS2_32.dll
 0001:000b8bb9       _select@20                 300b9bb9 f   ws2_32:WS2_32.dll
 0001:000b8bbf       _ioctlsocket@12            300b9bbf f   ws2_32:WS2_32.dll
 0001:000b8bc5       _SetUnhandledExceptionFilter@4 300b9bc5 f   kernel32:KERNEL32.dll
 0001:000b8bcb       _GetCurrentProcess@0       300b9bcb f   kernel32:KERNEL32.dll
 0001:000b8bd1       _FreeLibrary@4             300b9bd1 f   kernel32:KERNEL32.dll
 0001:000b8bd7       _GetModuleFileNameA@12     300b9bd7 f   kernel32:KERNEL32.dll
 0001:000b8bdd       _GetProcAddress@8          300b9bdd f   kernel32:KERNEL32.dll
 0001:000b8be3       _LoadLibraryA@4            300b9be3 f   kernel32:KERNEL32.dll
 0001:000b8be9       _GlobalAlloc@8             300b9be9 f   kernel32:KERNEL32.dll
 0001:000b8bef       _GlobalFree@4              300b9bef f   kernel32:KERNEL32.dll
 0001:000b8bf5       _IsBadReadPtr@8            300b9bf5 f   kernel32:KERNEL32.dll
 0001:000b8bfb       _CreateFileA@28            300b9bfb f   kernel32:KERNEL32.dll
 0001:000b8c01       _DeleteFileA@4             300b9c01 f   kernel32:KERNEL32.dll
 0001:000b8c07       _FindClose@4               300b9c07 f   kernel32:KERNEL32.dll
 0001:000b8c0d       _FindFirstFileA@8          300b9c0d f   kernel32:KERNEL32.dll
 0001:000b8c13       _FindNextFileA@8           300b9c13 f   kernel32:KERNEL32.dll
 0001:000b8c19       _ReadFile@20               300b9c19 f   kernel32:KERNEL32.dll
 0001:000b8c1f       _WriteFile@20              300b9c1f f   kernel32:KERNEL32.dll
 0001:000b8c25       _CloseHandle@4             300b9c25 f   kernel32:KERNEL32.dll
 0001:000b8c2b       _GetLastError@0            300b9c2b f   kernel32:KERNEL32.dll
 0001:000b8c31       _MoveFileA@8               300b9c31 f   kernel32:KERNEL32.dll
 0001:000b8c37       _GetVersionExA@4           300b9c37 f   kernel32:KERNEL32.dll
 0001:000b8c3d       _SetLastError@4            300b9c3d f   kernel32:KERNEL32.dll
 0001:000b8c43       _InitializeCriticalSection@4 300b9c43 f   kernel32:KERNEL32.dll
 0001:000b8c49       _EnterCriticalSection@4    300b9c49 f   kernel32:KERNEL32.dll
 0001:000b8c4f       _LeaveCriticalSection@4    300b9c4f f   kernel32:KERNEL32.dll
 0001:000b8c55       _DeleteCriticalSection@4   300b9c55 f   kernel32:KERNEL32.dll
 0001:000b8c5b       _SleepEx@8                 300b9c5b f   kernel32:KERNEL32.dll
 0001:000b8c61       _GetTickCount@0            300b9c61 f   kernel32:KERNEL32.dll
 0001:000b8c67       _FormatMessageA@28         300b9c67 f   kernel32:KERNEL32.dll
 0001:000b8c6d       _WaitForSingleObject@8     300b9c6d f   kernel32:KERNEL32.dll
 0001:000b8c73       _Sleep@4                   300b9c73 f   kernel32:KERNEL32.dll
 0001:000b8c79       _ExpandEnvironmentStringsA@12 300b9c79 f   kernel32:KERNEL32.dll
 0001:000b8c7f       _wsprintfA                 300b9c7f f   user32:USER32.dll
 0001:000b8c85       _CryptAcquireContextA@20   300b9c85 f   advapi32:ADVAPI32.dll
 0001:000b8c8b       _CryptReleaseContext@8     300b9c8b f   advapi32:ADVAPI32.dll
 0001:000b8c91       _CryptGetHashParam@20      300b9c91 f   advapi32:ADVAPI32.dll
 0001:000b8c97       _CryptCreateHash@20        300b9c97 f   advapi32:ADVAPI32.dll
 0001:000b8c9d       _CryptHashData@16          300b9c9d f   advapi32:ADVAPI32.dll
 0001:000b8ca3       _CryptDestroyHash@4        300b9ca3 f   advapi32:ADVAPI32.dll
 0001:000b8ca9       @__security_check_cookie@4 300b9ca9 f   MSVCRT:secchk.obj
 0001:000b8cba       ___raise_securityfailure   300b9cba f   MSVCRT:gs_report.obj
 0001:000b8ce2       ___report_gsfailure        300b9ce2 f   MSVCRT:gs_report.obj
 0001:000b8ddb       ___report_rangecheckfailure 300b9ddb f   MSVCRT:gs_report.obj
 0001:000b8de7       ___report_securityfailure  300b9de7 f   MSVCRT:gs_report.obj
 0001:000b8eb5       ___report_securityfailureEx 300b9eb5 f   MSVCRT:gs_report.obj
 0001:000b8fd0       __ftol2_sse                300b9fd0 f   MSVCRT:ftol2.obj
 0001:000b8fd9       __ftol2_pentium4           300b9fd9 f   MSVCRT:ftol2.obj
 0001:000b8fec       __ftol2_sse_excpt          300b9fec f   MSVCRT:ftol2.obj
 0001:000b9010       __ftol2                    300ba010 f   MSVCRT:ftol2.obj
 0001:000b9090       __chkstk                   300ba090 f   MSVCRT:chkstk.obj
 0001:000b9090       __alloca_probe             300ba090 f   MSVCRT:chkstk.obj
 0001:000b93dd       __CRT_INIT@12              300ba3dd f   MSVCRT:dll_dllmain.obj
 0001:000b93e6       __DllMainCRTStartup@12     300ba3e6 f   MSVCRT:dll_dllmain.obj
 0001:000b9410       __alldiv                   300ba410 f   MSVCRT:lldiv.obj
 0001:000b94c0       __ftoui3                   300ba4c0 f   MSVCRT:ftol3.obj
 0001:000b94cf       __ftoul3                   300ba4cf f   MSVCRT:ftol3.obj
 0001:000b94de       __ftol3                    300ba4de f   MSVCRT:ftol3.obj
 0001:000b94eb       __ftol3_NaN                300ba4eb f   MSVCRT:ftol3.obj
 0001:000b9503       __ftol3_work               300ba503 f   MSVCRT:ftol3.obj
 0001:000b9589       __ftol3_common             300ba589 f   MSVCRT:ftol3.obj
 0001:000b964b       __ftol3_arg_error          300ba64b f   MSVCRT:ftol3.obj
 0001:000b965d       __ftol3_except             300ba65d f   MSVCRT:ftol3.obj
 0001:000b96a1       __dtoui3                   300ba6a1 f   MSVCRT:ftol3.obj
 0001:000b96b0       __dtoul3                   300ba6b0 f   MSVCRT:ftol3.obj
 0001:000b96bf       __dtol3                    300ba6bf f   MSVCRT:ftol3.obj
 0001:000b96cc       __dtol3_NaN                300ba6cc f   MSVCRT:ftol3.obj
 0001:000b96e9       __dtol3_work               300ba6e9 f   MSVCRT:ftol3.obj
 0001:000b97d0       __ultod3                   300ba7d0 f   MSVCRT:ftol3.obj
 0001:000b9810       __ltod3                    300ba810 f   MSVCRT:ftol3.obj
 0001:000b9840       __allmul                   300ba840 f   MSVCRT:llmul.obj
 0001:000b9880       __aulldvrm                 300ba880 f   MSVCRT:ulldvrm.obj
 0001:000b9920       __allrem                   300ba920 f   MSVCRT:llrem.obj
 0001:000b99d2       ___isa_available_init      300ba9d2 f   MSVCRT:cpu_disp.obj
 0001:000b9bb6       ___security_init_cookie    300babb6 f   MSVCRT:gs_support.obj
 0001:000b9c01       _DllMain@12                300bac01 f   MSVCRT:dll_dllmain_stub.obj
 0001:000b9c23       ?__scrt_initialize_type_info@@YAXXZ 300bac23 f   MSVCRT:tncleanup.obj
 0001:000b9c2f       ?__scrt_uninitialize_type_info@@YAXXZ 300bac2f f   MSVCRT:tncleanup.obj
 0001:000b9c3b       ___scrt_initialize_default_local_stdio_options 300bac3b f   MSVCRT:default_local_stdio_options.obj
 0001:000b9c58       ??$__crt_fast_decode_pointer@PAP6AXXZ@@YAPAP6AXXZQAP6AXXZ@Z 300bac58 f i MSVCRT:utility.obj
 0001:000b9c6c       ??$__crt_fast_encode_pointer@PAP6AXXZ@@YAPAP6AXXZQAP6AXXZ@Z 300bac6c f i MSVCRT:utility.obj
 0001:000b9c89       ?__crt_rotate_pointer_value@@YAIIH@Z 300bac89 f i MSVCRT:utility.obj
 0001:000b9c96       ?configure_argv@__scrt_narrow_argv_policy@@SAHXZ 300bac96 f i MSVCRT:utility.obj
 0001:000b9ce7       ?initialize_environment@__scrt_narrow_environment_policy@@SAHXZ 300bace7 f i MSVCRT:utility.obj
 0001:000b9d20       _NtCurrentTeb              300bad20 f i MSVCRT:utility.obj
 0001:000b9d27       ___scrt_acquire_startup_lock 300bad27 f   MSVCRT:utility.obj
 0001:000b9d59       ___scrt_dllmain_after_initialize_c 300bad59 f   MSVCRT:utility.obj
 0001:000b9d84       ___scrt_dllmain_before_initialize_c 300bad84 f   MSVCRT:utility.obj
 0001:000b9d92       ___scrt_dllmain_crt_thread_attach 300bad92 f   MSVCRT:utility.obj
 0001:000b9db1       ___scrt_dllmain_crt_thread_detach 300badb1 f   MSVCRT:utility.obj
 0001:000b9dbe       ___scrt_dllmain_exception_filter 300badbe f   MSVCRT:utility.obj
 0001:000b9df2       ___scrt_dllmain_uninitialize_c 300badf2 f   MSVCRT:utility.obj
 0001:000b9e15       ___scrt_dllmain_uninitialize_critical 300bae15 f   MSVCRT:utility.obj
 0001:000b9e22       ___scrt_initialize_crt     300bae22 f   MSVCRT:utility.obj
 0001:000b9e5b       ___scrt_initialize_onexit_tables 300bae5b f   MSVCRT:utility.obj
 0001:000b9f00       ___scrt_is_nonwritable_in_current_image 300baf00 f   MSVCRT:utility.obj
 0001:000b9f94       ___scrt_release_startup_lock 300baf94 f   MSVCRT:utility.obj
 0001:000b9fb1       ___scrt_uninitialize_crt   300bafb1 f   MSVCRT:utility.obj
 0001:000b9fd9       __onexit                   300bafd9 f   MSVCRT:utility.obj
 0001:000ba014       _at_quick_exit             300bb014 f   MSVCRT:utility.obj
 0001:000ba045       _atexit                    300bb045 f   MSVCRT:utility.obj
 0001:000ba05a       ___scrt_get_dyn_tls_init_callback 300bb05a f   MSVCRT:dyn_tls_init.obj
 0001:000ba060       ___scrt_fastfail           300bb060 f   MSVCRT:utility_desktop.obj
 0001:000ba17a       ___scrt_get_show_window_mode 300bb17a f   MSVCRT:utility_desktop.obj
 0001:000ba1ab       ___scrt_initialize_mta     300bb1ab f   MSVCRT:utility_desktop.obj
 0001:000ba1b0       ___scrt_initialize_winrt   300bb1b0 f   MSVCRT:utility_desktop.obj
 0001:000ba1b3       ___scrt_is_managed_app     300bb1b3 f   MSVCRT:utility_desktop.obj
 0001:000ba1f6       ___scrt_set_unhandled_exception_filter 300bb1f6 f   MSVCRT:utility_desktop.obj
 0001:000ba202       ___scrt_stub_for_initialize_mta 300bb202 f   MSVCRT:utility_desktop.obj
 0001:000ba202       ___scrt_exe_initialize_mta 300bb202 f   MSVCRT:utility_desktop.obj
 0001:000ba205       ___scrt_unhandled_exception_filter@4 300bb205 f   MSVCRT:utility_desktop.obj
 0001:000ba246       __crt_debugger_hook        300bb246 f   MSVCRT:utility_desktop.obj
 0001:000ba24e       __RTC_Initialize           300bb24e f   MSVCRT:initsect.obj
 0001:000ba27a       __RTC_Terminate            300bb27a f   MSVCRT:initsect.obj
 0001:000ba2b0       __SEH_prolog4              300bb2b0 f   MSVCRT:sehprolg4.obj
 0001:000ba2f6       __SEH_epilog4              300bb2f6 f   MSVCRT:sehprolg4.obj
 0001:000ba30b       __except_handler4          300bb30b f   MSVCRT:chandler4gs.obj
 0001:000ba32e       @_guard_check_icall_nop@4  300bb32e f i MSVCRT:guard_support.obj
 0001:000ba32f       _ReadNoFence               300bb32f f i MSVCRT:guard_support.obj
 0001:000ba339       _ReadPointerNoFence        300bb339 f i MSVCRT:guard_support.obj
 0001:000ba343       __guard_icall_checks_enforced 300bb343 f i MSVCRT:guard_support.obj
 0001:000ba355       __get_startup_argv_mode    300bb355 f   MSVCRT:argv_mode.obj
 0001:000ba359       ___scrt_is_ucrt_dll_in_use 300bb359 f   MSVCRT:ucrt_detection.obj
 0001:000ba365       _strstr                    300bb365 f   vcruntime:VCRUNTIME140.dll
 0001:000ba36b       _memset                    300bb36b f   vcruntime:VCRUNTIME140.dll
 0001:000ba371       _memcpy                    300bb371 f   vcruntime:VCRUNTIME140.dll
 0001:000ba377       _strchr                    300bb377 f   vcruntime:VCRUNTIME140.dll
 0001:000ba37d       _memmove                   300bb37d f   vcruntime:VCRUNTIME140.dll
 0001:000ba383       _strrchr                   300bb383 f   vcruntime:VCRUNTIME140.dll
 0001:000ba389       _memchr                    300bb389 f   vcruntime:VCRUNTIME140.dll
 0001:000ba38f       ___std_type_info_destroy_list 300bb38f f   vcruntime:VCRUNTIME140.dll
 0001:000ba395       __except_handler4_common   300bb395 f   vcruntime:VCRUNTIME140.dll
 0001:000ba39b       _rand                      300bb39b f   ucrt:api-ms-win-crt-utility-l1-1-0.dll
 0001:000ba3a1       _atoi                      300bb3a1 f   ucrt:api-ms-win-crt-convert-l1-1-0.dll
 0001:000ba3a7       _tolower                   300bb3a7 f   ucrt:api-ms-win-crt-string-l1-1-0.dll
 0001:000ba3ad       ___stdio_common_vsprintf   300bb3ad f   ucrt:api-ms-win-crt-stdio-l1-1-0.dll
 0001:000ba3b3       __libm_sse2_cos_precise    300bb3b3 f   ucrt:api-ms-win-crt-math-l1-1-0.dll
 0001:000ba3b9       __libm_sse2_sin_precise    300bb3b9 f   ucrt:api-ms-win-crt-math-l1-1-0.dll
 0001:000ba3bf       __libm_sse2_sqrt_precise   300bb3bf f   ucrt:api-ms-win-crt-math-l1-1-0.dll
 0001:000ba3c5       _floor                     300bb3c5 f   ucrt:api-ms-win-crt-math-l1-1-0.dll
 0001:000ba3cb       _atof                      300bb3cb f   ucrt:api-ms-win-crt-convert-l1-1-0.dll
 0001:000ba3d1       _fclose                    300bb3d1 f   ucrt:api-ms-win-crt-stdio-l1-1-0.dll
 0001:000ba3d7       _fopen                     300bb3d7 f   ucrt:api-ms-win-crt-stdio-l1-1-0.dll
 0001:000ba3dd       _fputs                     300bb3dd f   ucrt:api-ms-win-crt-stdio-l1-1-0.dll
 0001:000ba3e3       _qsort                     300bb3e3 f   ucrt:api-ms-win-crt-utility-l1-1-0.dll
 0001:000ba3e9       _strncpy                   300bb3e9 f   ucrt:api-ms-win-crt-string-l1-1-0.dll
 0001:000ba3ef       __CIatan2                  300bb3ef f   ucrt:api-ms-win-crt-math-l1-1-0.dll
 0001:000ba3f5       __libm_sse2_acos_precise   300bb3f5 f   ucrt:api-ms-win-crt-math-l1-1-0.dll
 0001:000ba3fb       __libm_sse2_pow_precise    300bb3fb f   ucrt:api-ms-win-crt-math-l1-1-0.dll
 0001:000ba401       ___stdio_common_vsscanf    300bb401 f   ucrt:api-ms-win-crt-stdio-l1-1-0.dll
 0001:000ba407       _free                      300bb407 f   ucrt:api-ms-win-crt-heap-l1-1-0.dll
 0001:000ba40d       _malloc                    300bb40d f   ucrt:api-ms-win-crt-heap-l1-1-0.dll
 0001:000ba413       __libm_sse2_tan_precise    300bb413 f   ucrt:api-ms-win-crt-math-l1-1-0.dll
 0001:000ba419       _ceil                      300bb419 f   ucrt:api-ms-win-crt-math-l1-1-0.dll
 0001:000ba41f       __stat64i32                300bb41f f   ucrt:api-ms-win-crt-filesystem-l1-1-0.dll
 0001:000ba425       _rint                      300bb425 f   ucrt:api-ms-win-crt-math-l1-1-0.dll
 0001:000ba42b       ___acrt_iob_func           300bb42b f   ucrt:api-ms-win-crt-stdio-l1-1-0.dll
 0001:000ba431       _fflush                    300bb431 f   ucrt:api-ms-win-crt-stdio-l1-1-0.dll
 0001:000ba437       _strncat                   300bb437 f   ucrt:api-ms-win-crt-string-l1-1-0.dll
 0001:000ba43d       _strtok                    300bb43d f   ucrt:api-ms-win-crt-string-l1-1-0.dll
 0001:000ba443       _fwrite                    300bb443 f   ucrt:api-ms-win-crt-stdio-l1-1-0.dll
 0001:000ba449       _getenv                    300bb449 f   ucrt:api-ms-win-crt-environment-l1-1-0.dll
 0001:000ba44f       _toupper                   300bb44f f   ucrt:api-ms-win-crt-string-l1-1-0.dll
 0001:000ba455       _calloc                    300bb455 f   ucrt:api-ms-win-crt-heap-l1-1-0.dll
 0001:000ba45b       _strtol                    300bb45b f   ucrt:api-ms-win-crt-convert-l1-1-0.dll
 0001:000ba461       _realloc                   300bb461 f   ucrt:api-ms-win-crt-heap-l1-1-0.dll
 0001:000ba467       _strncmp                   300bb467 f   ucrt:api-ms-win-crt-string-l1-1-0.dll
 0001:000ba46d       _fgets                     300bb46d f   ucrt:api-ms-win-crt-stdio-l1-1-0.dll
 0001:000ba473       __strtoi64                 300bb473 f   ucrt:api-ms-win-crt-convert-l1-1-0.dll
 0001:000ba479       __time64                   300bb479 f   ucrt:api-ms-win-crt-time-l1-1-0.dll
 0001:000ba47f       __errno                    300bb47f f   ucrt:api-ms-win-crt-runtime-l1-1-0.dll
 0001:000ba485       _fread                     300bb485 f   ucrt:api-ms-win-crt-stdio-l1-1-0.dll
 0001:000ba48b       _fseek                     300bb48b f   ucrt:api-ms-win-crt-stdio-l1-1-0.dll
 0001:000ba491       _isxdigit                  300bb491 f   ucrt:api-ms-win-crt-string-l1-1-0.dll
 0001:000ba497       _strtoul                   300bb497 f   ucrt:api-ms-win-crt-convert-l1-1-0.dll
 0001:000ba49d       _isalpha                   300bb49d f   ucrt:api-ms-win-crt-string-l1-1-0.dll
 0001:000ba4a3       _isdigit                   300bb4a3 f   ucrt:api-ms-win-crt-string-l1-1-0.dll
 0001:000ba4a9       _isalnum                   300bb4a9 f   ucrt:api-ms-win-crt-string-l1-1-0.dll
 0001:000ba4af       __gmtime64                 300bb4af f   ucrt:api-ms-win-crt-time-l1-1-0.dll
 0001:000ba4b5       _fputc                     300bb4b5 f   ucrt:api-ms-win-crt-stdio-l1-1-0.dll
 0001:000ba4bb       _strerror                  300bb4bb f   ucrt:api-ms-win-crt-runtime-l1-1-0.dll
 0001:000ba4c1       ___sys_nerr                300bb4c1 f   ucrt:api-ms-win-crt-runtime-l1-1-0.dll
 0001:000ba4c7       __beginthreadex            300bb4c7 f   ucrt:api-ms-win-crt-runtime-l1-1-0.dll
 0001:000ba4cd       _isspace                   300bb4cd f   ucrt:api-ms-win-crt-string-l1-1-0.dll
 0001:000ba4d3       __stat64                   300bb4d3 f   ucrt:api-ms-win-crt-filesystem-l1-1-0.dll
 0001:000ba4d9       __strdup                   300bb4d9 f   ucrt:api-ms-win-crt-string-l1-1-0.dll
 0001:000ba4d9       _strdup                    300bb4d9 f   ucrt:api-ms-win-crt-string-l1-1-0.dll
 0001:000ba4df       __stricmp                  300bb4df f   ucrt:api-ms-win-crt-string-l1-1-0.dll
 0001:000ba4e5       __strnicmp                 300bb4e5 f   ucrt:api-ms-win-crt-string-l1-1-0.dll
 0001:000ba4eb       __initterm                 300bb4eb f   ucrt:api-ms-win-crt-runtime-l1-1-0.dll
 0001:000ba4f1       __initterm_e               300bb4f1 f   ucrt:api-ms-win-crt-runtime-l1-1-0.dll
 0001:000ba4f7       __except1                  300bb4f7 f   ucrt:api-ms-win-crt-math-l1-1-0.dll
 0001:000ba4fd       __seh_filter_dll           300bb4fd f   ucrt:api-ms-win-crt-runtime-l1-1-0.dll
 0001:000ba503       __configure_narrow_argv    300bb503 f   ucrt:api-ms-win-crt-runtime-l1-1-0.dll
 0001:000ba509       __initialize_narrow_environment 300bb509 f   ucrt:api-ms-win-crt-runtime-l1-1-0.dll
 0001:000ba50f       __initialize_onexit_table  300bb50f f   ucrt:api-ms-win-crt-runtime-l1-1-0.dll
 0001:000ba515       __register_onexit_function 300bb515 f   ucrt:api-ms-win-crt-runtime-l1-1-0.dll
 0001:000ba51b       __execute_onexit_table     300bb51b f   ucrt:api-ms-win-crt-runtime-l1-1-0.dll
 0001:000ba521       __crt_atexit               300bb521 f   ucrt:api-ms-win-crt-runtime-l1-1-0.dll
 0001:000ba527       __crt_at_quick_exit        300bb527 f   ucrt:api-ms-win-crt-runtime-l1-1-0.dll
 0001:000ba52d       __cexit                    300bb52d f   ucrt:api-ms-win-crt-runtime-l1-1-0.dll
 0001:000ba533       _terminate                 300bb533 f   ucrt:api-ms-win-crt-runtime-l1-1-0.dll
 0001:000ba539       _UnhandledExceptionFilter@4 300bb539 f   kernel32:KERNEL32.dll
 0001:000ba53f       _TerminateProcess@8        300bb53f f   kernel32:KERNEL32.dll
 0001:000ba545       _IsProcessorFeaturePresent@4 300bb545 f   kernel32:KERNEL32.dll
 0001:000ba54b       _QueryPerformanceCounter@4 300bb54b f   kernel32:KERNEL32.dll
 0001:000ba551       _GetCurrentProcessId@0     300bb551 f   kernel32:KERNEL32.dll
 0001:000ba557       _GetCurrentThreadId@0      300bb557 f   kernel32:KERNEL32.dll
 0001:000ba55d       _GetSystemTimeAsFileTime@4 300bb55d f   kernel32:KERNEL32.dll
 0001:000ba563       _DisableThreadLibraryCalls@4 300bb563 f   kernel32:KERNEL32.dll
 0001:000ba569       _InitializeSListHead@4     300bb569 f   kernel32:KERNEL32.dll
 0001:000ba56f       _IsDebuggerPresent@0       300bb56f f   kernel32:KERNEL32.dll
 0001:000ba575       _GetStartupInfoW@4         300bb575 f   kernel32:KERNEL32.dll
 0001:000ba57b       _GetModuleHandleW@4        300bb57b f   kernel32:KERNEL32.dll
 0001:000ba581       ___vcrt_initialize         300bb581 f   MSVCRT:ucrt_stubs.obj
 0001:000ba581       ___acrt_initialize         300bb581 f   MSVCRT:ucrt_stubs.obj
 0001:000ba581       ___scrt_stub_for_acrt_initialize 300bb581 f   MSVCRT:ucrt_stubs.obj
 0001:000ba584       ___vcrt_thread_attach      300bb584 f   MSVCRT:ucrt_stubs.obj
 0001:000ba584       ___scrt_stub_for_acrt_thread_attach 300bb584 f   MSVCRT:ucrt_stubs.obj
 0001:000ba584       ___acrt_thread_attach      300bb584 f   MSVCRT:ucrt_stubs.obj
 0001:000ba587       ___scrt_stub_for_acrt_thread_detach 300bb587 f   MSVCRT:ucrt_stubs.obj
 0001:000ba587       ___acrt_thread_detach      300bb587 f   MSVCRT:ucrt_stubs.obj
 0001:000ba587       ___vcrt_thread_detach      300bb587 f   MSVCRT:ucrt_stubs.obj
 0001:000ba58a       ___acrt_uninitialize       300bb58a f   MSVCRT:ucrt_stubs.obj
 0001:000ba58a       ___vcrt_uninitialize       300bb58a f   MSVCRT:ucrt_stubs.obj
 0001:000ba58a       ___scrt_stub_for_acrt_uninitialize 300bb58a f   MSVCRT:ucrt_stubs.obj
 0001:000ba58d       ___vcrt_uninitialize_critical 300bb58d f   MSVCRT:ucrt_stubs.obj
 0001:000ba58d       ___acrt_uninitialize_critical 300bb58d f   MSVCRT:ucrt_stubs.obj
 0001:000ba58d       ___scrt_stub_for_acrt_uninitialize_critical 300bb58d f   MSVCRT:ucrt_stubs.obj
 0001:000ba590       __is_c_termination_complete 300bb590 f   MSVCRT:ucrt_stubs.obj
 0001:000ba590       ___scrt_stub_for_is_c_termination_complete 300bb590 f   MSVCRT:ucrt_stubs.obj
 0002:00000000       __imp__CryptReleaseContext@8 300bc000     advapi32:ADVAPI32.dll
 0002:00000004       __imp__CryptGetHashParam@20 300bc004     advapi32:ADVAPI32.dll
 0002:00000008       __imp__CryptCreateHash@20  300bc008     advapi32:ADVAPI32.dll
 0002:0000000c       __imp__CryptHashData@16    300bc00c     advapi32:ADVAPI32.dll
 0002:00000010       __imp__CryptDestroyHash@4  300bc010     advapi32:ADVAPI32.dll
 0002:00000014       __imp__CryptAcquireContextA@20 300bc014     advapi32:ADVAPI32.dll
 0002:00000018       \177ADVAPI32_NULL_THUNK_DATA 300bc018     advapi32:ADVAPI32.dll
 0002:0000001c       __imp__GetAdaptersInfo@8   300bc01c     iphlpapi:IPHLPAPI.DLL
 0002:00000020       \177IPHLPAPI_NULL_THUNK_DATA 300bc020     iphlpapi:IPHLPAPI.DLL
 0002:00000024       __imp__QueryPerformanceCounter@4 300bc024     kernel32:KERNEL32.dll
 0002:00000028       __imp__GetCurrentThreadId@0 300bc028     kernel32:KERNEL32.dll
 0002:0000002c       __imp__TerminateProcess@8  300bc02c     kernel32:KERNEL32.dll
 0002:00000030       __imp__UnhandledExceptionFilter@4 300bc030     kernel32:KERNEL32.dll
 0002:00000034       __imp__GetModuleHandleW@4  300bc034     kernel32:KERNEL32.dll
 0002:00000038       __imp__GetSystemTimeAsFileTime@4 300bc038     kernel32:KERNEL32.dll
 0002:0000003c       __imp__DisableThreadLibraryCalls@4 300bc03c     kernel32:KERNEL32.dll
 0002:00000040       __imp__InitializeSListHead@4 300bc040     kernel32:KERNEL32.dll
 0002:00000044       __imp__IsDebuggerPresent@0 300bc044     kernel32:KERNEL32.dll
 0002:00000048       __imp__GetStartupInfoW@4   300bc048     kernel32:KERNEL32.dll
 0002:0000004c       __imp__GetCurrentProcessId@0 300bc04c     kernel32:KERNEL32.dll
 0002:00000050       __imp__IsProcessorFeaturePresent@4 300bc050     kernel32:KERNEL32.dll
 0002:00000054       __imp__ExpandEnvironmentStringsA@12 300bc054     kernel32:KERNEL32.dll
 0002:00000058       __imp__Sleep@4             300bc058     kernel32:KERNEL32.dll
 0002:0000005c       __imp__WaitForSingleObject@8 300bc05c     kernel32:KERNEL32.dll
 0002:00000060       __imp__SetUnhandledExceptionFilter@4 300bc060     kernel32:KERNEL32.dll
 0002:00000064       __imp__GetCurrentProcess@0 300bc064     kernel32:KERNEL32.dll
 0002:00000068       __imp__FreeLibrary@4       300bc068     kernel32:KERNEL32.dll
 0002:0000006c       __imp__GetModuleFileNameA@12 300bc06c     kernel32:KERNEL32.dll
 0002:00000070       __imp__GetProcAddress@8    300bc070     kernel32:KERNEL32.dll
 0002:00000074       __imp__LoadLibraryA@4      300bc074     kernel32:KERNEL32.dll
 0002:00000078       __imp__GlobalAlloc@8       300bc078     kernel32:KERNEL32.dll
 0002:0000007c       __imp__GlobalFree@4        300bc07c     kernel32:KERNEL32.dll
 0002:00000080       __imp__IsBadReadPtr@8      300bc080     kernel32:KERNEL32.dll
 0002:00000084       __imp__CreateFileA@28      300bc084     kernel32:KERNEL32.dll
 0002:00000088       __imp__DeleteFileA@4       300bc088     kernel32:KERNEL32.dll
 0002:0000008c       __imp__FindClose@4         300bc08c     kernel32:KERNEL32.dll
 0002:00000090       __imp__FindFirstFileA@8    300bc090     kernel32:KERNEL32.dll
 0002:00000094       __imp__FindNextFileA@8     300bc094     kernel32:KERNEL32.dll
 0002:00000098       __imp__ReadFile@20         300bc098     kernel32:KERNEL32.dll
 0002:0000009c       __imp__WriteFile@20        300bc09c     kernel32:KERNEL32.dll
 0002:000000a0       __imp__CloseHandle@4       300bc0a0     kernel32:KERNEL32.dll
 0002:000000a4       __imp__GetLastError@0      300bc0a4     kernel32:KERNEL32.dll
 0002:000000a8       __imp__MoveFileA@8         300bc0a8     kernel32:KERNEL32.dll
 0002:000000ac       __imp__GetVersionExA@4     300bc0ac     kernel32:KERNEL32.dll
 0002:000000b0       __imp__SetLastError@4      300bc0b0     kernel32:KERNEL32.dll
 0002:000000b4       __imp__InitializeCriticalSection@4 300bc0b4     kernel32:KERNEL32.dll
 0002:000000b8       __imp__EnterCriticalSection@4 300bc0b8     kernel32:KERNEL32.dll
 0002:000000bc       __imp__LeaveCriticalSection@4 300bc0bc     kernel32:KERNEL32.dll
 0002:000000c0       __imp__DeleteCriticalSection@4 300bc0c0     kernel32:KERNEL32.dll
 0002:000000c4       __imp__SleepEx@8           300bc0c4     kernel32:KERNEL32.dll
 0002:000000c8       __imp__GetTickCount@0      300bc0c8     kernel32:KERNEL32.dll
 0002:000000cc       __imp__FormatMessageA@28   300bc0cc     kernel32:KERNEL32.dll
 0002:000000d0       \177KERNEL32_NULL_THUNK_DATA 300bc0d0     kernel32:KERNEL32.dll
 0002:000000d4       __imp__wsprintfA           300bc0d4     user32:USER32.dll
 0002:000000d8       \177USER32_NULL_THUNK_DATA 300bc0d8     user32:USER32.dll
 0002:000000dc       __imp____std_type_info_destroy_list 300bc0dc     vcruntime:VCRUNTIME140.dll
 0002:000000e0       __imp___except_handler4_common 300bc0e0     vcruntime:VCRUNTIME140.dll
 0002:000000e4       __imp__strrchr             300bc0e4     vcruntime:VCRUNTIME140.dll
 0002:000000e8       __imp__memchr              300bc0e8     vcruntime:VCRUNTIME140.dll
 0002:000000ec       __imp__memmove             300bc0ec     vcruntime:VCRUNTIME140.dll
 0002:000000f0       __imp__strchr              300bc0f0     vcruntime:VCRUNTIME140.dll
 0002:000000f4       __imp__memcpy              300bc0f4     vcruntime:VCRUNTIME140.dll
 0002:000000f8       __imp__memset              300bc0f8     vcruntime:VCRUNTIME140.dll
 0002:000000fc       __imp__strstr              300bc0fc     vcruntime:VCRUNTIME140.dll
 0002:00000100       \177VCRUNTIME140_NULL_THUNK_DATA 300bc100     vcruntime:VCRUNTIME140.dll
 0002:00000104       __imp__ntohs@4             300bc104     ws2_32:WS2_32.dll
 0002:00000108       __imp__socket@12           300bc108     ws2_32:WS2_32.dll
 0002:0000010c       __imp__WSASetLastError@4   300bc10c     ws2_32:WS2_32.dll
 0002:00000110       __imp__getaddrinfo@16      300bc110     ws2_32:WS2_32.dll
 0002:00000114       __imp__freeaddrinfo@4      300bc114     ws2_32:WS2_32.dll
 0002:00000118       __imp__getsockopt@20       300bc118     ws2_32:WS2_32.dll
 0002:0000011c       __imp____WSAFDIsSet@8      300bc11c     ws2_32:WS2_32.dll
 0002:00000120       __imp__select@20           300bc120     ws2_32:WS2_32.dll
 0002:00000124       __imp__ioctlsocket@12      300bc124     ws2_32:WS2_32.dll
 0002:00000128       __imp__setsockopt@20       300bc128     ws2_32:WS2_32.dll
 0002:0000012c       __imp__WSAStartup@8        300bc12c     ws2_32:WS2_32.dll
 0002:00000130       __imp__getsockname@12      300bc130     ws2_32:WS2_32.dll
 0002:00000134       __imp__WSACleanup@0        300bc134     ws2_32:WS2_32.dll
 0002:00000138       __imp__WSAGetLastError@0   300bc138     ws2_32:WS2_32.dll
 0002:0000013c       __imp__recv@16             300bc13c     ws2_32:WS2_32.dll
 0002:00000140       __imp__send@16             300bc140     ws2_32:WS2_32.dll
 0002:00000144       __imp__bind@12             300bc144     ws2_32:WS2_32.dll
 0002:00000148       __imp__closesocket@4       300bc148     ws2_32:WS2_32.dll
 0002:0000014c       __imp__htons@4             300bc14c     ws2_32:WS2_32.dll
 0002:00000150       __imp__connect@12          300bc150     ws2_32:WS2_32.dll
 0002:00000154       __imp__getpeername@12      300bc154     ws2_32:WS2_32.dll
 0002:00000158       \177WS2_32_NULL_THUNK_DATA 300bc158     ws2_32:WS2_32.dll
 0002:0000015c       __imp__atoi                300bc15c     ucrt:api-ms-win-crt-convert-l1-1-0.dll
 0002:00000160       __imp__strtoul             300bc160     ucrt:api-ms-win-crt-convert-l1-1-0.dll
 0002:00000164       __imp___strtoi64           300bc164     ucrt:api-ms-win-crt-convert-l1-1-0.dll
 0002:00000168       __imp__atof                300bc168     ucrt:api-ms-win-crt-convert-l1-1-0.dll
 0002:0000016c       __imp__strtol              300bc16c     ucrt:api-ms-win-crt-convert-l1-1-0.dll
 0002:00000170       \177api-ms-win-crt-convert-l1-1-0_NULL_THUNK_DATA 300bc170     ucrt:api-ms-win-crt-convert-l1-1-0.dll
 0002:00000174       __imp__getenv              300bc174     ucrt:api-ms-win-crt-environment-l1-1-0.dll
 0002:00000178       \177api-ms-win-crt-environment-l1-1-0_NULL_THUNK_DATA 300bc178     ucrt:api-ms-win-crt-environment-l1-1-0.dll
 0002:0000017c       __imp___stat64             300bc17c     ucrt:api-ms-win-crt-filesystem-l1-1-0.dll
 0002:00000180       __imp___stat64i32          300bc180     ucrt:api-ms-win-crt-filesystem-l1-1-0.dll
 0002:00000184       \177api-ms-win-crt-filesystem-l1-1-0_NULL_THUNK_DATA 300bc184     ucrt:api-ms-win-crt-filesystem-l1-1-0.dll
 0002:00000188       __imp__calloc              300bc188     ucrt:api-ms-win-crt-heap-l1-1-0.dll
 0002:0000018c       __imp__free                300bc18c     ucrt:api-ms-win-crt-heap-l1-1-0.dll
 0002:00000190       __imp__malloc              300bc190     ucrt:api-ms-win-crt-heap-l1-1-0.dll
 0002:00000194       __imp__realloc             300bc194     ucrt:api-ms-win-crt-heap-l1-1-0.dll
 0002:00000198       \177api-ms-win-crt-heap-l1-1-0_NULL_THUNK_DATA 300bc198     ucrt:api-ms-win-crt-heap-l1-1-0.dll
 0002:0000019c       __imp___libm_sse2_tan_precise 300bc19c     ucrt:api-ms-win-crt-math-l1-1-0.dll
 0002:000001a0       __imp__floor               300bc1a0     ucrt:api-ms-win-crt-math-l1-1-0.dll
 0002:000001a4       __imp__rint                300bc1a4     ucrt:api-ms-win-crt-math-l1-1-0.dll
 0002:000001a8       __imp___libm_sse2_pow_precise 300bc1a8     ucrt:api-ms-win-crt-math-l1-1-0.dll
 0002:000001ac       __imp__ceil                300bc1ac     ucrt:api-ms-win-crt-math-l1-1-0.dll
 0002:000001b0       __imp___libm_sse2_sin_precise 300bc1b0     ucrt:api-ms-win-crt-math-l1-1-0.dll
 0002:000001b4       __imp___libm_sse2_acos_precise 300bc1b4     ucrt:api-ms-win-crt-math-l1-1-0.dll
 0002:000001b8       __imp___libm_sse2_sqrt_precise 300bc1b8     ucrt:api-ms-win-crt-math-l1-1-0.dll
 0002:000001bc       __imp___CIatan2            300bc1bc     ucrt:api-ms-win-crt-math-l1-1-0.dll
 0002:000001c0       __imp___except1            300bc1c0     ucrt:api-ms-win-crt-math-l1-1-0.dll
 0002:000001c4       __imp___libm_sse2_cos_precise 300bc1c4     ucrt:api-ms-win-crt-math-l1-1-0.dll
 0002:000001c8       \177api-ms-win-crt-math-l1-1-0_NULL_THUNK_DATA 300bc1c8     ucrt:api-ms-win-crt-math-l1-1-0.dll
 0002:000001cc       __imp___initialize_narrow_environment 300bc1cc     ucrt:api-ms-win-crt-runtime-l1-1-0.dll
 0002:000001d0       __imp___beginthreadex      300bc1d0     ucrt:api-ms-win-crt-runtime-l1-1-0.dll
 0002:000001d4       __imp___initialize_onexit_table 300bc1d4     ucrt:api-ms-win-crt-runtime-l1-1-0.dll
 0002:000001d8       __imp___register_onexit_function 300bc1d8     ucrt:api-ms-win-crt-runtime-l1-1-0.dll
 0002:000001dc       __imp___configure_narrow_argv 300bc1dc     ucrt:api-ms-win-crt-runtime-l1-1-0.dll
 0002:000001e0       __imp___seh_filter_dll     300bc1e0     ucrt:api-ms-win-crt-runtime-l1-1-0.dll
 0002:000001e4       __imp___initterm_e         300bc1e4     ucrt:api-ms-win-crt-runtime-l1-1-0.dll
 0002:000001e8       __imp___initterm           300bc1e8     ucrt:api-ms-win-crt-runtime-l1-1-0.dll
 0002:000001ec       __imp__strerror            300bc1ec     ucrt:api-ms-win-crt-runtime-l1-1-0.dll
 0002:000001f0       __imp____sys_nerr          300bc1f0     ucrt:api-ms-win-crt-runtime-l1-1-0.dll
 0002:000001f4       __imp__terminate           300bc1f4     ucrt:api-ms-win-crt-runtime-l1-1-0.dll
 0002:000001f8       __imp___execute_onexit_table 300bc1f8     ucrt:api-ms-win-crt-runtime-l1-1-0.dll
 0002:000001fc       __imp___crt_atexit         300bc1fc     ucrt:api-ms-win-crt-runtime-l1-1-0.dll
 0002:00000200       __imp___crt_at_quick_exit  300bc200     ucrt:api-ms-win-crt-runtime-l1-1-0.dll
 0002:00000204       __imp___errno              300bc204     ucrt:api-ms-win-crt-runtime-l1-1-0.dll
 0002:00000208       __imp___cexit              300bc208     ucrt:api-ms-win-crt-runtime-l1-1-0.dll
 0002:0000020c       \177api-ms-win-crt-runtime-l1-1-0_NULL_THUNK_DATA 300bc20c     ucrt:api-ms-win-crt-runtime-l1-1-0.dll
 0002:00000210       __imp__fseek               300bc210     ucrt:api-ms-win-crt-stdio-l1-1-0.dll
 0002:00000214       __imp__fread               300bc214     ucrt:api-ms-win-crt-stdio-l1-1-0.dll
 0002:00000218       __imp____stdio_common_vsprintf 300bc218     ucrt:api-ms-win-crt-stdio-l1-1-0.dll
 0002:0000021c       __imp__fputc               300bc21c     ucrt:api-ms-win-crt-stdio-l1-1-0.dll
 0002:00000220       __imp__fgets               300bc220     ucrt:api-ms-win-crt-stdio-l1-1-0.dll
 0002:00000224       __imp__fwrite              300bc224     ucrt:api-ms-win-crt-stdio-l1-1-0.dll
 0002:00000228       __imp__fputs               300bc228     ucrt:api-ms-win-crt-stdio-l1-1-0.dll
 0002:0000022c       __imp__fopen               300bc22c     ucrt:api-ms-win-crt-stdio-l1-1-0.dll
 0002:00000230       __imp__fflush              300bc230     ucrt:api-ms-win-crt-stdio-l1-1-0.dll
 0002:00000234       __imp____acrt_iob_func     300bc234     ucrt:api-ms-win-crt-stdio-l1-1-0.dll
 0002:00000238       __imp____stdio_common_vsscanf 300bc238     ucrt:api-ms-win-crt-stdio-l1-1-0.dll
 0002:0000023c       __imp__fclose              300bc23c     ucrt:api-ms-win-crt-stdio-l1-1-0.dll
 0002:00000240       \177api-ms-win-crt-stdio-l1-1-0_NULL_THUNK_DATA 300bc240     ucrt:api-ms-win-crt-stdio-l1-1-0.dll
 0002:00000244       __imp__isspace             300bc244     ucrt:api-ms-win-crt-string-l1-1-0.dll
 0002:00000248       __imp__strdup              300bc248     ucrt:api-ms-win-crt-string-l1-1-0.dll
 0002:00000248       __imp___strdup             300bc248     ucrt:api-ms-win-crt-string-l1-1-0.dll
 0002:0000024c       __imp__stricmp             300bc24c     ucrt:api-ms-win-crt-string-l1-1-0.dll
 0002:0000024c       __imp___stricmp            300bc24c     ucrt:api-ms-win-crt-string-l1-1-0.dll
 0002:00000250       __imp__isalnum             300bc250     ucrt:api-ms-win-crt-string-l1-1-0.dll
 0002:00000254       __imp__isdigit             300bc254     ucrt:api-ms-win-crt-string-l1-1-0.dll
 0002:00000258       __imp__isalpha             300bc258     ucrt:api-ms-win-crt-string-l1-1-0.dll
 0002:0000025c       __imp__strncpy             300bc25c     ucrt:api-ms-win-crt-string-l1-1-0.dll
 0002:00000260       __imp__isxdigit            300bc260     ucrt:api-ms-win-crt-string-l1-1-0.dll
 0002:00000264       __imp__tolower             300bc264     ucrt:api-ms-win-crt-string-l1-1-0.dll
 0002:00000268       __imp__toupper             300bc268     ucrt:api-ms-win-crt-string-l1-1-0.dll
 0002:0000026c       __imp__strtok              300bc26c     ucrt:api-ms-win-crt-string-l1-1-0.dll
 0002:00000270       __imp__strncat             300bc270     ucrt:api-ms-win-crt-string-l1-1-0.dll
 0002:00000274       __imp__strnicmp            300bc274     ucrt:api-ms-win-crt-string-l1-1-0.dll
 0002:00000274       __imp___strnicmp           300bc274     ucrt:api-ms-win-crt-string-l1-1-0.dll
 0002:00000278       __imp__strncmp             300bc278     ucrt:api-ms-win-crt-string-l1-1-0.dll
 0002:0000027c       \177api-ms-win-crt-string-l1-1-0_NULL_THUNK_DATA 300bc27c     ucrt:api-ms-win-crt-string-l1-1-0.dll
 0002:00000280       __imp___gmtime64           300bc280     ucrt:api-ms-win-crt-time-l1-1-0.dll
 0002:00000284       __imp___time64             300bc284     ucrt:api-ms-win-crt-time-l1-1-0.dll
 0002:00000288       \177api-ms-win-crt-time-l1-1-0_NULL_THUNK_DATA 300bc288     ucrt:api-ms-win-crt-time-l1-1-0.dll
 0002:0000028c       __imp__rand                300bc28c     ucrt:api-ms-win-crt-utility-l1-1-0.dll
 0002:00000290       __imp__qsort               300bc290     ucrt:api-ms-win-crt-utility-l1-1-0.dll
 0002:00000294       \177api-ms-win-crt-utility-l1-1-0_NULL_THUNK_DATA 300bc294     ucrt:api-ms-win-crt-utility-l1-1-0.dll
 0002:00000298       ___guard_check_icall_fptr  300bc298     MSVCRT:guard_support.obj
 0002:0000029c       ___xc_a                    300bc29c     MSVCRT:initializers.obj
 0002:000002a0       ___xc_z                    300bc2a0     MSVCRT:initializers.obj
 0002:000002a4       ___xi_a                    300bc2a4     MSVCRT:initializers.obj
 0002:000002a8       ___xi_z                    300bc2a8     MSVCRT:initializers.obj
 0002:000002ac       ___xp_a                    300bc2ac     MSVCRT:initializers.obj
 0002:000002b0       ___xp_z                    300bc2b0     MSVCRT:initializers.obj
 0002:000002b4       ___xt_a                    300bc2b4     MSVCRT:initializers.obj
 0002:000002b8       ___xt_z                    300bc2b8     MSVCRT:initializers.obj
 0002:000002c0       ??_C@_07GKBJNHHK@RELAXED@  300bc2c0     bg_animation.obj
 0002:000002c8       ??_C@_05NBJHHBHJ@QUERY@    300bc2c8     bg_animation.obj
 0002:000002d0       ??_C@_05KBPPIFM@ALERT@     300bc2d0     bg_animation.obj
 0002:000002d8       ??_C@_06NHIPIEDF@COMBAT@   300bc2d8     bg_animation.obj
 0002:000002e0       ??_C@_0N@EDMDHGIH@?$CK?$CK?5UNUSED?5?$CK?$CK@ 300bc2e0     bg_animation.obj
 0002:000002f0       ??_C@_04IMMGDCFE@IDLE@     300bc2f0     bg_animation.obj
 0002:000002f8       ??_C@_06OMFBEJFJ@IDLECR@   300bc2f8     bg_animation.obj
 0002:00000300       ??_C@_04PKELMGAL@WALK@     300bc300     bg_animation.obj
 0002:00000308       ??_C@_06PBGAILGF@WALKBK@   300bc308     bg_animation.obj
 0002:00000310       ??_C@_06GLKCEIEK@WALKCR@   300bc310     bg_animation.obj
 0002:00000318       ??_C@_08BCACMKOP@WALKCRBK@ 300bc318     bg_animation.obj
 0002:00000324       ??_C@_03LLDCGJBK@RUN@      300bc324     bg_animation.obj
 0002:00000328       ??_C@_05OENAFHHF@RUNBK@    300bc328     bg_animation.obj
 0002:00000330       ??_C@_04CKCIANOF@SWIM@     300bc330     bg_animation.obj
 0002:00000338       ??_C@_06DNCLJOFM@SWIMBK@   300bc338     bg_animation.obj
 0002:00000340       ??_C@_0M@DIFJHICH@STRAFERIGHT@ 300bc340     bg_animation.obj
 0002:0000034c       ??_C@_0L@JPAPNHHO@STRAFELEFT@ 300bc34c     bg_animation.obj
 0002:00000358       ??_C@_09CFEAPIHF@TURNRIGHT@ 300bc358     bg_animation.obj
 0002:00000364       ??_C@_08DBJPOBGO@TURNLEFT@ 300bc364     bg_animation.obj
 0002:00000370       ??_C@_07NHIBBMHA@CLIMBUP@  300bc370     bg_animation.obj
 0002:00000378       ??_C@_09GJMNFBHN@CLIMBDOWN@ 300bc378     bg_animation.obj
 0002:00000384       ??_C@_06NFCGMGGG@FALLEN@   300bc384     bg_animation.obj
 0002:0000038c       ??_C@_05DEBNJJOB@PRONE@    300bc38c     bg_animation.obj
 0002:00000394       ??_C@_07KOCFBCDA@PRONEBK@  300bc394     bg_animation.obj
 0002:0000039c       ??_C@_09OPIFKDCJ@IDLEPRONE@ 300bc39c     bg_animation.obj
 0002:000003a8       ??_C@_08LOEELIOA@FLAILING@ 300bc3a8     bg_animation.obj
 0002:000003b4       ??_C@_04DDNHCMLF@PAIN@     300bc3b4     bg_animation.obj
 0002:000003bc       ??_C@_05DKFKLNCG@DEATH@    300bc3bc     bg_animation.obj
 0002:000003c4       ??_C@_0L@PHLGIOGH@FIREWEAPON@ 300bc3c4     bg_animation.obj
 0002:000003d0       ??_C@_0M@DOFBBGAE@FIREWEAPON2@ 300bc3d0     bg_animation.obj
 0002:000003dc       ??_C@_04BFLEPEFN@JUMP@     300bc3dc     bg_animation.obj
 0002:000003e4       ??_C@_06NFFGMPMI@JUMPBK@   300bc3e4     bg_animation.obj
 0002:000003ec       ??_C@_04GJGHKIDJ@LAND@     300bc3ec     bg_animation.obj
 0002:000003f4       ??_C@_0L@BJEANHNA@DROPWEAPON@ 300bc3f4     bg_animation.obj
 0002:00000400       ??_C@_0M@JOEDMLH@RAISEWEAPON@ 300bc400     bg_animation.obj
 0002:0000040c       ??_C@_0L@HNAMMBMD@CLIMBMOUNT@ 300bc40c     bg_animation.obj
 0002:00000418       ??_C@_0O@IIAGBLJB@CLIMBDISMOUNT@ 300bc418     bg_animation.obj
 0002:00000428       ??_C@_06DCHFNDBF@RELOAD@   300bc428     bg_animation.obj
 0002:00000430       ??_C@_0O@FKNNMOKO@PICKUPGRENADE@ 300bc430     bg_animation.obj
 0002:00000440       ??_C@_0M@LHOFMDOE@KICKGRENADE@ 300bc440     bg_animation.obj
 0002:0000044c       ??_C@_0BJ@MOMLKHCF@INFORM_FRIENDLY_OF_ENEMY@ 300bc44c     bg_animation.obj
 0002:00000468       ??_C@_04JBLDNDFK@KICK@     300bc468     bg_animation.obj
 0002:00000470       ??_C@_06DNDMIHFO@REVIVE@   300bc470     bg_animation.obj
 0002:00000478       ??_C@_0L@OBNJIFGJ@FIRSTSIGHT@ 300bc478     bg_animation.obj
 0002:00000484       ??_C@_04JNDFKIIP@ROLL@     300bc484     bg_animation.obj
 0002:0000048c       ??_C@_04PKFMKJJF@FLIP@     300bc48c     bg_animation.obj
 0002:00000494       ??_C@_04JHINAIJO@DIVE@     300bc494     bg_animation.obj
 0002:0000049c       ??_C@_0BA@ILLJBFHJ@PRONE_TO_CROUCH@ 300bc49c     bg_animation.obj
 0002:000004ac       ??_C@_0N@EBNKBFLB@BULLETIMPACT@ 300bc4ac     bg_animation.obj
 0002:000004bc       ??_C@_0N@ONHPFFMF@INSPECTSOUND@ 300bc4bc     bg_animation.obj
 0002:000004cc       ??_C@_0L@BIOOHIMC@SECONDLIFE@ 300bc4cc     bg_animation.obj
 0002:000004d8       ??_C@_0BD@DCLLNKHA@DO_ALT_WEAPON_MODE@ 300bc4d8     bg_animation.obj
 0002:000004ec       ??_C@_0BF@LHJBOFNN@UNDO_ALT_WEAPON_MODE@ 300bc4ec     bg_animation.obj
 0002:00000504       ??_C@_0BJ@IKEGMMLP@DO_ALT_WEAPON_MODE_PRONE@ 300bc504     bg_animation.obj
 0002:00000520       ??_C@_0BL@CEMEHHOJ@UNDO_ALT_WEAPON_MODE_PRONE@ 300bc520     bg_animation.obj
 0002:0000053c       ??_C@_0BA@MGJKFIDA@FIREWEAPONPRONE@ 300bc53c     bg_animation.obj
 0002:0000054c       ??_C@_0BB@NGGJDGME@FIREWEAPON2PRONE@ 300bc54c     bg_animation.obj
 0002:00000560       ??_C@_0BB@BNBDJHJF@RAISEWEAPONPRONE@ 300bc560     bg_animation.obj
 0002:00000574       ??_C@_0M@FJILDHPC@RELOADPRONE@ 300bc574     bg_animation.obj
 0002:00000580       ??_C@_04LNOLLMNL@TALK@     300bc580     bg_animation.obj
 0002:00000588       ??_C@_07GKKCHFFA@NOPOWER@  300bc588     bg_animation.obj
 0002:00000590       ??_C@_04OMFHIAHH@LEGS@     300bc590     bg_animation.obj
 0002:00000598       ??_C@_05HLJONPCP@TORSO@    300bc598     bg_animation.obj
 0002:000005a0       ??_C@_04ILIMAIMB@BOTH@     300bc5a0     bg_animation.obj
 0002:000005a8       ??_C@_06IOBMPBPK@BEHIND@   300bc5a8     bg_animation.obj
 0002:000005b0       ??_C@_07EEENPCFP@INFRONT@  300bc5b0     bg_animation.obj
 0002:000005b8       ??_C@_05PMAFOJDE@RIGHT@    300bc5b8     bg_animation.obj
 0002:000005c0       ??_C@_04KCNEHMIH@LEFT@     300bc5c0     bg_animation.obj
 0002:000005c8       ??_C@_04FBGPONKD@MG42@     300bc5c8     bg_animation.obj
 0002:000005d0       ??_C@_04BINJNOJD@HEAD@     300bc5d0     bg_animation.obj
 0002:000005d8       ??_C@_05LDJFJFKA@CHEST@    300bc5d8     bg_animation.obj
 0002:000005e0       ??_C@_03GMNIDEGM@GUT@      300bc5e0     bg_animation.obj
 0002:000005e4       ??_C@_05MMHFGEIM@GROIN@    300bc5e4     bg_animation.obj
 0002:000005ec       ??_C@_0P@FEKNECCB@SHOULDER_RIGHT@ 300bc5ec     bg_animation.obj
 0002:000005fc       ??_C@_0O@GNKADMCK@SHOULDER_LEFT@ 300bc5fc     bg_animation.obj
 0002:0000060c       ??_C@_0L@HDLPEDFM@KNEE_RIGHT@ 300bc60c     bg_animation.obj
 0002:00000618       ??_C@_09HNOAOLFL@KNEE_LEFT@ 300bc618     bg_animation.obj
 0002:00000624       ??_C@_04LNCGIOLI@NAZI@     300bc624     bg_animation.obj
 0002:0000062c       ??_C@_06GEKNHHBI@ALLIES@   300bc62c     bg_animation.obj
 0002:00000634       ??_C@_07GKFEMEDF@MONSTER@  300bc634     bg_animation.obj
 0002:0000063c       ??_C@_06MILLCFBF@SPARE1@   300bc63c     bg_animation.obj
 0002:00000644       ??_C@_06ODJGHGNG@SPARE2@   300bc644     bg_animation.obj
 0002:0000064c       ??_C@_06PKINEHJH@SPARE3@   300bc64c     bg_animation.obj
 0002:00000654       ??_C@_06LFMMNBFA@SPARE4@   300bc654     bg_animation.obj
 0002:0000065c       ??_C@_07GNLJHKAP@NEUTRAL@  300bc65c     bg_animation.obj
 0002:00000664       ??_C@_01HIHLOKLC@1@        300bc664     bg_animation.obj
 0002:00000668       ??_C@_01FDFGLJHB@2@        300bc668     bg_animation.obj
 0002:0000066c       ??_C@_01EKENIIDA@3@        300bc66c     bg_animation.obj
 0002:00000670       ??_C@_05FFMHFFBB@INAIR@    300bc670     bg_animation.obj
 0002:00000678       ??_C@_06JMHLHCNJ@VCRASH@   300bc678     bg_animation.obj
 0002:00000680       ??_C@_06KLJKJFEK@HCRASH@   300bc680     bg_animation.obj
 0002:00000688       ??_C@_07JBDFIAPG@ZOOMING@  300bc688     bg_animation.obj
 0002:00000690       ??_C@_07HPPHAKD@WEAPONS@   300bc690     bg_animation.obj
 0002:00000698       ??_C@_0P@JIMGNOCO@ENEMY_POSITION@ 300bc698     bg_animation.obj
 0002:000006a8       ??_C@_0N@BFJCEKBK@ENEMY_WEAPON@ 300bc6a8     bg_animation.obj
 0002:000006b8       ??_C@_0L@IFAAMPME@UNDERWATER@ 300bc6b8     bg_animation.obj
 0002:000006c4       ??_C@_07IHKNNAIJ@MOUNTED@  300bc6c4     bg_animation.obj
 0002:000006cc       ??_C@_08EDCCCEMB@MOVETYPE@ 300bc6cc     bg_animation.obj
 0002:000006d8       ??_C@_09KIADLDO@UNDERHAND@ 300bc6d8     bg_animation.obj
 0002:000006e4       ??_C@_07PCDLPMLE@LEANING@  300bc6e4     bg_animation.obj
 0002:000006ec       ??_C@_0N@BKJFJGHI@IMPACT_POINT@ 300bc6ec     bg_animation.obj
 0002:000006fc       ??_C@_09HGGDFBHO@CROUCHING@ 300bc6fc     bg_animation.obj
 0002:00000708       ??_C@_07LEOBIMFP@STUNNED@  300bc708     bg_animation.obj
 0002:00000710       ??_C@_06MOMMJHC@FIRING@    300bc710     bg_animation.obj
 0002:00000718       ??_C@_0P@GHDHBNEG@SHORT_REACTION@ 300bc718     bg_animation.obj
 0002:00000728       ??_C@_0L@ILMKFMCE@ENEMY_TEAM@ 300bc728     bg_animation.obj
 0002:00000734       ??_C@_09GCNACFAF@PARACHUTE@ 300bc734     bg_animation.obj
 0002:00000740       ??_C@_08GOFIDABM@CHARGING@ 300bc740     bg_animation.obj
 0002:0000074c       ??_C@_0N@KMEIFE@HEALTH_LEVEL@ 300bc74c     bg_animation.obj
 0002:0000075c       ??_C@_0O@JKDLABHB@FLAILING_TYPE@ 300bc75c     bg_animation.obj
 0002:0000076c       ??_C@_0M@KPHDKAHE@GEN_BITFLAG@ 300bc76c     bg_animation.obj
 0002:00000778       ??_C@_07CMODMDGJ@AISTATE@  300bc778     bg_animation.obj
 0002:00000780       ??_C@_07MMIKLHCA@defines@  300bc780     bg_animation.obj
 0002:00000788       ??_C@_0L@HNGMIHEN@animations@ 300bc788     bg_animation.obj
 0002:00000794       ??_C@_0BC@LGKLMCNI@canned_animations@ 300bc794     bg_animation.obj
 0002:000007a8       ??_C@_0N@EHJNOHAA@statechanges@ 300bc7a8     bg_animation.obj
 0002:000007b8       ??_C@_06LLKHDPKL@events@   300bc7b8     bg_animation.obj
 0002:000007c0       ??_C@_0BC@PIFFBBDC@?$CFs?3?5?$CI?$CFs?0?5line?5?$CFi?$CJ@ 300bc7c0     bg_animation.obj
 0002:000007d4       ??_C@_02DKCKIIND@?$CFs@    300bc7d4     bg_animation.obj
 0002:000007d8       ??_C@_0EI@KHABFLEN@BG_AnimationIndexForString?3?5unk@ 300bc7d8     bg_animation.obj
 0002:00000820       ??_C@_0EH@EMOEPACF@BG_AnimationForString?3?5unknown?5@ 300bc820     bg_animation.obj
 0002:00000868       ??_C@_0CG@HKIPDKP@BG_IndexForString?3?5unknown?5toke@ 300bc868     bg_animation.obj
 0002:00000890       ??_C@_0CN@DMHLIKB@BG_CopyStringIntoBuffer?3?5out?5of@ 300bc890     bg_animation.obj
 0002:000008c0       ??_C@_09GPGAJHPD@?$CIunknown?$CJ@ 300bc8c0     bg_animation.obj
 0002:000008cc       ??_C@_01IHBHIGKO@?0@       300bc8cc     bg_animation.obj
 0002:000008d0       ??_C@_04CGFJFPFD@none@     300bc8d0     bg_animation.obj
 0002:000008d8       ??_C@_05MLHFDCLP@none?0@   300bc8d8     bg_animation.obj
 0002:000008e0       ??_C@_03GBFNEA@NOT@        300bc8e0     bg_animation.obj
 0002:000008e4       ??_C@_05CIDCLABE@MINUS@    300bc8e4     bg_animation.obj
 0002:000008ec       ??_C@_03BDACDFHA@AND@      300bc8ec     bg_animation.obj
 0002:000008f0       ??_C@_01CLKCMJKC@?5@       300bc8f0     bg_animation.obj
 0002:000008f4       ??_C@_0DE@OMHOPKAI@BG_AnimParseAnimScript?3?5unexpec@ 300bc8f4     bg_animation.obj
 0002:00000928       ??_C@_0CI@BCJNBAAM@BG_AnimParseAnimScript?3?5unexpec@ 300bc928     bg_animation.obj
 0002:00000950       ??_C@_03NFKEKGGK@all@      300bc950     bg_animation.obj
 0002:00000954       ??_C@_07DLHCIBDH@default@  300bc954     bg_animation.obj
 0002:00000960       ??_C@_0EE@NMBANDPE@BG_AnimParseAnimScript?3?5expecte@ 300bc960     bg_animation.obj
 0002:000009a4       ??_C@_0CI@KLGMJPNH@BG_ParseConditions?3?5no?5conditio@ 300bc9a4     bg_animation.obj
 0002:000009cc       ??_C@_01CELHOKLL@?$HN@     300bc9cc     bg_animation.obj
 0002:000009d0       ??_C@_0DN@PHOKFKLF@BG_ParseCommands?3?5exceeded?5maxi@ 300bc9d0     bg_animation.obj
 0002:00000a10       ??_C@_0CF@IDKLLOPB@BG_ParseCommands?3?5expected?5anim@ 300bca10     bg_animation.obj
 0002:00000a38       ??_C@_08LGBPINEC@duration@ 300bca38     bg_animation.obj
 0002:00000a44       ??_C@_0CK@OFKPAMJN@BG_ParseCommands?3?5expected?5dura@ 300bca44     bg_animation.obj
 0002:00000a70       ??_C@_05MHNANJII@sound@    300bca70     bg_animation.obj
 0002:00000a78       ??_C@_0CB@KJJHKKAM@BG_ParseCommands?3?5expected?5soun@ 300bca78     bg_animation.obj
 0002:00000a9c       ??_C@_04IBLEHOMF@?4wav@    300bca9c     bg_animation.obj
 0002:00000aa4       ??_C@_0DO@BILKBJDJ@BG_ParseCommands?3?5wav?5files?5not@ 300bcaa4     bg_animation.obj
 0002:00000ae4       ??_C@_0CJ@NDJEIEDA@BG_ParseCommands?3?5unknown?5param@ 300bcae4     bg_animation.obj
 0002:00000b10       ??_C@_0BH@ECCOOEHL@BG_AnimParseAnimScript@ 300bcb10     bg_animation.obj
 0002:00000b28       ??_C@_0DD@MDBCOIMN@BG_AnimParseAnimScript?3?5unexpec@ 300bcb28     bg_animation.obj
 0002:00000b5c       ??_C@_03KCHOJKKI@set@      300bcb5c     bg_animation.obj
 0002:00000b60       ??_C@_0DH@PMLCNFHH@BG_AnimParseAnimScript?3?5expecte@ 300bcb60     bg_animation.obj
 0002:00000b98       ??_C@_0DJ@INDHDBJB@BG_AnimParseAnimScript?3?5expecte@ 300bcb98     bg_animation.obj
 0002:00000bd4       ??_C@_0DI@DOJNJINO@BG_AnimParseAnimScript?3?5expecte@ 300bcbd4     bg_animation.obj
 0002:00000c0c       ??_C@_01NEMOKFLO@?$DN@     300bcc0c     bg_animation.obj
 0002:00000c10       ??_C@_0DB@IIJMNBOP@BG_AnimParseAnimScript?3?5expecte@ 300bcc10     bg_animation.obj
 0002:00000c44       ??_C@_01HCONENDN@?$HL@     300bcc44     bg_animation.obj
 0002:00000c48       ??_C@_05HDBKIDE@state@     300bcc48     bg_animation.obj
 0002:00000c50       ??_C@_0CJ@GOMKHFCN@BG_AnimParseAnimScript?3?5expecte@ 300bcc50     bg_animation.obj
 0002:00000c7c       ??_C@_0CM@FKBIFPHE@BG_AnimParseAnimScript?3?5expecte@ 300bcc7c     bg_animation.obj
 0002:00000ca8       ??_C@_0CF@FDLDJDHC@BG_AnimParseAnimScript?3?5expecte@ 300bcca8     bg_animation.obj
 0002:00000cd0       ??_C@_0CH@FDBPNPON@BG_AnimParseAnimScript?3?5interna@ 300bccd0     bg_animation.obj
 0002:00000cf8       ??_C@_0DP@JNENAFJB@BG_AnimParseAnimScript?3?5exceede@ 300bccf8     bg_animation.obj
 0002:00000d38       ??_C@_0DL@CKDAIKPD@BG_AnimParseAnimScript?3?5exceede@ 300bcd38     bg_animation.obj
 0002:00000d74       ??_C@_0CN@JCKPMIAD@BG_GetAnimString?3?5anim?5index?5is@ 300bcd74     bg_animation.obj
 0002:00000da8       ??_C@_0EK@LAFIIABA@BG_GetConditionBitFlag?3?5animati@ 300bcda8     bg_animation.obj
 0002:00000df4       ??_C@_0CN@DLEGEFJG@BG_GetAnimationForIndex?3?5index?5@ 300bcdf4     bg_animation.obj
 0002:00000e24       __real@00000000            300bce24     bg_animation.obj
 0002:00000e28       ??_C@_0BK@OKFEFFGN@?$FO1ERROR?3?5?$CFs?0?5line?5?$CFd?3?5?$CFs?6@ 300bce28     bg_animgroup.obj
 0002:00000e44       ??_C@_0BN@HLFFIMPM@expected?5first?5frame?5integer@ 300bce44     bg_animgroup.obj
 0002:00000e64       ??_C@_0BI@ODMPOCFA@expected?5length?5integer@ 300bce64     bg_animgroup.obj
 0002:00000e7c       ??_C@_0BJ@PJOBADON@expected?5looping?5integer@ 300bce7c     bg_animgroup.obj
 0002:00000e98       ??_C@_0BF@IDODNCCM@expected?5fps?5integer@ 300bce98     bg_animgroup.obj
 0002:00000eb0       ??_C@_0BM@HDALPJFB@expected?5move?5speed?5integer@ 300bceb0     bg_animgroup.obj
 0002:00000ecc       ??_C@_0BM@BFEFIFBI@expected?5transition?5integer@ 300bcecc     bg_animgroup.obj
 0002:00000ee8       ??_C@_0BK@FLIAOMB@expected?5reversed?5integer@ 300bcee8     bg_animgroup.obj
 0002:00000f04       ??_C@_05MNHFFADL@climb@    300bcf04     bg_animgroup.obj
 0002:00000f0c       ??_C@_06IMHBHKA@firing@    300bcf0c     bg_animgroup.obj
 0002:00000f14       ??_C@_0BG@PFGCPLLN@expected?5mdx?5filename@ 300bcf14     bg_animgroup.obj
 0002:00000f2c       ??_C@_0BC@JLAEEEKF@failed?5to?5load?5?$CFs@ 300bcf2c     bg_animgroup.obj
 0002:00000f40       ??_C@_0N@HBKHDLKP@expected?5?8?$HL?8@ 300bcf40     bg_animgroup.obj
 0002:00000f50       ??_C@_0P@BFDGOIGG@unexpected?5EOF@ 300bcf50     bg_animgroup.obj
 0002:00000f60       ??_C@_0BP@JILEJOJD@out?5of?5animation?5storage?5space@ 300bcf60     bg_animgroup.obj
 0002:00000f80       ??_C@_09BLJHIMBB@animgroup@ 300bcf80     bg_animgroup.obj
 0002:00000f8c       ??_C@_0BF@ENDGGKLH@expected?5?8animgroup?8@ 300bcf8c     bg_animgroup.obj
 0002:00000fa4       ??_C@_08DENAEOEP@animfile@ 300bcfa4     bg_animgroup.obj
 0002:00000fb0       ??_C@_0BD@KLLJFPMA@unknown?5token?5?8?$CFs?8@ 300bcfb0     bg_animgroup.obj
 0002:00000fc4       __real@447a0000            300bcfc4     bg_animgroup.obj
 0002:00000fc8       ??_C@_0DC@BKHMNABP@?$FO1ERROR?3?5BG_LoadCampaignSave?3?5n@ 300bcfc8     bg_campaign.obj
 0002:00001000       ??_C@_0EF@ONHLMGCC@?$FO1WARNING?3?5BG_LoadCampaignSave?3@ 300bd000     bg_campaign.obj
 0002:00001048       ??_C@_0N@LBLHOIAH@characterDef@ 300bd048     bg_character.obj
 0002:00001058       ??_C@_0BI@BDKHJKHJ@expected?5?8characterDef?8@ 300bd058     bg_character.obj
 0002:00001070       ??_C@_04KPBEILIJ@mesh@     300bd070     bg_character.obj
 0002:00001078       ??_C@_0BH@FABHMNJK@expected?5mesh?5filename@ 300bd078     bg_character.obj
 0002:00001090       ??_C@_0P@GIEBGGMD@animationGroup@ 300bd090     bg_character.obj
 0002:000010a0       ??_C@_0CB@LKKCFNPJ@expected?5animationGroup?5filenam@ 300bd0a0     bg_character.obj
 0002:000010c4       ??_C@_0BA@JAPCLMGJ@animationScript@ 300bd0c4     bg_character.obj
 0002:000010d4       ??_C@_0CC@BJHLMGJK@expected?5animationScript?5filena@ 300bd0d4     bg_character.obj
 0002:000010f8       ??_C@_04NHPAFEHJ@skin@     300bd0f8     bg_character.obj
 0002:00001100       ??_C@_0BH@JECGHBI@expected?5skin?5filename@ 300bd100     bg_character.obj
 0002:00001118       ??_C@_0BF@CFGKJJGO@undressedCorpseModel@ 300bd118     bg_character.obj
 0002:00001130       ??_C@_0CH@JAPNHCPA@expected?5undressedCorpseModel?5f@ 300bd130     bg_character.obj
 0002:00001158       ??_C@_0BE@PKNBBHON@undressedCorpseSkin@ 300bd158     bg_character.obj
 0002:0000116c       ??_C@_0CG@MEMANCED@expected?5undressedCorpseSkin?5fi@ 300bd16c     bg_character.obj
 0002:00001194       ??_C@_07FJNIBNFB@hudhead@  300bd194     bg_character.obj
 0002:0000119c       ??_C@_0BK@EJMCICHM@expected?5hudhead?5filename@ 300bd19c     bg_character.obj
 0002:000011b8       ??_C@_0M@NCDEKCDI@hudheadskin@ 300bd1b8     bg_character.obj
 0002:000011c4       ??_C@_0N@KIHKDELA@hudheadanims@ 300bd1c4     bg_character.obj
 0002:000011d4       ??_C@_0BP@FLJCIJJ@expected?5hudheadanims?5filename@ 300bd1d4     bg_character.obj
 0002:000011f4       ??_C@_0CJ@LFACCDK@characters?1temperate?1allied?1sol@ 300bd1f4     bg_classes.obj
 0002:00001220       ??_C@_0BK@NKMHDHJD@ui?1assets?1mp_gun_blue?4tga@ 300bd220     bg_classes.obj
 0002:0000123c       ??_C@_0BM@POPLOCIC@ui?1assets?1mp_arrow_blue?4tga@ 300bd23c     bg_classes.obj
 0002:00001258       ??_C@_0CH@CDNAIOKM@characters?1temperate?1allied?1med@ 300bd258     bg_classes.obj
 0002:00001280       ??_C@_0BN@KMJIOJEH@ui?1assets?1mp_health_blue?4tga@ 300bd280     bg_classes.obj
 0002:000012a0       ??_C@_0CK@PFEHAPDK@characters?1temperate?1allied?1eng@ 300bd2a0     bg_classes.obj
 0002:000012cc       ??_C@_0BN@BKEGBOJF@ui?1assets?1mp_wrench_blue?4tga@ 300bd2cc     bg_classes.obj
 0002:000012ec       ??_C@_0CK@HJBJDAMI@characters?1temperate?1allied?1fie@ 300bd2ec     bg_classes.obj
 0002:00001318       ??_C@_0BL@FMPADFBA@ui?1assets?1mp_ammo_blue?4tga@ 300bd318     bg_classes.obj
 0002:00001334       ??_C@_0CH@DLEALHFC@characters?1temperate?1allied?1cvo@ 300bd334     bg_classes.obj
 0002:0000135c       ??_C@_0BK@LBBHFNIH@ui?1assets?1mp_spy_blue?4tga@ 300bd35c     bg_classes.obj
 0002:00001378       ??_C@_0CH@DNCBOENF@characters?1temperate?1axis?1soldi@ 300bd378     bg_classes.obj
 0002:000013a0       ??_C@_0BJ@HPDKILFC@ui?1assets?1mp_gun_red?4tga@ 300bd3a0     bg_classes.obj
 0002:000013bc       ??_C@_0BL@PHEMDMKB@ui?1assets?1mp_arrow_red?4tga@ 300bd3bc     bg_classes.obj
 0002:000013d8       ??_C@_0CF@KIKOKBGK@characters?1temperate?1axis?1medic@ 300bd3d8     bg_classes.obj
 0002:00001400       ??_C@_0BM@PMKFMPBC@ui?1assets?1mp_health_red?4tga@ 300bd400     bg_classes.obj
 0002:0000141c       ??_C@_0CI@MFMEIBBF@characters?1temperate?1axis?1engin@ 300bd41c     bg_classes.obj
 0002:00001444       ??_C@_0BM@EEHPCACN@ui?1assets?1mp_wrench_red?4tga@ 300bd444     bg_classes.obj
 0002:00001460       ??_C@_0CI@EJJKLOOH@characters?1temperate?1axis?1field@ 300bd460     bg_classes.obj
 0002:00001488       ??_C@_0BK@JLOKNMIC@ui?1assets?1mp_ammo_red?4tga@ 300bd488     bg_classes.obj
 0002:000014a4       ??_C@_0CF@LADOJIJE@characters?1temperate?1axis?1cvops@ 300bd4a4     bg_classes.obj
 0002:000014cc       ??_C@_0BJ@MEABGLAC@ui?1assets?1mp_spy_red?4tga@ 300bd4cc     bg_classes.obj
 0002:000014e8       ??_C@_04HABAAEPG@axis@     300bd4e8     bg_classes.obj
 0002:000014f0       ??_C@_06GAIGKJMK@allies@   300bd4f0     bg_classes.obj
 0002:000014f8       ??_C@_09FNMDCDOI@spectator@ 300bd4f8     bg_classes.obj
 0002:00001502       ??_C@_00CNPNBAHC@@         300bd502     bg_classes.obj
 0002:00001504       ??_C@_07DKDFFMCF@Soldier@  300bd504     bg_classes.obj
 0002:0000150c       ??_C@_05BBLLBHEM@Medic@    300bd50c     bg_classes.obj
 0002:00001514       ??_C@_08FAJHOPML@Engineer@ 300bd514     bg_classes.obj
 0002:00001520       ??_C@_08ICHGPCJC@Fieldops@ 300bd520     bg_classes.obj
 0002:0000152c       ??_C@_09CAINNBPP@Covertops@ 300bd52c     bg_classes.obj
 0002:00001538       ??_C@_07MDEDDOHD@soldier@  300bd538     bg_classes.obj
 0002:00001540       ??_C@_05BGBHBCHK@medic@    300bd540     bg_classes.obj
 0002:00001548       ??_C@_08NCGGGNGI@engineer@ 300bd548     bg_classes.obj
 0002:00001554       ??_C@_08IHHADB@fieldops@   300bd554     bg_classes.obj
 0002:00001560       ??_C@_09GPNANCCP@covertops@ 300bd560     bg_classes.obj
 0002:0000156c       ??_C@_05PMGCPEKK@Soldr@    300bd56c     bg_classes.obj
 0002:00001574       ??_C@_04CCKGJJDK@Engr@     300bd574     bg_classes.obj
 0002:0000157c       ??_C@_05GIBKGMKO@FdOps@    300bd57c     bg_classes.obj
 0002:00001584       ??_C@_05CCPHDJPP@CvOps@    300bd584     bg_classes.obj
 0002:0000158c       ??_C@_07FLGMFKPC@?$FO1ERROR@ 300bd58c     bg_classes.obj
 0002:00001594       ??_C@_09GKDMDHJJ@Field?5Ops@ 300bd594     bg_classes.obj
 0002:000015a0       ??_C@_0L@FJJNNBFP@Covert?5Ops@ 300bd5a0     bg_classes.obj
 0002:000015ac       ??_C@_01CPLAODJH@S@        300bd5ac     bg_classes.obj
 0002:000015b0       ??_C@_01PLPBNMEI@M@        300bd5b0     bg_classes.obj
 0002:000015b4       ??_C@_01DDCIFGEA@E@        300bd5b4     bg_classes.obj
 0002:000015b8       ??_C@_01BIAFAFID@F@        300bd5b8     bg_classes.obj
 0002:000015bc       ??_C@_01GFHCPBMG@C@        300bd5bc     bg_classes.obj
 0002:000015c0       ??_C@_03FNMOGMJF@?$FO1E@   300bd5c0     bg_classes.obj
 0002:000015d0       __xmm@00000003000000010000000200000005 300bd5d0     bg_classes.obj
 0002:000015e0       _aReinfSeeds               300bd5e0     bg_misc.obj
 0002:00001600       _aWeaponInfo               300bd600     bg_misc.obj
 0002:00001708       _voteToggles               300bd708     bg_misc.obj
 0002:000017d0       ??_C@_0N@IMBJBHCF@Battle?5Sense@ 300bd7d0     bg_misc.obj
 0002:000017e0       ??_C@_0M@EKMDDPG@Engineering@ 300bd7e0     bg_misc.obj
 0002:000017ec       ??_C@_09HIKJIKEN@First?5Aid@ 300bd7ec     bg_misc.obj
 0002:000017f8       ??_C@_07KKOMKDFM@Signals@  300bd7f8     bg_misc.obj
 0002:00001800       ??_C@_0O@JOOJOLAO@Light?5Weapons@ 300bd800     bg_misc.obj
 0002:00001810       ??_C@_0O@PLLMBMHD@Heavy?5Weapons@ 300bd810     bg_misc.obj
 0002:00001820       ??_C@_06MDOHEEEM@Battle@   300bd820     bg_misc.obj
 0002:00001828       ??_C@_05NPMMKAPN@First@    300bd828     bg_misc.obj
 0002:00001830       ??_C@_05JODGIKH@Light@     300bd830     bg_misc.obj
 0002:00001838       ??_C@_05NBPPGIFL@Heavy@    300bd838     bg_misc.obj
 0002:00001840       ??_C@_06IIJOOAHI@Covert@   300bd840     bg_misc.obj
 0002:00001848       ??_C@_05DBBFOD@Sense@      300bd848     bg_misc.obj
 0002:00001850       ??_C@_03LLIEEBLH@Aid@      300bd850     bg_misc.obj
 0002:00001854       ??_C@_07DNEKOHB@Weapons@   300bd854     bg_misc.obj
 0002:0000185c       ??_C@_03ENCPCKON@Ops@      300bd85c     bg_misc.obj
 0002:00001860       ??_C@_0BM@LPOLMAOL@Distinguished?5Service?5Medal@ 300bd860     bg_misc.obj
 0002:0000187c       ??_C@_0L@IADBKBPE@Steel?5Star@ 300bd87c     bg_misc.obj
 0002:00001888       ??_C@_0N@FMKLPOOF@Silver?5Cross@ 300bd888     bg_misc.obj
 0002:00001898       ??_C@_0O@BNDNDGAH@Signals?5Medal@ 300bd898     bg_misc.obj
 0002:000018a8       ??_C@_0P@EHPIKLII@Infantry?5Medal@ 300bd8a8     bg_misc.obj
 0002:000018b8       ??_C@_0BC@KBMCGIGN@Bombardment?5Medal@ 300bd8b8     bg_misc.obj
 0002:000018cc       ??_C@_0N@BEBPLGNB@Silver?5Snake@ 300bd8cc     bg_misc.obj
 0002:000018dc       ??_C@_0L@MHEKHPIN@Binoculars@ 300bd8dc     bg_misc.obj
 0002:000018e8       ??_C@_0BK@HJHBJIKL@Improved?5Physical?5Fitness@ 300bd8e8     bg_misc.obj
 0002:00001904       ??_C@_0BA@OJHDIFHK@Improved?5Health@ 300bd904     bg_misc.obj
 0002:00001914       ??_C@_0P@PEBBAIDE@Trap?5Awareness@ 300bd914     bg_misc.obj
 0002:00001924       ??_C@_0CF@GKHKMKNK@Improved?5use?5of?5Explosive?5Ammun@ 300bd924     bg_misc.obj
 0002:0000194c       ??_C@_0BD@PCJGFNGH@Improved?5Dexterity@ 300bd94c     bg_misc.obj
 0002:00001960       ??_C@_0CG@KJMDBKAI@Improved?5Construction?5and?5Destr@ 300bd960     bg_misc.obj
 0002:00001988       ??_C@_0O@EDEJJHC@a?5Flak?5Jacket@ 300bd988     bg_misc.obj
 0002:00001998       ??_C@_0L@MDAGJMIF@Medic?5Ammo@ 300bd998     bg_misc.obj
 0002:000019a4       ??_C@_0BD@GLPFLLJI@Improved?5Resources@ 300bd9a4     bg_misc.obj
 0002:000019b8       ??_C@_0M@MIMCGBLI@Full?5Revive@ 300bd9b8     bg_misc.obj
 0002:000019c4       ??_C@_0BA@DCINFALJ@Adrenaline?5Self@ 300bd9c4     bg_misc.obj
 0002:000019d4       ??_C@_0BB@JOANDJJH@Improved?5Signals@ 300bd9d4     bg_misc.obj
 0002:000019e8       ??_C@_0CA@KAJFEBK@Improved?5Air?5and?5Ground?5Support@ 300bd9e8     bg_misc.obj
 0002:00001a08       ??_C@_0BC@GKCBBFPG@Enemy?5Recognition@ 300bda08     bg_misc.obj
 0002:00001a1c       ??_C@_0CI@HNGIKKGA@Improved?5use?5of?5Light?5Weapon?5Am@ 300bda1c     bg_misc.obj
 0002:00001a44       ??_C@_0O@NCOIBJDK@Faster?5Reload@ 300bda44     bg_misc.obj
 0002:00001a54       ??_C@_0BP@LCMOPNOC@Improved?5Light?5Weapon?5Handling@ 300bda54     bg_misc.obj
 0002:00001a74       ??_C@_0BD@CFPKBIHE@Dual?9Wield?5Pistols@ 300bda74     bg_misc.obj
 0002:00001a88       ??_C@_0BO@PGNDKAKD@Improved?5Projectile?5Resources@ 300bda88     bg_misc.obj
 0002:00001aa8       ??_C@_0BJ@BDKFFPOC@Heavy?5Weapon?5Proficiency@ 300bdaa8     bg_misc.obj
 0002:00001ac4       ??_C@_0BJ@ENHBMGKM@Improved?5Weapon?5Handling@ 300bdac4     bg_misc.obj
 0002:00001ae0       ??_C@_0CJ@MCGLLGJI@Improved?5use?5of?5Scoped?5Weapon?5A@ 300bdae0     bg_misc.obj
 0002:00001b0c       ??_C@_0CK@OBFJMLOK@Improved?5use?5of?5Sabotage?5and?5Mi@ 300bdb0c     bg_misc.obj
 0002:00001b38       ??_C@_0P@EAPEPOOG@Breath?5Control@ 300bdb38     bg_misc.obj
 0002:00001b48       ??_C@_0BH@NIAGMDBH@Instant?5Backstab?5Kills@ 300bdb48     bg_misc.obj
 0002:00001b60       ??_C@_0M@DCIIGDOC@BOTH_DEATH1@ 300bdb60     bg_misc.obj
 0002:00001b6c       ??_C@_0L@ODAKGANJ@BOTH_DEAD1@ 300bdb6c     bg_misc.obj
 0002:00001b78       ??_C@_0BB@HDCMIMNH@BOTH_DEAD1_WATER@ 300bdb78     bg_misc.obj
 0002:00001b8c       ??_C@_0M@BJKFDACB@BOTH_DEATH2@ 300bdb8c     bg_misc.obj
 0002:00001b98       ??_C@_0L@MICHDDBK@BOTH_DEAD2@ 300bdb98     bg_misc.obj
 0002:00001ba4       ??_C@_0BB@PNKDILDE@BOTH_DEAD2_WATER@ 300bdba4     bg_misc.obj
 0002:00001bb8       ??_C@_0M@LOABGA@BOTH_DEATH3@ 300bdbb8     bg_misc.obj
 0002:00001bc4       ??_C@_0L@NBDMACFL@BOTH_DEAD3@ 300bdbc4     bg_misc.obj
 0002:00001bd0       ??_C@_0BB@DBAJILKK@BOTH_DEAD3_WATER@ 300bdbd0     bg_misc.obj
 0002:00001be4       ??_C@_0L@DNGIALEF@BOTH_CLIMB@ 300bdbe4     bg_misc.obj
 0002:00001bf0       ??_C@_0BA@PPOLNEGA@BOTH_CLIMB_DOWN@ 300bdbf0     bg_misc.obj
 0002:00001c00       ??_C@_0BE@BHDJPION@BOTH_CLIMB_DISMOUNT@ 300bdc00     bg_misc.obj
 0002:00001c14       ??_C@_0M@BFCDMGIG@BOTH_SALUTE@ 300bdc14     bg_misc.obj
 0002:00001c20       ??_C@_0L@EGOOCLKN@BOTH_PAIN1@ 300bdc20     bg_misc.obj
 0002:00001c2c       ??_C@_0L@GNMDHIGO@BOTH_PAIN2@ 300bdc2c     bg_misc.obj
 0002:00001c38       ??_C@_0L@HENIEJCP@BOTH_PAIN3@ 300bdc38     bg_misc.obj
 0002:00001c44       ??_C@_0L@DLJJNPOI@BOTH_PAIN4@ 300bdc44     bg_misc.obj
 0002:00001c50       ??_C@_0L@CCICOOKJ@BOTH_PAIN5@ 300bdc50     bg_misc.obj
 0002:00001c5c       ??_C@_0L@JKPLNGK@BOTH_PAIN6@ 300bdc5c     bg_misc.obj
 0002:00001c68       ??_C@_0L@BALEIMCL@BOTH_PAIN7@ 300bdc68     bg_misc.obj
 0002:00001c74       ??_C@_0L@JHCMJAOE@BOTH_PAIN8@ 300bdc74     bg_misc.obj
 0002:00001c80       ??_C@_0BC@BCFBBCOO@BOTH_GRAB_GRENADE@ 300bdc80     bg_misc.obj
 0002:00001c94       ??_C@_0N@HEFOHEMG@BOTH_ATTACK1@ 300bdc94     bg_misc.obj
 0002:00001ca4       ??_C@_0N@FPHDCHAF@BOTH_ATTACK2@ 300bdca4     bg_misc.obj
 0002:00001cb4       ??_C@_0N@EGGIBGEE@BOTH_ATTACK3@ 300bdcb4     bg_misc.obj
 0002:00001cc4       ??_C@_0N@JCJIAID@BOTH_ATTACK4@ 300bdcc4     bg_misc.obj
 0002:00001cd4       ??_C@_0N@BADCLBMC@BOTH_ATTACK5@ 300bdcd4     bg_misc.obj
 0002:00001ce4       ??_C@_0M@KJANAFLC@BOTH_EXTRA1@ 300bdce4     bg_misc.obj
 0002:00001cf0       ??_C@_0M@ICCAFGHB@BOTH_EXTRA2@ 300bdcf0     bg_misc.obj
 0002:00001cfc       ??_C@_0M@JLDLGHDA@BOTH_EXTRA3@ 300bdcfc     bg_misc.obj
 0002:00001d08       ??_C@_0M@NEHKPBPH@BOTH_EXTRA4@ 300bdd08     bg_misc.obj
 0002:00001d14       ??_C@_0M@MNGBMALG@BOTH_EXTRA5@ 300bdd14     bg_misc.obj
 0002:00001d20       ??_C@_0M@OGEMJDHF@BOTH_EXTRA6@ 300bdd20     bg_misc.obj
 0002:00001d2c       ??_C@_0M@PPFHKCDE@BOTH_EXTRA7@ 300bdd2c     bg_misc.obj
 0002:00001d38       ??_C@_0M@HIMPLOPL@BOTH_EXTRA8@ 300bdd38     bg_misc.obj
 0002:00001d44       ??_C@_0M@GBNEIPLK@BOTH_EXTRA9@ 300bdd44     bg_misc.obj
 0002:00001d50       ??_C@_0N@PKIAOJFG@BOTH_EXTRA10@ 300bdd50     bg_misc.obj
 0002:00001d60       ??_C@_0N@ODJLNIBH@BOTH_EXTRA11@ 300bdd60     bg_misc.obj
 0002:00001d70       ??_C@_0N@MILGILNE@BOTH_EXTRA12@ 300bdd70     bg_misc.obj
 0002:00001d80       ??_C@_0N@NBKNLKJF@BOTH_EXTRA13@ 300bdd80     bg_misc.obj
 0002:00001d90       ??_C@_0N@JOOMCMFC@BOTH_EXTRA14@ 300bdd90     bg_misc.obj
 0002:00001da0       ??_C@_0N@IHPHBNBD@BOTH_EXTRA15@ 300bdda0     bg_misc.obj
 0002:00001db0       ??_C@_0N@KMNKEONA@BOTH_EXTRA16@ 300bddb0     bg_misc.obj
 0002:00001dc0       ??_C@_0N@LFMBHPJB@BOTH_EXTRA17@ 300bddc0     bg_misc.obj
 0002:00001dd0       ??_C@_0N@DCFJGDFO@BOTH_EXTRA18@ 300bddd0     bg_misc.obj
 0002:00001de0       ??_C@_0N@CLECFCBP@BOTH_EXTRA19@ 300bdde0     bg_misc.obj
 0002:00001df0       ??_C@_0N@PIMGFHAP@BOTH_EXTRA20@ 300bddf0     bg_misc.obj
 0002:00001e00       ??_C@_0O@BFFPBHGK@TORSO_GESTURE@ 300bde00     bg_misc.obj
 0002:00001e10       ??_C@_0P@EAACIDCA@TORSO_GESTURE2@ 300bde10     bg_misc.obj
 0002:00001e20       ??_C@_0P@FJBJLCGB@TORSO_GESTURE3@ 300bde20     bg_misc.obj
 0002:00001e30       ??_C@_0P@BGFICEKG@TORSO_GESTURE4@ 300bde30     bg_misc.obj
 0002:00001e40       ??_C@_0L@PGDCDAPG@TORSO_DROP@ 300bde40     bg_misc.obj
 0002:00001e4c       ??_C@_0M@MMEDDAI@TORSO_RAISE@ 300bde4c     bg_misc.obj
 0002:00001e58       ??_C@_0N@HOJKHPCB@TORSO_ATTACK@ 300bde58     bg_misc.obj
 0002:00001e68       ??_C@_0M@KHMJNBNC@TORSO_STAND@ 300bde68     bg_misc.obj
 0002:00001e74       ??_C@_0BB@PGIENIKE@TORSO_STAND_ALT1@ 300bde74     bg_misc.obj
 0002:00001e88       ??_C@_0BB@NNKJILGH@TORSO_STAND_ALT2@ 300bde88     bg_misc.obj
 0002:00001e9c       ??_C@_0M@MDOOFFIP@TORSO_READY@ 300bde9c     bg_misc.obj
 0002:00001ea8       ??_C@_0M@COFEHOPI@TORSO_RELAX@ 300bdea8     bg_misc.obj
 0002:00001eb4       ??_C@_0N@ODKHBIHA@TORSO_RAISE2@ 300bdeb4     bg_misc.obj
 0002:00001ec4       ??_C@_0O@KBGHNOFA@TORSO_ATTACK2@ 300bdec4     bg_misc.obj
 0002:00001ed4       ??_C@_0N@IFAKCOFI@TORSO_STAND2@ 300bded4     bg_misc.obj
 0002:00001ee4       ??_C@_0BC@OHIMBIFP@TORSO_STAND2_ALT1@ 300bdee4     bg_misc.obj
 0002:00001ef8       ??_C@_0BC@MMKBELJM@TORSO_STAND2_ALT2@ 300bdef8     bg_misc.obj
 0002:00001f0c       ??_C@_0N@JALECEJF@TORSO_READY2@ 300bdf0c     bg_misc.obj
 0002:00001f1c       ??_C@_0N@FODIHKCB@TORSO_RELAX2@ 300bdf1c     bg_misc.obj
 0002:00001f2c       ??_C@_0N@PKLMCJDB@TORSO_RAISE3@ 300bdf2c     bg_misc.obj
 0002:00001f3c       ??_C@_0O@LIHMOPBB@TORSO_ATTACK3@ 300bdf3c     bg_misc.obj
 0002:00001f4c       ??_C@_0N@JMBBBPBJ@TORSO_STAND3@ 300bdf4c     bg_misc.obj
 0002:00001f5c       ??_C@_0BC@EBPLBDOL@TORSO_STAND3_ALT1@ 300bdf5c     bg_misc.obj
 0002:00001f70       ??_C@_0BC@GKNGEACI@TORSO_STAND3_ALT2@ 300bdf70     bg_misc.obj
 0002:00001f84       ??_C@_0N@IJKPBFNE@TORSO_READY3@ 300bdf84     bg_misc.obj
 0002:00001f94       ??_C@_0N@EHCDELGA@TORSO_RELAX3@ 300bdf94     bg_misc.obj
 0002:00001fa4       ??_C@_0N@LFPNLPPG@TORSO_RAISE4@ 300bdfa4     bg_misc.obj
 0002:00001fb4       ??_C@_0O@PHDNHJNG@TORSO_ATTACK4@ 300bdfb4     bg_misc.obj
 0002:00001fc4       ??_C@_0N@NDFAIJNO@TORSO_STAND4@ 300bdfc4     bg_misc.obj
 0002:00001fd4       ??_C@_0BC@IEFMCNGF@TORSO_STAND4_ALT1@ 300bdfd4     bg_misc.obj
 0002:00001fe8       ??_C@_0BC@KPHBHOKG@TORSO_STAND4_ALT2@ 300bdfe8     bg_misc.obj
 0002:00001ffc       ??_C@_0N@MGOOIDBD@TORSO_READY4@ 300bdffc     bg_misc.obj
 0002:0000200c       ??_C@_0N@IGCNNKH@TORSO_RELAX4@ 300be00c     bg_misc.obj
 0002:0000201c       ??_C@_0N@KMOGIOLH@TORSO_RAISE5@ 300be01c     bg_misc.obj
 0002:0000202c       ??_C@_0O@OOCGEIJH@TORSO_ATTACK5@ 300be02c     bg_misc.obj
 0002:0000203c       ??_C@_0P@KMMKANCI@TORSO_ATTACK5B@ 300be03c     bg_misc.obj
 0002:0000204c       ??_C@_0N@MKELLIJP@TORSO_STAND5@ 300be04c     bg_misc.obj
 0002:0000205c       ??_C@_0BC@CCCLCGNB@TORSO_STAND5_ALT1@ 300be05c     bg_misc.obj
 0002:00002070       ??_C@_0BC@JAGHFBC@TORSO_STAND5_ALT2@ 300be070     bg_misc.obj
 0002:00002084       ??_C@_0N@NPPFLCFC@TORSO_READY5@ 300be084     bg_misc.obj
 0002:00002094       ??_C@_0N@BBHJOMOG@TORSO_RELAX5@ 300be094     bg_misc.obj
 0002:000020a4       ??_C@_0O@EIDHJNAA@TORSO_RELOAD1@ 300be0a4     bg_misc.obj
 0002:000020b4       ??_C@_0O@GDBKMOMD@TORSO_RELOAD2@ 300be0b4     bg_misc.obj
 0002:000020c4       ??_C@_0O@HKABPPIC@TORSO_RELOAD3@ 300be0c4     bg_misc.obj
 0002:000020d4       ??_C@_0O@DFEAGJEF@TORSO_RELOAD4@ 300be0d4     bg_misc.obj
 0002:000020e4       ??_C@_0L@JDIKHLLO@TORSO_MG42@ 300be0e4     bg_misc.obj
 0002:000020f0       ??_C@_0L@HNBDKDCO@TORSO_MOVE@ 300be0f0     bg_misc.obj
 0002:000020fc       ??_C@_0P@OKDEPMJB@TORSO_MOVE_ALT@ 300be0fc     bg_misc.obj
 0002:0000210c       ??_C@_0M@LIDKNEKJ@TORSO_EXTRA@ 300be10c     bg_misc.obj
 0002:00002118       ??_C@_0N@ECMCHFOJ@TORSO_EXTRA2@ 300be118     bg_misc.obj
 0002:00002128       ??_C@_0N@FLNJEEKI@TORSO_EXTRA3@ 300be128     bg_misc.obj
 0002:00002138       ??_C@_0N@BEJINCGP@TORSO_EXTRA4@ 300be138     bg_misc.obj
 0002:00002148       ??_C@_0N@NIDODCO@TORSO_EXTRA5@ 300be148     bg_misc.obj
 0002:00002158       ??_C@_0N@CGKOLAON@TORSO_EXTRA6@ 300be158     bg_misc.obj
 0002:00002168       ??_C@_0N@DPLFIBKM@TORSO_EXTRA7@ 300be168     bg_misc.obj
 0002:00002178       ??_C@_0N@LICNJNGD@TORSO_EXTRA8@ 300be178     bg_misc.obj
 0002:00002188       ??_C@_0N@KBDGKMCC@TORSO_EXTRA9@ 300be188     bg_misc.obj
 0002:00002198       ??_C@_0O@EJEBAAD@TORSO_EXTRA10@ 300be198     bg_misc.obj
 0002:000021a8       ??_C@_0M@KENCJOIH@LEGS_WALKCR@ 300be1a8     bg_misc.obj
 0002:000021b4       ??_C@_0BB@IHCNEJKC@LEGS_WALKCR_BACK@ 300be1b4     bg_misc.obj
 0002:000021c8       ??_C@_09DNNHKPK@LEGS_WALK@ 300be1c8     bg_misc.obj
 0002:000021d4       ??_C@_08JEFBPHIG@LEGS_RUN@ 300be1d4     bg_misc.obj
 0002:000021e0       ??_C@_09KAIBCFDF@LEGS_BACK@ 300be1e0     bg_misc.obj
 0002:000021ec       ??_C@_09NDLOLBBE@LEGS_SWIM@ 300be1ec     bg_misc.obj
 0002:000021f8       ??_C@_0P@BNLINNOP@LEGS_SWIM_IDLE@ 300be1f8     bg_misc.obj
 0002:00002208       ??_C@_09OMCCEIKM@LEGS_JUMP@ 300be208     bg_misc.obj
 0002:00002214       ??_C@_0L@BNMDOAAM@LEGS_JUMPB@ 300be214     bg_misc.obj
 0002:00002220       ??_C@_09JAPBBEMI@LEGS_LAND@ 300be220     bg_misc.obj
 0002:0000222c       ??_C@_09HFFAIOKF@LEGS_IDLE@ 300be22c     bg_misc.obj
 0002:00002238       ??_C@_0O@DFHGIMOM@LEGS_IDLE_ALT@ 300be238     bg_misc.obj
 0002:00002248       ??_C@_0M@CDCBJPJE@LEGS_IDLECR@ 300be248     bg_misc.obj
 0002:00002254       ??_C@_09PAMJLKNN@LEGS_TURN@ 300be254     bg_misc.obj
 0002:00002260       ??_C@_09IEBOKFPM@LEGS_BOOT@ 300be260     bg_misc.obj
 0002:0000226c       ??_C@_0M@EAJPGIGP@LEGS_EXTRA1@ 300be26c     bg_misc.obj
 0002:00002278       ??_C@_0M@GLLCDLKM@LEGS_EXTRA2@ 300be278     bg_misc.obj
 0002:00002284       ??_C@_0M@HCKJAKON@LEGS_EXTRA3@ 300be284     bg_misc.obj
 0002:00002290       ??_C@_0M@DNOIJMCK@LEGS_EXTRA4@ 300be290     bg_misc.obj
 0002:0000229c       ??_C@_0M@CEPDKNGL@LEGS_EXTRA5@ 300be29c     bg_misc.obj
 0002:000022a8       ??_C@_0M@PNOPOKI@LEGS_EXTRA6@ 300be2a8     bg_misc.obj
 0002:000022b4       ??_C@_0M@BGMFMPOJ@LEGS_EXTRA7@ 300be2b4     bg_misc.obj
 0002:000022c0       ??_C@_0M@JBFNNDCG@LEGS_EXTRA8@ 300be2c0     bg_misc.obj
 0002:000022cc       ??_C@_0M@IIEGOCGH@LEGS_EXTRA9@ 300be2cc     bg_misc.obj
 0002:000022d8       ??_C@_0N@CALNFFC@LEGS_EXTRA10@ 300be2d8     bg_misc.obj
 0002:000022e8       ??_C@_0L@ELLJFDJI@LEGS_IDLE2@ 300be2e8     bg_misc.obj
 0002:000022f4       ??_C@_0O@OBFMKPEF@item_treasure@ 300be2f4     bg_misc.obj
 0002:00002304       ??_C@_0BP@LFHINHGL@sound?1pickup?1treasure?1gold?4wav@ 300be304     bg_misc.obj
 0002:00002324       ??_C@_0CF@BFCIKIAB@models?1powerups?1treasure?1goldba@ 300be324     bg_misc.obj
 0002:0000234c       ??_C@_0O@FDAMAANL@Treasure?5Item@ 300be34c     bg_misc.obj
 0002:0000235c       ??_C@_0BC@DOHAFEBI@item_health_small@ 300be35c     bg_misc.obj
 0002:00002370       ??_C@_0BJ@OLHMCLBI@sound?1items?1n_health?4wav@ 300be370     bg_misc.obj
 0002:0000238c       ??_C@_0CE@DMCFCMKO@models?1powerups?1health?1health_s@ 300be38c     bg_misc.obj
 0002:000023b0       ??_C@_0N@OPDFKAFG@Small?5Health@ 300be3b0     bg_misc.obj
 0002:000023c0       ??_C@_0M@KCNAKNNL@item_health@ 300be3c0     bg_misc.obj
 0002:000023cc       ??_C@_0BN@FIAHAEDN@sound?1misc?1health_pickup?4wav@ 300be3cc     bg_misc.obj
 0002:000023ec       ??_C@_0CO@LAKDKKND@models?1multiplayer?1medpack?1medp@ 300be3ec     bg_misc.obj
 0002:0000241c       ??_C@_0L@ECDAPFKD@Med?5Health@ 300be41c     bg_misc.obj
 0002:00002428       ??_C@_0BC@JGDLKFIO@item_health_large@ 300be428     bg_misc.obj
 0002:0000243c       ??_C@_0BE@LEDEOIPH@item_health_cabinet@ 300be43c     bg_misc.obj
 0002:00002450       ??_C@_06GGDALCBD@Health@   300be450     bg_misc.obj
 0002:00002458       ??_C@_0BD@HCMLHKKB@item_health_turkey@ 300be458     bg_misc.obj
 0002:0000246c       ??_C@_0BL@NGOPHJBM@sound?1items?1hot_pickup?4wav@ 300be46c     bg_misc.obj
 0002:00002488       ??_C@_0CF@LEHOLEBO@models?1powerups?1health?1health_t@ 300be488     bg_misc.obj
 0002:000024b0       ??_C@_0CF@HPCCGHLL@models?1powerups?1health?1health_t@ 300be4b0     bg_misc.obj
 0002:000024d8       ??_C@_0CF@PJLGBFBF@models?1powerups?1health?1health_t@ 300be4d8     bg_misc.obj
 0002:00002500       ??_C@_08EGDKBHCC@Hot?5Meal@ 300be500     bg_misc.obj
 0002:0000250c       ??_C@_0BJ@PIFLNDBE@item_health_breadandmeat@ 300be50c     bg_misc.obj
 0002:00002528       ??_C@_0BM@MFEDMPAO@sound?1items?1cold_pickup?4wav@ 300be528     bg_misc.obj
 0002:00002544       ??_C@_0CF@LAHABNOK@models?1powerups?1health?1health_b@ 300be544     bg_misc.obj
 0002:0000256c       ??_C@_0CF@HLCMMOEP@models?1powerups?1health?1health_b@ 300be56c     bg_misc.obj
 0002:00002594       ??_C@_0CF@PNLILMOB@models?1powerups?1health?1health_b@ 300be594     bg_misc.obj
 0002:000025bc       ??_C@_09DJPFKDBO@Cold?5Meal@ 300be5bc     bg_misc.obj
 0002:000025c8       ??_C@_0BB@ONKJGELP@item_health_wall@ 300be5c8     bg_misc.obj
 0002:000025dc       ??_C@_0CE@KHLEGOLI@models?1powerups?1health?1health_w@ 300be5dc     bg_misc.obj
 0002:00002600       ??_C@_0N@CFAHNHDH@weapon_knife@ 300be600     bg_misc.obj
 0002:00002610       ??_C@_0BG@BBKFHONL@sound?1misc?1w_pkup?4wav@ 300be610     bg_misc.obj
 0002:00002628       ??_C@_0CD@EKBJCGJD@models?1multiplayer?1knife?1knife?4@ 300be628     bg_misc.obj
 0002:0000264c       ??_C@_0CF@CCDIOFP@models?1multiplayer?1knife?1v_knif@ 300be64c     bg_misc.obj
 0002:00002674       ??_C@_0BE@FELCPKJK@icons?1iconw_knife_1@ 300be674     bg_misc.obj
 0002:00002688       ??_C@_0M@JCDNNNEM@icons?1ammo2@ 300be688     bg_misc.obj
 0002:00002694       ??_C@_05BPFOPNCG@Knife@    300be694     bg_misc.obj
 0002:0000269c       ??_C@_0N@MICIAMOA@weapon_luger@ 300be69c     bg_misc.obj
 0002:000026ac       ??_C@_0CA@JCGGEPBC@models?1weapons2?1luger?1luger?4md3@ 300be6ac     bg_misc.obj
 0002:000026cc       ??_C@_0CC@EKFIEFML@models?1weapons2?1luger?1v_luger?4m@ 300be6cc     bg_misc.obj
 0002:000026f0       ??_C@_05PCHBCGPB@Luger@    300be6f0     bg_misc.obj
 0002:000026f8       ??_C@_0BD@FEBFLKJO@weapon_akimboluger@ 300be6f8     bg_misc.obj
 0002:0000270c       ??_C@_0DA@JAPIIIBB@models?1weapons2?1akimbo_luger?1v_@ 300be70c     bg_misc.obj
 0002:0000273c       ??_C@_0BD@CFLCBIAF@icons?1iconw_colt_1@ 300be73c     bg_misc.obj
 0002:00002750       ??_C@_0N@MOHPEECM@Akimbo?5Luger@ 300be750     bg_misc.obj
 0002:00002760       ??_C@_0BL@ELOABIAO@weapon_akimbosilencedluger@ 300be760     bg_misc.obj
 0002:0000277c       ??_C@_0BG@NLHBJBKD@Silenced?5Akimbo?5Luger@ 300be77c     bg_misc.obj
 0002:00002794       ??_C@_0BA@KEEHKJCB@weapon_thompson@ 300be794     bg_misc.obj
 0002:000027a4       ??_C@_0CG@LDIIPHD@models?1weapons2?1thompson?1thomps@ 300be7a4     bg_misc.obj
 0002:000027cc       ??_C@_0CI@KCIHJEOK@models?1weapons2?1thompson?1v_thom@ 300be7cc     bg_misc.obj
 0002:000027f4       ??_C@_0BH@JNDHCKPC@icons?1iconw_thompson_1@ 300be7f4     bg_misc.obj
 0002:0000280c       ??_C@_08MEHPEFCE@Thompson@ 300be80c     bg_misc.obj
 0002:00002818       ??_C@_0N@KGCBOGJK@weapon_dummy@ 300be818     bg_misc.obj
 0002:00002828       ??_C@_05NLIPEJCP@BLANK@    300be828     bg_misc.obj
 0002:00002830       ??_C@_0M@PLCKBKLB@weapon_sten@ 300be830     bg_misc.obj
 0002:0000283c       ??_C@_0BO@OLCNBIBF@models?1weapons2?1sten?1sten?4md3@ 300be83c     bg_misc.obj
 0002:0000285c       ??_C@_0CA@JCCOLKIK@models?1weapons2?1sten?1v_sten?4md3@ 300be85c     bg_misc.obj
 0002:0000287c       ??_C@_0BD@BJMJKDBJ@icons?1iconw_sten_1@ 300be87c     bg_misc.obj
 0002:00002890       ??_C@_04BHFBMFNA@Sten@     300be890     bg_misc.obj
 0002:00002898       ??_C@_0M@KDCOJMPJ@weapon_colt@ 300be898     bg_misc.obj
 0002:000028a4       ??_C@_0BO@LFGFJAPM@models?1weapons2?1colt?1colt?4md3@ 300be8a4     bg_misc.obj
 0002:000028c4       ??_C@_0CA@HEFFIJDL@models?1weapons2?1colt?1v_colt?4md3@ 300be8c4     bg_misc.obj
 0002:000028e4       ??_C@_04EPFFEDJI@Colt@     300be8e4     bg_misc.obj
 0002:000028ec       ??_C@_0BC@JHJOELDN@weapon_akimbocolt@ 300be8ec     bg_misc.obj
 0002:00002900       ??_C@_0CO@LNDDIOPH@models?1weapons2?1akimbo_colt?1v_a@ 300be900     bg_misc.obj
 0002:00002930       ??_C@_0M@ECNDEPLM@Akimbo?5Colt@ 300be930     bg_misc.obj
 0002:0000293c       ??_C@_0BK@LILPLFOO@weapon_akimbosilencedcolt@ 300be93c     bg_misc.obj
 0002:00002958       ??_C@_0BF@JGCLIJOB@Silenced?5Akimbo?5Colt@ 300be958     bg_misc.obj
 0002:00002970       ??_C@_0M@OCNOJAFI@weapon_mp40@ 300be970     bg_misc.obj
 0002:0000297c       ??_C@_0BO@FIMFOHLD@models?1weapons2?1mp40?1mp40?4md3@ 300be97c     bg_misc.obj
 0002:0000299c       ??_C@_0CA@MEPBBKGL@models?1weapons2?1mp40?1v_mp40?4md3@ 300be99c     bg_misc.obj
 0002:000029bc       ??_C@_0BD@JLBIJIHG@icons?1iconw_mp40_1@ 300be9bc     bg_misc.obj
 0002:000029d0       ??_C@_04KOJHOAAH@MP40@     300be9d0     bg_misc.obj
 0002:000029d8       ??_C@_0BD@IHKMHGCL@weapon_panzerfaust@ 300be9d8     bg_misc.obj
 0002:000029ec       ??_C@_0CD@KLGINFIC@models?1weapons2?1panzerfaust?1pf?4@ 300be9ec     bg_misc.obj
 0002:00002a10       ??_C@_0CF@INJNBKLK@models?1weapons2?1panzerfaust?1v_p@ 300bea10     bg_misc.obj
 0002:00002a38       ??_C@_0BK@BNNIJHHA@icons?1iconw_panzerfaust_1@ 300bea38     bg_misc.obj
 0002:00002a54       ??_C@_0M@PGFBBIEI@icons?1ammo6@ 300bea54     bg_misc.obj
 0002:00002a60       ??_C@_0M@FLKOLANO@Panzerfaust@ 300bea60     bg_misc.obj
 0002:00002a6c       ??_C@_0BH@DGCCJPLM@weapon_grenadelauncher@ 300bea6c     bg_misc.obj
 0002:00002a84       ??_C@_0CE@DPFMPDPO@models?1weapons2?1grenade?1grenade@ 300bea84     bg_misc.obj
 0002:00002aa8       ??_C@_0CG@HPDANMDK@models?1weapons2?1grenade?1v_grena@ 300beaa8     bg_misc.obj
 0002:00002ad0       ??_C@_0BG@EKPMBKKI@icons?1iconw_grenade_1@ 300bead0     bg_misc.obj
 0002:00002ae8       ??_C@_0BE@LHOKGGAM@icons?1icona_grenade@ 300beae8     bg_misc.obj
 0002:00002afc       ??_C@_07GIIHBBNN@Grenade@  300beafc     bg_misc.obj
 0002:00002b04       ??_C@_0BI@BDNAKMLM@weapon_grenadepineapple@ 300beb04     bg_misc.obj
 0002:00002b1c       ??_C@_0CG@NEBNAIOM@models?1weapons2?1grenade?1pineapp@ 300beb1c     bg_misc.obj
 0002:00002b44       ??_C@_0CI@NAFKGHJD@models?1weapons2?1grenade?1v_pinea@ 300beb44     bg_misc.obj
 0002:00002b6c       ??_C@_0BI@NHIHLINI@icons?1iconw_pineapple_1@ 300beb6c     bg_misc.obj
 0002:00002b84       ??_C@_0BG@BHAOAJFD@icons?1icona_pineapple@ 300beb84     bg_misc.obj
 0002:00002b9c       ??_C@_09EBEMMGPP@Pineapple@ 300beb9c     bg_misc.obj
 0002:00002ba8       ??_C@_0BE@MOMMPDAI@weapon_grenadesmoke@ 300beba8     bg_misc.obj
 0002:00002bbc       ??_C@_0DB@IBDPDLGI@models?1multiplayer?1smokegrenade@ 300bebbc     bg_misc.obj
 0002:00002bf0       ??_C@_0DD@NPJGCFLG@models?1multiplayer?1smokegrenade@ 300bebf0     bg_misc.obj
 0002:00002c24       ??_C@_0BL@MFPPHILJ@icons?1iconw_smokegrenade_1@ 300bec24     bg_misc.obj
 0002:00002c40       ??_C@_0N@EPMNKMAI@smokeGrenade@ 300bec40     bg_misc.obj
 0002:00002c50       ??_C@_0BC@EMFGGJBI@weapon_smoketrail@ 300bec50     bg_misc.obj
 0002:00002c64       ??_C@_0L@BJKNNJNH@smokeTrail@ 300bec64     bg_misc.obj
 0002:00002c70       ??_C@_0BC@MGOLNGIC@weapon_medic_heal@ 300bec70     bg_misc.obj
 0002:00002c84       ??_C@_0CH@HJGJPBFB@models?1multiplayer?1medpack?1medp@ 300bec84     bg_misc.obj
 0002:00002cac       ??_C@_0CJ@KMLLGJEP@models?1multiplayer?1medpack?1v_me@ 300becac     bg_misc.obj
 0002:00002cd8       ??_C@_0BG@BEHMBCJB@icons?1iconw_medheal_1@ 300becd8     bg_misc.obj
 0002:00002cf0       ??_C@_09MPJALICA@medicheal@ 300becf0     bg_misc.obj
 0002:00002cfc       ??_C@_0BA@DNHAGALI@weapon_dynamite@ 300becfc     bg_misc.obj
 0002:00002d0c       ??_C@_0CN@CCNMCHIK@models?1multiplayer?1dynamite?1dyn@ 300bed0c     bg_misc.obj
 0002:00002d3c       ??_C@_0CI@HOBCNAON@models?1weapons2?1dynamite?1v_dyna@ 300bed3c     bg_misc.obj
 0002:00002d64       ??_C@_0BH@NPAMPIIC@icons?1iconw_dynamite_1@ 300bed64     bg_misc.obj
 0002:00002d7c       ??_C@_0M@HBMJAEIH@icons?1ammo9@ 300bed7c     bg_misc.obj
 0002:00002d88       ??_C@_0BA@EJJBCBOH@Dynamite?5Weapon@ 300bed88     bg_misc.obj
 0002:00002d98       ??_C@_0FG@MBAOLFAN@models?1multiplayer?1dynamite?1dyn@ 300bed98     bg_misc.obj
 0002:00002df0       ??_C@_0BE@MGDBILCA@weapon_flamethrower@ 300bedf0     bg_misc.obj
 0002:00002e04       ??_C@_0CO@NOBDPJNE@models?1weapons2?1flamethrower?1fl@ 300bee04     bg_misc.obj
 0002:00002e34       ??_C@_0DA@OLBDONLO@models?1weapons2?1flamethrower?1v_@ 300bee34     bg_misc.obj
 0002:00002e64       ??_C@_0DB@MEFGGOBE@models?1weapons2?1flamethrower?1pu@ 300bee64     bg_misc.obj
 0002:00002e98       ??_C@_0BL@DKJBHHMJ@icons?1iconw_flamethrower_1@ 300bee98     bg_misc.obj
 0002:00002eb4       ??_C@_0N@KCPILIMM@icons?1ammo10@ 300beeb4     bg_misc.obj
 0002:00002ec4       ??_C@_0N@LDKIPHF@Flamethrower@ 300beec4     bg_misc.obj
 0002:00002ed4       ??_C@_0BB@MAODHNCA@weapon_mapmortar@ 300beed4     bg_misc.obj
 0002:00002ee8       ??_C@_0BH@EDEGFHBE@nopickup?$CIWP_MAPMORTAR?$CJ@ 300beee8     bg_misc.obj
 0002:00002f00       ??_C@_0CC@LNNNJOLG@sound?1weapons?1mortar?1mortarf1?4w@ 300bef00     bg_misc.obj
 0002:00002f24       ??_C@_0BF@HGNENFHI@weapon_class_special@ 300bef24     bg_misc.obj
 0002:00002f3c       ??_C@_0CF@KHODGCJJ@models?1multiplayer?1pliers?1plier@ 300bef3c     bg_misc.obj
 0002:00002f64       ??_C@_0CH@CCAPEGPE@models?1multiplayer?1pliers?1v_pli@ 300bef64     bg_misc.obj
 0002:00002f8c       ??_C@_0BF@EGJKNLFD@icons?1iconw_pliers_1@ 300bef8c     bg_misc.obj
 0002:00002fa4       ??_C@_07ONMEKKNJ@Special@  300befa4     bg_misc.obj
 0002:00002fac       ??_C@_0M@NMAGMMFO@weapon_arty@ 300befac     bg_misc.obj
 0002:00002fb8       ??_C@_0CH@JGJKKKDO@models?1multiplayer?1syringe?1syri@ 300befb8     bg_misc.obj
 0002:00002fe0       ??_C@_0CJ@MCHDJPCA@models?1multiplayer?1syringe?1v_sy@ 300befe0     bg_misc.obj
 0002:0000300c       ??_C@_0BG@ODMDGLFO@icons?1iconw_syringe_1@ 300bf00c     bg_misc.obj
 0002:00003024       ??_C@_09DOIKKMF@Artillery@ 300bf024     bg_misc.obj
 0002:00003030       ??_C@_0BF@EAONHALE@weapon_medic_syringe@ 300bf030     bg_misc.obj
 0002:00003048       ??_C@_07GEKHDKMK@Syringe@  300bf048     bg_misc.obj
 0002:00003050       ??_C@_0BJ@DHEFHCDN@sound?1misc?1vo_revive?4wav@ 300bf050     bg_misc.obj
 0002:0000306c       ??_C@_0BI@IHBCJDIP@weapon_medic_adrenaline@ 300bf06c     bg_misc.obj
 0002:00003084       ??_C@_0BD@HGCEKHJD@Adrenaline?5Syringe@ 300bf084     bg_misc.obj
 0002:00003098       ??_C@_0BB@MJDHMBEF@weapon_magicammo@ 300bf098     bg_misc.obj
 0002:000030ac       ??_C@_0CJ@NEHCKBJG@models?1multiplayer?1ammopack?1amm@ 300bf0ac     bg_misc.obj
 0002:000030d8       ??_C@_0CL@GLBHEPKK@models?1multiplayer?1ammopack?1v_a@ 300bf0d8     bg_misc.obj
 0002:00003104       ??_C@_0DA@BNKGGEGK@models?1multiplayer?1ammopack?1amm@ 300bf104     bg_misc.obj
 0002:00003134       ??_C@_0BH@HEFMBIGH@icons?1iconw_ammopack_1@ 300bf134     bg_misc.obj
 0002:0000314c       ??_C@_09IGIMIJAM@Ammo?5Pack@ 300bf14c     bg_misc.obj
 0002:00003158       ??_C@_0BC@OLAPNGKP@weapon_magicammo2@ 300bf158     bg_misc.obj
 0002:0000316c       ??_C@_0CH@IJHLDMOA@models?1multiplayer?1binocs?1v_bin@ 300bf16c     bg_misc.obj
 0002:00003194       ??_C@_0P@MKLFHJBO@Mega?5Ammo?5Pack@ 300bf194     bg_misc.obj
 0002:000031a4       ??_C@_0BC@BDIBEFKD@weapon_binoculars@ 300bf1a4     bg_misc.obj
 0002:000031b8       ??_C@_0N@KDJGJAHE@weapon_kar43@ 300bf1b8     bg_misc.obj
 0002:000031c8       ??_C@_0CH@POCOCE@models?1multiplayer?1kar98?1kar98_@ 300bf1c8     bg_misc.obj
 0002:000031f0       ??_C@_0CF@KJFIFEBL@models?1multiplayer?1kar98?1v_kar9@ 300bf1f0     bg_misc.obj
 0002:00003218       ??_C@_0CM@FCENNCEI@models?1multiplayer?1mauser?1mause@ 300bf218     bg_misc.obj
 0002:00003244       ??_C@_0BF@JPJNFAGP@icons?1iconw_mauser_1@ 300bf244     bg_misc.obj
 0002:0000325c       ??_C@_0M@ILCGOMAN@icons?1ammo3@ 300bf25c     bg_misc.obj
 0002:00003268       ??_C@_09FPGDCOLL@K43?5Rifle@ 300bf268     bg_misc.obj
 0002:00003274       ??_C@_0BD@KLCHMOMN@weapon_kar43_scope@ 300bf274     bg_misc.obj
 0002:00003288       ??_C@_0BA@PEIEBNAM@K43?5Rifle?5Scope@ 300bf288     bg_misc.obj
 0002:00003298       ??_C@_0BC@MGMKHEFB@weapon_kar98Rifle@ 300bf298     bg_misc.obj
 0002:000032ac       ??_C@_0BE@EIMPPHEO@icons?1iconw_kar98_1@ 300bf2ac     bg_misc.obj
 0002:000032c0       ??_C@_03EFKHNHKD@K43@      300bf2c0     bg_misc.obj
 0002:000032c4       ??_C@_0N@MFDOBKFD@weapon_gpg40@ 300bf2c4     bg_misc.obj
 0002:000032d4       ??_C@_05JOJELAHI@GPG40@    300bf2d4     bg_misc.obj
 0002:000032dc       ??_C@_0BE@GEGCCGLD@weapon_gpg40_allied@ 300bf2dc     bg_misc.obj
 0002:000032f0       ??_C@_0CP@GBEAIANM@models?1multiplayer?1m1_garand?1m1@ 300bf2f0     bg_misc.obj
 0002:00003320       ??_C@_0CN@JHAAHIHP@models?1multiplayer?1m1_garand?1v_@ 300bf320     bg_misc.obj
 0002:00003350       ??_C@_0BI@LDODFNDJ@icons?1iconw_m1_garand_1@ 300bf350     bg_misc.obj
 0002:00003368       ??_C@_06LHCCBDPK@GPG40A@   300bf368     bg_misc.obj
 0002:00003370       ??_C@_0BG@NOMJHDMG@weapon_M1CarbineRifle@ 300bf370     bg_misc.obj
 0002:00003388       ??_C@_09LGFJFBBG@M1?5Garand@ 300bf388     bg_misc.obj
 0002:00003394       ??_C@_0BD@BMNLELGG@weapon_garandRifle@ 300bf394     bg_misc.obj
 0002:000033a8       ??_C@_06GDMHNMMJ@Garand@   300bf3a8     bg_misc.obj
 0002:000033b0       ??_C@_0BI@EGHKLNHO@weapon_garandRifleScope@ 300bf3b0     bg_misc.obj
 0002:000033c8       ??_C@_0BA@BDCBJLMI@M1?5Garand?5Scope@ 300bf3c8     bg_misc.obj
 0002:000033d8       ??_C@_0M@GKPGKMON@weapon_fg42@ 300bf3d8     bg_misc.obj
 0002:000033e4       ??_C@_0BO@DPAGMCPJ@models?1weapons2?1fg42?1fg42?4md3@ 300bf3e4     bg_misc.obj
 0002:00003404       ??_C@_0CA@JIPGBDCM@models?1weapons2?1fg42?1v_fg42?4md3@ 300bf404     bg_misc.obj
 0002:00003424       ??_C@_0CB@JHNGGBL@models?1weapons2?1fg42?1pu_fg42?4md@ 300bf424     bg_misc.obj
 0002:00003448       ??_C@_0BD@CNMFDGCE@icons?1iconw_fg42_1@ 300bf448     bg_misc.obj
 0002:0000345c       ??_C@_0M@NNHMELIL@icons?1ammo5@ 300bf45c     bg_misc.obj
 0002:00003468       ??_C@_0BF@NEOIPKLD@FG42?5Paratroop?5Rifle@ 300bf468     bg_misc.obj
 0002:00003480       ??_C@_0BB@IFLIELIJ@weapon_fg42scope@ 300bf480     bg_misc.obj
 0002:00003494       ??_C@_0L@NGNNBKAH@FG42?5Scope@ 300bf494     bg_misc.obj
 0002:000034a0       ??_C@_0O@OHDEMOGI@weapon_mortar@ 300bf4a0     bg_misc.obj
 0002:000034b0       ??_C@_0CJ@KFBPFJHI@models?1multiplayer?1mortar?1morta@ 300bf4b0     bg_misc.obj
 0002:000034dc       ??_C@_0CH@GPOCMLDJ@models?1multiplayer?1mortar?1v_mor@ 300bf4dc     bg_misc.obj
 0002:00003504       ??_C@_0BF@KHDFOKKL@icons?1iconw_mortar_1@ 300bf504     bg_misc.obj
 0002:0000351c       ??_C@_06INLOLHLA@Mortar@   300bf51c     bg_misc.obj
 0002:00003524       ??_C@_0BC@CGGBACNL@weapon_mortar_set@ 300bf524     bg_misc.obj
 0002:00003538       ??_C@_0P@MMMJHFLN@Mounted?5Mortar@ 300bf538     bg_misc.obj
 0002:00003548       ??_C@_0BA@GIIKFPCL@weapon_landmine@ 300bf548     bg_misc.obj
 0002:00003558       ??_C@_0CJ@DNFPCDBG@models?1multiplayer?1landmine?1lan@ 300bf558     bg_misc.obj
 0002:00003584       ??_C@_0CL@CNGCMFFG@models?1multiplayer?1landmine?1v_l@ 300bf584     bg_misc.obj
 0002:000035b0       ??_C@_0BH@DDAGFJJM@icons?1iconw_landmine_1@ 300bf5b0     bg_misc.obj
 0002:000035c8       ??_C@_08ILCLDCO@Landmine@  300bf5c8     bg_misc.obj
 0002:000035d4       ??_C@_0P@NDDAPDLL@weapon_satchel@ 300bf5d4     bg_misc.obj
 0002:000035e4       ??_C@_0CH@BPJCFOGJ@models?1multiplayer?1satchel?1satc@ 300bf5e4     bg_misc.obj
 0002:0000360c       ??_C@_0CJ@KIJCLGLG@models?1multiplayer?1satchel?1v_sa@ 300bf60c     bg_misc.obj
 0002:00003638       ??_C@_0BG@EHFFCCAJ@icons?1iconw_satchel_1@ 300bf638     bg_misc.obj
 0002:00003650       ??_C@_0P@LMFBIKDH@Satchel?5Charge@ 300bf650     bg_misc.obj
 0002:00003660       ??_C@_0BI@HPCONGBI@weapon_satchelDetonator@ 300bf660     bg_misc.obj
 0002:00003678       ??_C@_0CF@MBEIHOMH@models?1multiplayer?1satchel?1radi@ 300bf678     bg_misc.obj
 0002:000036a0       ??_C@_0BE@JAHNMEBI@icons?1iconw_radio_1@ 300bf6a0     bg_misc.obj
 0002:000036b4       ??_C@_0BJ@HJKDBKOJ@Satchel?5Charge?5Detonator@ 300bf6b4     bg_misc.obj
 0002:000036d0       ??_C@_0BB@NMEAKGJN@weapon_smokebomb@ 300bf6d0     bg_misc.obj
 0002:000036e4       ??_C@_0CL@HDONIDIH@models?1multiplayer?1smokebomb?1sm@ 300bf6e4     bg_misc.obj
 0002:00003710       ??_C@_0CN@DGNMGPJI@models?1multiplayer?1smokebomb?1v_@ 300bf710     bg_misc.obj
 0002:00003740       ??_C@_0L@NHPGFDDA@Smoke?5Bomb@ 300bf740     bg_misc.obj
 0002:0000374c       ??_C@_0BA@NAEGPHIJ@weapon_tripmine@ 300bf74c     bg_misc.obj
 0002:0000375c       ??_C@_08LAHOBLIM@Tripmine@ 300bf75c     bg_misc.obj
 0002:00003768       ??_C@_0BD@LKEJMBNI@weapon_mobile_mg42@ 300bf768     bg_misc.obj
 0002:0000377c       ??_C@_0CF@OCGIPJGL@models?1multiplayer?1mg42?1mg42_3r@ 300bf77c     bg_misc.obj
 0002:000037a4       ??_C@_0CD@HEBMOGN@models?1multiplayer?1mg42?1v_mg42?4@ 300bf7a4     bg_misc.obj
 0002:000037c8       ??_C@_0BD@CPMCGCNO@icons?1iconw_mg42_1@ 300bf7c8     bg_misc.obj
 0002:000037dc       ??_C@_0M@PNMMDIAD@Mobile?5MG42@ 300bf7dc     bg_misc.obj
 0002:000037e8       ??_C@_0BH@LPAECBIO@weapon_mobile_mg42_set@ 300bf7e8     bg_misc.obj
 0002:00003800       ??_C@_0BC@KGGIDFDB@Mobile?5MG42?5Bipod@ 300bf800     bg_misc.obj
 0002:00003814       ??_C@_0BA@LFBOPKHB@weapon_silencer@ 300bf814     bg_misc.obj
 0002:00003824       ??_C@_0CG@CGPGGACN@models?1weapons2?1silencer?1silenc@ 300bf824     bg_misc.obj
 0002:0000384c       ??_C@_0CI@MKOIFLDA@models?1weapons2?1silencer?1v_sile@ 300bf84c     bg_misc.obj
 0002:00003874       ??_C@_0CJ@PJFJNNPK@models?1weapons2?1silencer?1pu_sil@ 300bf874     bg_misc.obj
 0002:000038a0       ??_C@_0BH@NFOOGGLB@icons?1iconw_silencer_1@ 300bf8a0     bg_misc.obj
 0002:000038b8       ??_C@_0L@ILFOJDGJ@sp5?5pistol@ 300bf8b8     bg_misc.obj
 0002:000038c4       ??_C@_0BE@GGFMMMNL@weapon_silencedcolt@ 300bf8c4     bg_misc.obj
 0002:000038d8       ??_C@_0DD@BKIOEAL@models?1multiplayer?1silencedcolt@ 300bf8d8     bg_misc.obj
 0002:0000390c       ??_C@_0O@MMIFKCPM@Silenced?5Colt@ 300bf90c     bg_misc.obj
 0002:0000391c       ??_C@_0N@IEFIKFCP@ammo_syringe@ 300bf91c     bg_misc.obj
 0002:0000392c       ??_C@_0BH@DPAADLFH@sound?1misc?1am_pkup?4wav@ 300bf92c     bg_misc.obj
 0002:00003944       ??_C@_0CA@HKHFIKML@models?1ammo?1syringe?1syringe?4md3@ 300bf944     bg_misc.obj
 0002:00003964       ??_C@_07JNNBFIJM@syringe@  300bf964     bg_misc.obj
 0002:0000396c       ??_C@_0BD@OGPDMOHE@ammo_smoke_grenade@ 300bf96c     bg_misc.obj
 0002:00003980       ??_C@_0CM@GIEDMCCL@models?1ammo?1smoke_grenade?1smoke@ 300bf980     bg_misc.obj
 0002:000039ac       ??_C@_0O@GGLFFGAJ@smoke?5grenade@ 300bf9ac     bg_misc.obj
 0002:000039bc       ??_C@_0O@INMIGFNF@ammo_dynamite@ 300bf9bc     bg_misc.obj
 0002:000039cc       ??_C@_0CC@OBCBIOPA@models?1ammo?1dynamite?1dynamite?4m@ 300bf9cc     bg_misc.obj
 0002:000039f0       ??_C@_08NPLJAOBO@dynamite@ 300bf9f0     bg_misc.obj
 0002:000039fc       ??_C@_0O@HEPMIACL@ammo_disguise@ 300bf9fc     bg_misc.obj
 0002:00003a0c       ??_C@_0CC@BDFOPKHG@models?1ammo?1disguise?1disguise?4m@ 300bfa0c     bg_misc.obj
 0002:00003a30       ??_C@_08CGINOLOA@disguise@ 300bfa30     bg_misc.obj
 0002:00003a3c       ??_C@_0P@OEAGAGOC@ammo_airstrike@ 300bfa3c     bg_misc.obj
 0002:00003a4c       ??_C@_0BD@HNMJIHCO@airstrike?5canister@ 300bfa4c     bg_misc.obj
 0002:00003a60       ??_C@_0O@NIDCFKEG@ammo_landmine@ 300bfa60     bg_misc.obj
 0002:00003a70       ??_C@_0CC@GPPKPKMJ@models?1ammo?1landmine?1landmine?4m@ 300bfa70     bg_misc.obj
 0002:00003a94       ??_C@_08IKEDDBIN@landmine@ 300bfa94     bg_misc.obj
 0002:00003aa0       ??_C@_0BE@KHCPJLAF@ammo_satchel_charge@ 300bfaa0     bg_misc.obj
 0002:00003ab4       ??_C@_0CA@PDHNHOJM@models?1ammo?1satchel?1satchel?4md3@ 300bfab4     bg_misc.obj
 0002:00003ad4       ??_C@_0P@PLCJINDF@satchel?5charge@ 300bfad4     bg_misc.obj
 0002:00003ae4       ??_C@_0P@FACDFEPF@ammo_9mm_small@ 300bfae4     bg_misc.obj
 0002:00003af4       ??_C@_0CB@POMEFGOG@models?1powerups?1ammo?1am9mm_s?4md@ 300bfaf4     bg_misc.obj
 0002:00003b18       ??_C@_0L@FLPDFDLI@9mm?5Rounds@ 300bfb18     bg_misc.obj
 0002:00003b24       ??_C@_08KNPPPJNO@ammo_9mm@ 300bfb24     bg_misc.obj
 0002:00003b30       ??_C@_0CB@MHBIDFAN@models?1powerups?1ammo?1am9mm_m?4md@ 300bfb30     bg_misc.obj
 0002:00003b54       ??_C@_03MDMENKFB@9mm@      300bfb54     bg_misc.obj
 0002:00003b58       ??_C@_0P@PIGIKFGD@ammo_9mm_large@ 300bfb58     bg_misc.obj
 0002:00003b68       ??_C@_0CB@MEEOGKI@models?1powerups?1ammo?1am9mm_l?4md@ 300bfb68     bg_misc.obj
 0002:00003b8c       ??_C@_07KOFJJDA@9mm?5Box@  300bfb8c     bg_misc.obj
 0002:00003b94       ??_C@_0BB@DCNDBFKE@ammo_45cal_small@ 300bfb94     bg_misc.obj
 0002:00003ba8       ??_C@_0CD@HKLIONFF@models?1powerups?1ammo?1am45cal_s?4@ 300bfba8     bg_misc.obj
 0002:00003bcc       ??_C@_0O@DLCMABAL@?445cal?5Rounds@ 300bfbcc     bg_misc.obj
 0002:00003bdc       ??_C@_0L@PKFGKIN@ammo_45cal@ 300bfbdc     bg_misc.obj
 0002:00003be8       ??_C@_0CD@EDGEIOLO@models?1powerups?1ammo?1am45cal_m?4@ 300bfbe8     bg_misc.obj
 0002:00003c0c       ??_C@_06KCPFMNFM@?445cal@  300bfc0c     bg_misc.obj
 0002:00003c14       ??_C@_0BB@JKJIOEDC@ammo_45cal_large@ 300bfc14     bg_misc.obj
 0002:00003c28       ??_C@_0CD@IIDIFNBL@models?1powerups?1ammo?1am45cal_l?4@ 300bfc28     bg_misc.obj
 0002:00003c4c       ??_C@_0L@BNAOKCGE@?445cal?5Box@ 300bfc4c     bg_misc.obj
 0002:00003c58       ??_C@_0BB@DHBMFAGJ@ammo_30cal_small@ 300bfc58     bg_misc.obj
 0002:00003c6c       ??_C@_0CD@HPHHKIJI@models?1powerups?1ammo?1am30cal_s?4@ 300bfc6c     bg_misc.obj
 0002:00003c90       ??_C@_0O@NOPMHAED@?430cal?5Rounds@ 300bfc90     bg_misc.obj
 0002:00003ca0       ??_C@_0L@NKEANFEF@ammo_30cal@ 300bfca0     bg_misc.obj
 0002:00003cac       ??_C@_0CD@EGKLMLHD@models?1powerups?1ammo?1am30cal_m?4@ 300bfcac     bg_misc.obj
 0002:00003cd0       ??_C@_06HHBAHCJE@?430cal@  300bfcd0     bg_misc.obj
 0002:00003cd8       ??_C@_0BB@JPFHKBPP@ammo_30cal_large@ 300bfcd8     bg_misc.obj
 0002:00003cec       ??_C@_0CD@INPHBING@models?1powerups?1ammo?1am30cal_l?4@ 300bfcec     bg_misc.obj
 0002:00003d10       ??_C@_0L@LFEFPMFC@?430cal?5Box@ 300bfd10     bg_misc.obj
 0002:00003d1c       ??_C@_0BB@JNMMCIHG@team_CTF_redflag@ 300bfd1c     bg_misc.obj
 0002:00003d30       ??_C@_09BFBOLFMF@Objective@ 300bfd30     bg_misc.obj
 0002:00003d3c       ??_C@_0BC@NLKCOFAB@team_CTF_blueflag@ 300bfd3c     bg_misc.obj
 0002:00003d50       ??_C@_09MDBFHCAB@Blue?5Flag@ 300bfd50     bg_misc.obj
 0002:00003d5c       ??_C@_07JFMDDPHJ@EV_NONE@  300bfd5c     bg_misc.obj
 0002:00003d64       ??_C@_0M@HLKBOJPO@EV_FOOTSTEP@ 300bfd64     bg_misc.obj
 0002:00003d70       ??_C@_0BC@DIJMAMMI@EV_FOOTSTEP_METAL@ 300bfd70     bg_misc.obj
 0002:00003d84       ??_C@_0BB@BDENNGIK@EV_FOOTSTEP_WOOD@ 300bfd84     bg_misc.obj
 0002:00003d98       ??_C@_0BC@POPILKBB@EV_FOOTSTEP_GRASS@ 300bfd98     bg_misc.obj
 0002:00003dac       ??_C@_0BD@BJPHPHLB@EV_FOOTSTEP_GRAVEL@ 300bfdac     bg_misc.obj
 0002:00003dc0       ??_C@_0BB@OJJLDLHI@EV_FOOTSTEP_ROOF@ 300bfdc0     bg_misc.obj
 0002:00003dd4       ??_C@_0BB@DPJOFGLN@EV_FOOTSTEP_SNOW@ 300bfdd4     bg_misc.obj
 0002:00003de8       ??_C@_0BD@OIMKIJEA@EV_FOOTSTEP_CARPET@ 300bfde8     bg_misc.obj
 0002:00003dfc       ??_C@_0O@HLJHKIDH@EV_FOOTSPLASH@ 300bfdfc     bg_misc.obj
 0002:00003e0c       ??_C@_0M@NPJBGELA@EV_FOOTWADE@ 300bfe0c     bg_misc.obj
 0002:00003e18       ??_C@_07FFIIIPLH@EV_SWIM@  300bfe18     bg_misc.obj
 0002:00003e20       ??_C@_09OLFOHJNB@EV_STEP_4@ 300bfe20     bg_misc.obj
 0002:00003e2c       ??_C@_09EHOLDGNN@EV_STEP_8@ 300bfe2c     bg_misc.obj
 0002:00003e38       ??_C@_0L@BKIECKKB@EV_STEP_12@ 300bfe38     bg_misc.obj
 0002:00003e44       ??_C@_0L@HOOIOPKF@EV_STEP_16@ 300bfe44     bg_misc.obj
 0002:00003e50       ??_C@_0O@EAFDHAJM@EV_FALL_SHORT@ 300bfe50     bg_misc.obj
 0002:00003e60       ??_C@_0P@MGFLMCKC@EV_FALL_MEDIUM@ 300bfe60     bg_misc.obj
 0002:00003e70       ??_C@_0M@LKJJNJOM@EV_FALL_FAR@ 300bfe70     bg_misc.obj
 0002:00003e7c       ??_C@_0N@DDNFHLKI@EV_FALL_NDIE@ 300bfe7c     bg_misc.obj
 0002:00003e8c       ??_C@_0P@FIANBDMI@EV_FALL_DMG_10@ 300bfe8c     bg_misc.obj
 0002:00003e9c       ??_C@_0P@CFHKOHIN@EV_FALL_DMG_15@ 300bfe9c     bg_misc.obj
 0002:00003eac       ??_C@_0P@CHDMFJNE@EV_FALL_DMG_25@ 300bfeac     bg_misc.obj
 0002:00003ebc       ??_C@_0P@FPAELLBE@EV_FALL_DMG_50@ 300bfebc     bg_misc.obj
 0002:00003ecc       ??_C@_07GKBEHGAP@EV_JUMP@  300bfecc     bg_misc.obj
 0002:00003ed4       ??_C@_0P@GCDBKPMP@EV_WATER_TOUCH@ 300bfed4     bg_misc.obj
 0002:00003ee4       ??_C@_0P@LHDMOIIG@EV_WATER_LEAVE@ 300bfee4     bg_misc.obj
 0002:00003ef4       ??_C@_0P@MIAIODEJ@EV_WATER_UNDER@ 300bfef4     bg_misc.obj
 0002:00003f04       ??_C@_0P@NIPCJOBG@EV_WATER_CLEAR@ 300bff04     bg_misc.obj
 0002:00003f14       ??_C@_0P@BGIOEPCB@EV_ITEM_PICKUP@ 300bff14     bg_misc.obj
 0002:00003f24       ??_C@_0BF@KPFIMFLK@EV_ITEM_PICKUP_QUIET@ 300bff24     bg_misc.obj
 0002:00003f3c       ??_C@_0BG@KFILGAMN@EV_GLOBAL_ITEM_PICKUP@ 300bff3c     bg_misc.obj
 0002:00003f54       ??_C@_09NMIICG@EV_NOAMMO@  300bff54     bg_misc.obj
 0002:00003f60       ??_C@_0BC@NFCFBFAA@EV_WEAPONSWITCHED@ 300bff60     bg_misc.obj
 0002:00003f74       ??_C@_0N@JNDLCMCF@EV_EMPTYCLIP@ 300bff74     bg_misc.obj
 0002:00003f84       ??_C@_0N@ICJMNDPK@EV_FILL_CLIP@ 300bff84     bg_misc.obj
 0002:00003f94       ??_C@_0O@GMNDBHOK@EV_MG42_FIXED@ 300bff94     bg_misc.obj
 0002:00003fa4       ??_C@_0BB@JPDLIBL@EV_WEAP_OVERHEAT@ 300bffa4     bg_misc.obj
 0002:00003fb8       ??_C@_0BB@ENKPHJLP@EV_CHANGE_WEAPON@ 300bffb8     bg_misc.obj
 0002:00003fcc       ??_C@_0BD@MABEALLM@EV_CHANGE_WEAPON_2@ 300bffcc     bg_misc.obj
 0002:00003fe0       ??_C@_0P@PFJPAFGH@EV_FIRE_WEAPON@ 300bffe0     bg_misc.obj
 0002:00003ff0       ??_C@_0BA@BBGMEGHJ@EV_FIRE_WEAPONB@ 300bfff0     bg_misc.obj
 0002:00004000       ??_C@_0BI@LIJDKNHM@EV_FIRE_WEAPON_LASTSHOT@ 300c0000     bg_misc.obj
 0002:00004018       ??_C@_0BF@ELKDIJEM@EV_NOFIRE_UNDERWATER@ 300c0018     bg_misc.obj
 0002:00004030       ??_C@_0BE@BGCCOODJ@EV_FIRE_WEAPON_MG42@ 300c0030     bg_misc.obj
 0002:00004044       ??_C@_0BL@HGJDFKEH@EV_FIRE_WEAPON_MOUNTEDMG42@ 300c0044     bg_misc.obj
 0002:00004060       ??_C@_0BA@GJNCODNG@EV_ITEM_RESPAWN@ 300c0060     bg_misc.obj
 0002:00004070       ??_C@_0M@ECGFPIMP@EV_ITEM_POP@ 300c0070     bg_misc.obj
 0002:0000407c       ??_C@_0BG@HBBJKNDP@EV_PLAYER_TELEPORT_IN@ 300c007c     bg_misc.obj
 0002:00004094       ??_C@_0BH@FNNILPIN@EV_PLAYER_TELEPORT_OUT@ 300c0094     bg_misc.obj
 0002:000040ac       ??_C@_0BC@ECIIAFLJ@EV_GRENADE_BOUNCE@ 300c00ac     bg_misc.obj
 0002:000040c0       ??_C@_0BB@LJGGMAII@EV_GENERAL_SOUND@ 300c00c0     bg_misc.obj
 0002:000040d4       ??_C@_0BI@HKIIFDIJ@EV_GENERAL_SOUND_VOLUME@ 300c00d4     bg_misc.obj
 0002:000040ec       ??_C@_0BA@JAMKLOPJ@EV_GLOBAL_SOUND@ 300c00ec     bg_misc.obj
 0002:000040fc       ??_C@_0BH@IDPCELGG@EV_GLOBAL_CLIENT_SOUND@ 300c00fc     bg_misc.obj
 0002:00004114       ??_C@_0BF@DDOIKLHD@EV_GLOBAL_TEAM_SOUND@ 300c0114     bg_misc.obj
 0002:0000412c       ??_C@_0M@EIFDFIOI@EV_FX_SOUND@ 300c012c     bg_misc.obj
 0002:00004138       ??_C@_0BE@KBABEJMP@EV_BULLET_HIT_FLESH@ 300c0138     bg_misc.obj
 0002:0000414c       ??_C@_0BD@MFLMCLPN@EV_BULLET_HIT_WALL@ 300c014c     bg_misc.obj
 0002:00004160       ??_C@_0P@JFMFNBMO@EV_MISSILE_HIT@ 300c0160     bg_misc.obj
 0002:00004170       ??_C@_0BA@CAHALNAE@EV_MISSILE_MISS@ 300c0170     bg_misc.obj
 0002:00004180       ??_C@_0N@HMLLJFGF@EV_RAILTRAIL@ 300c0180     bg_misc.obj
 0002:00004190       ??_C@_08MEDJCGGO@EV_VENOM@ 300c0190     bg_misc.obj
 0002:0000419c       ??_C@_09ICDIPKFJ@EV_BULLET@ 300c019c     bg_misc.obj
 0002:000041a8       ??_C@_0M@DKCBCMBK@EV_LOSE_HAT@ 300c01a8     bg_misc.obj
 0002:000041b4       ??_C@_07EMHHKOOH@EV_PAIN@  300c01b4     bg_misc.obj
 0002:000041bc       ??_C@_0P@DHBMGCBF@EV_CROUCH_PAIN@ 300c01bc     bg_misc.obj
 0002:000041cc       ??_C@_09JPFBHKII@EV_DEATH1@ 300c01cc     bg_misc.obj
 0002:000041d8       ??_C@_09LEHMCJEL@EV_DEATH2@ 300c01d8     bg_misc.obj
 0002:000041e4       ??_C@_09KNGHBIAK@EV_DEATH3@ 300c01e4     bg_misc.obj
 0002:000041f0       ??_C@_0M@PPLCDPP@EV_OBITUARY@ 300c01f0     bg_misc.obj
 0002:000041fc       ??_C@_0BG@JGKJADKH@EV_STOPSTREAMINGSOUND@ 300c01fc     bg_misc.obj
 0002:00004214       ??_C@_0BA@HLHGHIIE@EV_POWERUP_QUAD@ 300c0214     bg_misc.obj
 0002:00004224       ??_C@_0BG@CHAMNADK@EV_POWERUP_BATTLESUIT@ 300c0224     bg_misc.obj
 0002:0000423c       ??_C@_0BB@EGIJIDAN@EV_POWERUP_REGEN@ 300c023c     bg_misc.obj
 0002:00004250       ??_C@_0O@JLGFLKBE@EV_GIB_PLAYER@ 300c0250     bg_misc.obj
 0002:00004260       ??_C@_0O@PBPAKHP@EV_DEBUG_LINE@ 300c0260     bg_misc.obj
 0002:00004270       ??_C@_0BE@OHJHDFJH@EV_STOPLOOPINGSOUND@ 300c0270     bg_misc.obj
 0002:00004284       ??_C@_08GBKLDCBE@EV_TAUNT@ 300c0284     bg_misc.obj
 0002:00004290       ??_C@_08NDOILJKN@EV_SMOKE@ 300c0290     bg_misc.obj
 0002:0000429c       ??_C@_09BONFKDEA@EV_SPARKS@ 300c029c     bg_misc.obj
 0002:000042a8       ??_C@_0BD@PCIMGPJ@EV_SPARKS_ELECTRIC@ 300c02a8     bg_misc.obj
 0002:000042bc       ??_C@_0L@PDKGIDMH@EV_EXPLODE@ 300c02bc     bg_misc.obj
 0002:000042c8       ??_C@_09OGABLHFK@EV_RUBBLE@ 300c02c8     bg_misc.obj
 0002:000042d4       ??_C@_09PBOIJPHL@EV_EFFECT@ 300c02d4     bg_misc.obj
 0002:000042e0       ??_C@_0N@OOLHPPFB@EV_MORTAREFX@ 300c02e0     bg_misc.obj
 0002:000042f0       ??_C@_09JPPNNBP@EV_SPINUP@ 300c02f0     bg_misc.obj
 0002:000042fc       ??_C@_0L@BHHEGFPH@EV_SNOW_ON@ 300c02fc     bg_misc.obj
 0002:00004308       ??_C@_0M@ILPOKKOB@EV_SNOW_OFF@ 300c0308     bg_misc.obj
 0002:00004314       ??_C@_0BG@NJLEFMMF@EV_MISSILE_MISS_SMALL@ 300c0314     bg_misc.obj
 0002:0000432c       ??_C@_0BG@HBPPKNFD@EV_MISSILE_MISS_LARGE@ 300c032c     bg_misc.obj
 0002:00004344       ??_C@_0BB@NOIHDOFC@EV_MORTAR_IMPACT@ 300c0344     bg_misc.obj
 0002:00004358       ??_C@_0P@EMPGNDEH@EV_MORTAR_MISS@ 300c0358     bg_misc.obj
 0002:00004368       ??_C@_08PBDLOIFA@EV_SHARD@ 300c0368     bg_misc.obj
 0002:00004374       ??_C@_07MBGEADMM@EV_JUNK@  300c0374     bg_misc.obj
 0002:0000437c       ??_C@_0L@DBFAIBIB@EV_EMITTER@ 300c037c     bg_misc.obj
 0002:00004388       ??_C@_0BA@MAJPOFCN@EV_OILPARTICLES@ 300c0388     bg_misc.obj
 0002:00004398       ??_C@_0M@NAPIEEDO@EV_OILSLICK@ 300c0398     bg_misc.obj
 0002:000043a4       ??_C@_0BC@DAKMMNLM@EV_OILSLICKREMOVE@ 300c03a4     bg_misc.obj
 0002:000043b8       ??_C@_0L@PHAHDPKB@EV_MG42EFX@ 300c03b8     bg_misc.obj
 0002:000043c4       ??_C@_0M@KPOMGCO@EV_FLAKGUN1@ 300c03c4     bg_misc.obj
 0002:000043d0       ??_C@_0M@CBNDJFON@EV_FLAKGUN2@ 300c03d0     bg_misc.obj
 0002:000043dc       ??_C@_0M@DIMIKEKM@EV_FLAKGUN3@ 300c03dc     bg_misc.obj
 0002:000043e8       ??_C@_0M@HHIJDCGL@EV_FLAKGUN4@ 300c03e8     bg_misc.obj
 0002:000043f4       ??_C@_09EDLJMDHB@EV_EXERT1@ 300c03f4     bg_misc.obj
 0002:00004400       ??_C@_09GIJEJALC@EV_EXERT2@ 300c0400     bg_misc.obj
 0002:0000440c       ??_C@_09HBIPKBPD@EV_EXERT3@ 300c040c     bg_misc.obj
 0002:00004418       ??_C@_0O@PJMOJJEP@EV_SNOWFLURRY@ 300c0418     bg_misc.obj
 0002:00004428       ??_C@_0O@BKOAPLIK@EV_CONCUSSIVE@ 300c0428     bg_misc.obj
 0002:00004438       ??_C@_07KHPAIDBA@EV_DUST@  300c0438     bg_misc.obj
 0002:00004440       ??_C@_0O@PLJGGILF@EV_RUMBLE_EFX@ 300c0440     bg_misc.obj
 0002:00004450       ??_C@_0N@OHOAKEEP@EV_GUNSPARKS@ 300c0450     bg_misc.obj
 0002:00004460       ??_C@_0BH@BPCINDIK@EV_FLAMETHROWER_EFFECT@ 300c0460     bg_misc.obj
 0002:00004478       ??_C@_08GMLLHME@EV_POPUP@  300c0478     bg_misc.obj
 0002:00004484       ??_C@_0N@HBFMCFAF@EV_POPUPBOOK@ 300c0484     bg_misc.obj
 0002:00004494       ??_C@_0M@IECPBDBO@EV_GIVEPAGE@ 300c0494     bg_misc.obj
 0002:000044a0       ??_C@_0BI@IBNKLDH@EV_MG42BULLET_HIT_FLESH@ 300c04a0     bg_misc.obj
 0002:000044b8       ??_C@_0BH@GFPAIABB@EV_MG42BULLET_HIT_WALL@ 300c04b8     bg_misc.obj
 0002:000044d0       ??_C@_08PLNHEBOO@EV_SHAKE@ 300c04d0     bg_misc.obj
 0002:000044dc       ??_C@_0BC@OENCMDHH@EV_DISGUISE_SOUND@ 300c04dc     bg_misc.obj
 0002:000044f0       ??_C@_0BG@MJHCOBPG@EV_BUILDDECAYED_SOUND@ 300c04f0     bg_misc.obj
 0002:00004508       ??_C@_0BF@PNHJCPGB@EV_FIRE_WEAPON_AAGUN@ 300c0508     bg_misc.obj
 0002:00004520       ??_C@_09KLJDDMJG@EV_DEBRIS@ 300c0520     bg_misc.obj
 0002:0000452c       ??_C@_0BB@MABFGLCH@EV_ALERT_SPEAKER@ 300c052c     bg_misc.obj
 0002:00004540       ??_C@_0BA@OECEDLO@EV_POPUPMESSAGE@ 300c0540     bg_misc.obj
 0002:00004550       ??_C@_0P@EPAIEIBJ@EV_ARTYMESSAGE@ 300c0550     bg_misc.obj
 0002:00004560       ??_C@_0BE@NHFHPENA@EV_AIRSTRIKEMESSAGE@ 300c0560     bg_misc.obj
 0002:00004574       ??_C@_0O@ENLBJNBO@EV_MEDIC_CALL@ 300c0574     bg_misc.obj
 0002:00004584       ??_C@_0BC@JMEOOMJB@EV_BOT_DEBUG_LINE@ 300c0584     bg_misc.obj
 0002:00004598       ??_C@_0BE@OBNDKJGN@EV_BOT_DEBUG_RADIUS@ 300c0598     bg_misc.obj
 0002:000045ac       ??_C@_0O@PIOJMJPP@EV_MAX_EVENTS@ 300c05ac     bg_misc.obj
 0002:000045bc       ??_C@_0BI@MFCEIACE@allies_hq_promo_private@ 300c05bc     bg_misc.obj
 0002:000045d4       ??_C@_0BJ@KJKPNMPM@allies_hq_promo_corporal@ 300c05d4     bg_misc.obj
 0002:000045f0       ??_C@_0BJ@LCHIPNC@allies_hq_promo_sergeant@ 300c05f0     bg_misc.obj
 0002:0000460c       ??_C@_0BL@CLOBNDHP@allies_hq_promo_lieutenant@ 300c060c     bg_misc.obj
 0002:00004628       ??_C@_0BI@MIDFNJGE@allies_hq_promo_captain@ 300c0628     bg_misc.obj
 0002:00004640       ??_C@_0BG@HAMCCEND@allies_hq_promo_major@ 300c0640     bg_misc.obj
 0002:00004658       ??_C@_0BI@JIGBENPK@allies_hq_promo_colonel@ 300c0658     bg_misc.obj
 0002:00004670       ??_C@_0CC@GGJFIPMA@allies_hq_promo_general_brigadi@ 300c0670     bg_misc.obj
 0002:00004694       ??_C@_0CD@FDAHAOAJ@allies_hq_promo_general_lieuten@ 300c0694     bg_misc.obj
 0002:000046b8       ??_C@_0BI@KCOFOFBP@allies_hq_promo_general@ 300c06b8     bg_misc.obj
 0002:000046d0       ??_C@_0BG@GFOLBAEI@axis_hq_promo_private@ 300c06d0     bg_misc.obj
 0002:000046e8       ??_C@_0BH@ONALDOBP@axis_hq_promo_corporal@ 300c06e8     bg_misc.obj
 0002:00004700       ??_C@_0BH@EPIDGNDB@axis_hq_promo_sergeant@ 300c0700     bg_misc.obj
 0002:00004718       ??_C@_0BJ@BALGLEKA@axis_hq_promo_lieutenant@ 300c0718     bg_misc.obj
 0002:00004734       ??_C@_0BG@GIPKEJAI@axis_hq_promo_captain@ 300c0734     bg_misc.obj
 0002:0000474c       ??_C@_0BE@LIONHKGL@axis_hq_promo_major@ 300c074c     bg_misc.obj
 0002:00004760       ??_C@_0BG@DIKONNJG@axis_hq_promo_colonel@ 300c0760     bg_misc.obj
 0002:00004778       ??_C@_0BM@LPDDNAMN@axis_hq_promo_general_major@ 300c0778     bg_misc.obj
 0002:00004794       ??_C@_0CB@FFBKJAK@axis_hq_promo_general_lieutenan@ 300c0794     bg_misc.obj
 0002:000047b8       ??_C@_0BG@CCKHFHD@axis_hq_promo_general@ 300c07b8     bg_misc.obj
 0002:000047d0       ??_C@_07ILAOCFOM@Schutze@  300c07d0     bg_misc.obj
 0002:000047d8       ??_C@_0M@MPFLHNKD@Oberschutze@ 300c07d8     bg_misc.obj
 0002:000047e4       ??_C@_09GAMHIJCE@Gefreiter@ 300c07e4     bg_misc.obj
 0002:000047f0       ??_C@_09DABGCOCL@Feldwebel@ 300c07f0     bg_misc.obj
 0002:000047fc       ??_C@_08DLDKAGFE@Leutnant@ 300c07fc     bg_misc.obj
 0002:00004808       ??_C@_09BJGEMGKL@Hauptmann@ 300c0808     bg_misc.obj
 0002:00004814       ??_C@_05FDLAJJBN@Major@    300c0814     bg_misc.obj
 0002:0000481c       ??_C@_06BIOMHBJB@Oberst@   300c081c     bg_misc.obj
 0002:00004824       ??_C@_0N@CBMLOIAM@Generalmajor@ 300c0824     bg_misc.obj
 0002:00004834       ??_C@_0BA@NHCNCPGC@Generalleutnant@ 300c0834     bg_misc.obj
 0002:00004844       ??_C@_07ECEMPDJM@General@  300c0844     bg_misc.obj
 0002:0000484c       ??_C@_07CFINJGKH@Private@  300c084c     bg_misc.obj
 0002:00004854       ??_C@_0BC@IMKFBNMP@Private?51st?5Class@ 300c0854     bg_misc.obj
 0002:00004868       ??_C@_08NNPOKHHA@Corporal@ 300c0868     bg_misc.obj
 0002:00004874       ??_C@_08HPHGPEFO@Sergeant@ 300c0874     bg_misc.obj
 0002:00004880       ??_C@_0L@HLAANINN@Lieutenant@ 300c0880     bg_misc.obj
 0002:0000488c       ??_C@_07CIJMMPOH@Captain@  300c088c     bg_misc.obj
 0002:00004894       ??_C@_07HIMIFLHJ@Colonel@  300c0894     bg_misc.obj
 0002:0000489c       ??_C@_0BC@EJAMAKDN@Brigadier?5General@ 300c089c     bg_misc.obj
 0002:000048b0       ??_C@_0BD@NBFGKOJI@Lieutenant?5General@ 300c08b0     bg_misc.obj
 0002:000048c4       ??_C@_03IBCLNBFP@Stz@      300c08c4     bg_misc.obj
 0002:000048c8       ??_C@_03JLOEDJHI@Otz@      300c08c8     bg_misc.obj
 0002:000048cc       ??_C@_03IJCLOMIB@Gfr@      300c08cc     bg_misc.obj
 0002:000048d0       ??_C@_03GGLBFAPC@Fwb@      300c08d0     bg_misc.obj
 0002:000048d4       ??_C@_03KHPPEBMD@Ltn@      300c08d4     bg_misc.obj
 0002:000048d8       ??_C@_03JPLJIEJD@Hpt@      300c08d8     bg_misc.obj
 0002:000048dc       ??_C@_03OPIMPFIB@Mjr@      300c08dc     bg_misc.obj
 0002:000048e0       ??_C@_03FCINFNPD@Obs@      300c08e0     bg_misc.obj
 0002:000048e4       ??_C@_03GBANGNDJ@BGn@      300c08e4     bg_misc.obj
 0002:000048e8       ??_C@_03ODLJNOCI@LtG@      300c08e8     bg_misc.obj
 0002:000048ec       ??_C@_03GNBKAPIF@Gen@      300c08ec     bg_misc.obj
 0002:000048f0       ??_C@_03OJJIHFB@Pvt@       300c08f0     bg_misc.obj
 0002:000048f4       ??_C@_03LKPFMCPF@PFC@      300c08f4     bg_misc.obj
 0002:000048f8       ??_C@_03MKKDJLML@Cpl@      300c08f8     bg_misc.obj
 0002:000048fc       ??_C@_03BMIOBPI@Sgt@       300c08fc     bg_misc.obj
 0002:00004900       ??_C@_02DCGNOOLL@Lt@       300c0900     bg_misc.obj
 0002:00004904       ??_C@_03EILIADJC@Cpt@      300c0904     bg_misc.obj
 0002:00004908       ??_C@_03GBMCICDJ@Maj@      300c0908     bg_misc.obj
 0002:0000490c       ??_C@_03NMBLBFLB@Cnl@      300c090c     bg_misc.obj
 0002:00004910       ??_C@_03DPCINNNJ@GMj@      300c0910     bg_misc.obj
 0002:00004914       ??_C@_03OKKLIIDB@GLt@      300c0914     bg_misc.obj
 0002:00004918       ??_C@_05IHOGHNDL@Alpha@    300c0918     bg_misc.obj
 0002:00004920       ??_C@_05LODMLFHI@Bravo@    300c0920     bg_misc.obj
 0002:00004928       ??_C@_07OLFAKPLM@Charlie@  300c0928     bg_misc.obj
 0002:00004930       ??_C@_05NFMIDMMK@Delta@    300c0930     bg_misc.obj
 0002:00004938       ??_C@_04CEPMGKMG@Echo@     300c0938     bg_misc.obj
 0002:00004940       ??_C@_07CKBMEGKL@Foxtrot@  300c0940     bg_misc.obj
 0002:00004948       ??_C@_0BA@MIBIIKCM@vote_allow_comp@ 300c0948     bg_misc.obj
 0002:00004958       ??_C@_0BE@FMIBNCLG@vote_allow_gametype@ 300c0958     bg_misc.obj
 0002:0000496c       ??_C@_0BA@HOKLHIKB@vote_allow_kick@ 300c096c     bg_misc.obj
 0002:0000497c       ??_C@_0P@IKPDOLCL@vote_allow_map@ 300c097c     bg_misc.obj
 0002:0000498c       ??_C@_0BG@OMGFOAJP@vote_allow_matchreset@ 300c098c     bg_misc.obj
 0002:000049a4       ??_C@_0BF@NAOJJNDM@vote_allow_mutespecs@ 300c09a4     bg_misc.obj
 0002:000049bc       ??_C@_0BD@NFNPNPJD@vote_allow_nextmap@ 300c09bc     bg_misc.obj
 0002:000049d0       ??_C@_0P@ELFLBPBG@vote_allow_pub@ 300c09d0     bg_misc.obj
 0002:000049e0       ??_C@_0BD@KCFBCPCP@vote_allow_referee@ 300c09e0     bg_misc.obj
 0002:000049f4       ??_C@_0BK@OALPDKPA@vote_allow_shuffleteamsxp@ 300c09f4     bg_misc.obj
 0002:00004a10       ??_C@_0BF@PGDMBKNA@vote_allow_swapteams@ 300c0a10     bg_misc.obj
 0002:00004a28       ??_C@_0BI@PFABBADB@vote_allow_friendlyfire@ 300c0a28     bg_misc.obj
 0002:00004a40       ??_C@_0BF@DKEANCDI@vote_allow_timelimit@ 300c0a40     bg_misc.obj
 0002:00004a58       ??_C@_0BI@NLJBAGJA@vote_allow_warmupdamage@ 300c0a58     bg_misc.obj
 0002:00004a70       ??_C@_0BD@FMHFOJHO@vote_allow_antilag@ 300c0a70     bg_misc.obj
 0002:00004a84       ??_C@_0BJ@NHFEAGDG@vote_allow_balancedteams@ 300c0a84     bg_misc.obj
 0002:00004aa0       ??_C@_0BC@OODKGFIE@vote_allow_muting@ 300c0aa0     bg_misc.obj
 0002:00004ab4       ??_C@_0BF@CCONGFFD@vote_allow_surrender@ 300c0ab4     bg_misc.obj
 0002:00004acc       ??_C@_0BL@KHEHEHLP@vote_allow_restartcampaign@ 300c0acc     bg_misc.obj
 0002:00004ae8       ??_C@_0BI@DHIOBPN@vote_allow_nextcampaign@ 300c0ae8     bg_misc.obj
 0002:00004b00       ??_C@_0BA@IONFABE@vote_allow_poll@ 300c0b00     bg_misc.obj
 0002:00004b10       ??_C@_0BG@BFOKKGJA@vote_allow_maprestart@ 300c0b10     bg_misc.obj
 0002:00004b28       ??_C@_0BM@IHLKOGJH@vote_allow_shufflenorestart@ 300c0b28     bg_misc.obj
 0002:00004b44       ??_C@_0BD@NKEHBKCD@vote_allow_putspec@ 300c0b44     bg_misc.obj
 0002:00004b58       ??_C@_0BE@OBMDEGJF@vote_allow_cointoss@ 300c0b58     bg_misc.obj
 0002:00004b6c       ??_C@_04LEFNBAHI@KNIF@     300c0b6c     bg_misc.obj
 0002:00004b74       ??_C@_04KFFFOGKJ@LUGR@     300c0b74     bg_misc.obj
 0002:00004b7c       ??_C@_04ECKOIOOE@COLT@     300c0b7c     bg_misc.obj
 0002:00004b84       ??_C@_05GLJEIEHJ@MP?940@   300c0b84     bg_misc.obj
 0002:00004b8c       ??_C@_04GABKMBCO@TMPS@     300c0b8c     bg_misc.obj
 0002:00004b94       ??_C@_04BKKKAIKM@STEN@     300c0b94     bg_misc.obj
 0002:00004b9c       ??_C@_04CGLPNMLC@FG42@     300c0b9c     bg_misc.obj
 0002:00004ba4       ??_C@_05OBKFFNKK@FG?942@   300c0ba4     bg_misc.obj
 0002:00004bac       ??_C@_04JDKDHMJH@PNZR@     300c0bac     bg_misc.obj
 0002:00004bb4       ??_C@_06PDHLIOKC@Panzer@   300c0bb4     bg_misc.obj
 0002:00004bbc       ??_C@_04LCDJEDB@FLAM@      300c0bbc     bg_misc.obj
 0002:00004bc4       ??_C@_09FEKCIACN@F?4Thrower@ 300c0bc4     bg_misc.obj
 0002:00004bd0       ??_C@_04FMBLGBFJ@GRND@     300c0bd0     bg_misc.obj
 0002:00004bd8       ??_C@_04BLICOKIJ@MRTR@     300c0bd8     bg_misc.obj
 0002:00004be0       ??_C@_04LBMNGIMN@DYNA@     300c0be0     bg_misc.obj
 0002:00004be8       ??_C@_08FNEIIMLN@Dynamite@ 300c0be8     bg_misc.obj
 0002:00004bf4       ??_C@_04INGHLGIL@ARST@     300c0bf4     bg_misc.obj
 0002:00004bfc       ??_C@_09KHLPGPGB@Airstrike@ 300c0bfc     bg_misc.obj
 0002:00004c08       ??_C@_04DNIGNOED@ARTY@     300c0c08     bg_misc.obj
 0002:00004c10       ??_C@_04OCFGADNI@SRNG@     300c0c10     bg_misc.obj
 0002:00004c18       ??_C@_04EHFLGBCK@SMOK@     300c0c18     bg_misc.obj
 0002:00004c20       ??_C@_09MBBCOPDB@SmokeScrn@ 300c0c20     bg_misc.obj
 0002:00004c2c       ??_C@_04EIHNNDJI@STCH@     300c0c2c     bg_misc.obj
 0002:00004c34       ??_C@_07FLFCCDCE@Satchel@  300c0c34     bg_misc.obj
 0002:00004c3c       ??_C@_04KFHAFNLN@GRLN@     300c0c3c     bg_misc.obj
 0002:00004c44       ??_C@_09HGGAMOMN@G?4Launchr@ 300c0c44     bg_misc.obj
 0002:00004c50       ??_C@_04MJKNOOLM@LNMN@     300c0c50     bg_misc.obj
 0002:00004c58       ??_C@_09NEGJIGCF@MG?942?5Gun@ 300c0c58     bg_misc.obj
 0002:00004c64       ??_C@_04PBGECLLG@GARN@     300c0c64     bg_misc.obj
 0002:00004c6c       ??_C@_04JDKPDOCF@K?943@    300c0c6c     bg_misc.obj
 0002:00004c74       ??_C@_05PMAELIEO@white@    300c0c74     bg_misc.obj
 0002:00004c7c       ??_C@_03FAAAOPJM@red@      300c0c7c     bg_misc.obj
 0002:00004c80       ??_C@_05GBEEJKMC@green@    300c0c80     bg_misc.obj
 0002:00004c88       ??_C@_04OBGPFBCN@blue@     300c0c88     bg_misc.obj
 0002:00004c90       ??_C@_06ENJNJKEL@yellow@   300c0c90     bg_misc.obj
 0002:00004c98       ??_C@_07EMDGAPCI@magenta@  300c0c98     bg_misc.obj
 0002:00004ca0       ??_C@_04EDBDANFH@cyan@     300c0ca0     bg_misc.obj
 0002:00004ca8       ??_C@_06HDDOCMMN@orange@   300c0ca8     bg_misc.obj
 0002:00004cb0       ??_C@_05BIFOFMCK@mdred@    300c0cb0     bg_misc.obj
 0002:00004cb8       ??_C@_07IBLDDJJE@mdgreen@  300c0cb8     bg_misc.obj
 0002:00004cc0       ??_C@_07GILEFCFG@dkgreen@  300c0cc0     bg_misc.obj
 0002:00004cc8       ??_C@_06GBFJEFFN@mdcyan@   300c0cc8     bg_misc.obj
 0002:00004cd0       ??_C@_08MPHFJJCJ@mdyellow@ 300c0cd0     bg_misc.obj
 0002:00004cdc       ??_C@_08PBNGCPKP@mdorange@ 300c0cdc     bg_misc.obj
 0002:00004ce8       ??_C@_06MDCFBJCH@mdblue@   300c0ce8     bg_misc.obj
 0002:00004cf0       ??_C@_06OEPDEBPJ@ltgrey@   300c0cf0     bg_misc.obj
 0002:00004cf8       ??_C@_06EBFCEING@mdgrey@   300c0cf8     bg_misc.obj
 0002:00004d00       ??_C@_06CFJMLPNA@dkgrey@   300c0d00     bg_misc.obj
 0002:00004d08       ??_C@_05BIMBDNDC@black@    300c0d08     bg_misc.obj
 0002:00004d10       ??_C@_0CB@DEACFJO@Couldn?8t?5find?5item?5for?5weapon?5?$CF@ 300c0d10     bg_misc.obj
 0002:00004d34       ??_C@_0BM@HLHNLGBN@Item?5not?5found?5for?5ammo?3?5?$CFd@ 300c0d34     bg_misc.obj
 0002:00004d50       ??_C@_0CI@MFONMA@BG_CanItemBeGrabbed?3?5index?5out?5@ 300c0d50     bg_misc.obj
 0002:00004d78       ??_C@_0BM@NECGLAIF@BG_CanItemBeGrabbed?3?5IT_BAD@ 300c0d78     bg_misc.obj
 0002:00004d94       ??_C@_0CK@DNBGNAED@BG_EvaluateTrajectory?3?5unknown?5@ 300c0d94     bg_misc.obj
 0002:00004dc0       ??_C@_0CP@MCFPOIMF@BG_EvaluateTrajectoryDelta?3?5unk@ 300c0dc0     bg_misc.obj
 0002:00004df0       ??_C@_0BK@EIIMCABE@MAX?5PATH?5CORNERS?5?$CI?$CFi?$CJ?5hit@ 300c0df0     bg_misc.obj
 0002:00004e0c       ??_C@_0BF@MNFCONKK@MAX?5SPLINES?5?$CI?$CFi?$CJ?5hit@ 300c0e0c     bg_misc.obj
 0002:00004e24       ??_C@_0BN@LHEFCKBA@MAX?5SPLINE?5CONTROLS?5?$CI?$CFi?$CJ?5hit@ 300c0e24     bg_misc.obj
 0002:00004e44       ??_C@_0DA@CFFAANPO@?$FO1Cant?5find?5control?5point?5?$CI?$CFs?$CJ?5@ 300c0e44     bg_misc.obj
 0002:00004e74       ??_C@_0CP@LIGHMFHP@?$FO1Cant?5find?5target?5point?5?$CI?$CFs?$CJ?5f@ 300c0e74     bg_misc.obj
 0002:00004ea4       ??_C@_0BM@DJGMFAMK@?$FO3WARNING?3?5?$CFs?0?5line?5?$CFd?3?5?$CFs?6@ 300c0ea4     bg_misc.obj
 0002:00004ec0       ??_C@_0BN@CKJPOGNB@expected?5float?5but?5found?5?$CFs?6@ 300c0ec0     bg_misc.obj
 0002:00004ee0       ??_C@_0BP@FLADEANJ@expected?5integer?5but?5found?5?$CFs?6@ 300c0ee0     bg_misc.obj
 0002:00004f00       ??_C@_05PLKILNHI@White@    300c0f00     bg_misc.obj
 0002:00004f08       ??_C@_05KHJDIDCH@?$CFc?0?$CFi@ 300c0f08     bg_misc.obj
 0002:00004f10       __real@3c23d70a            300c0f10     bg_misc.obj
 0002:00004f14       __real@3d800000            300c0f14     bg_misc.obj
 0002:00004f18       __real@3e99999a            300c0f18     bg_misc.obj
 0002:00004f1c       __real@3f000000            300c0f1c     bg_misc.obj
 0002:00004f20       __real@3f333333            300c0f20     bg_misc.obj
 0002:00004f24       __real@3f4ccccd            300c0f24     bg_misc.obj
 0002:00004f28       __real@3f50624dd2f1a9fc    300c0f28     bg_misc.obj
 0002:00004f30       __real@3f800000            300c0f30     bg_misc.obj
 0002:00004f38       __real@3fe0000000000000    300c0f38     bg_misc.obj
 0002:00004f40       __real@3ff0000000000000    300c0f40     bg_misc.obj
 0002:00004f48       __real@3ff1eb851eb851ec    300c0f48     bg_misc.obj
 0002:00004f50       __real@40000000            300c0f50     bg_misc.obj
 0002:00004f54       __real@40490fdb            300c0f54     bg_misc.obj
 0002:00004f58       __real@4054000000000000    300c0f58     bg_misc.obj
 0002:00004f60       __real@405e000000000000    300c0f60     bg_misc.obj
 0002:00004f68       __real@4064000000000000    300c0f68     bg_misc.obj
 0002:00004f70       __real@406e000000000000    300c0f70     bg_misc.obj
 0002:00004f78       __real@406fe00000000000    300c0f78     bg_misc.obj
 0002:00004f80       __real@4079000000000000    300c0f80     bg_misc.obj
 0002:00004f88       __real@40800000            300c0f88     bg_misc.obj
 0002:00004f8c       __real@40e00000            300c0f8c     bg_misc.obj
 0002:00004f90       __real@41800000            300c0f90     bg_misc.obj
 0002:00004f94       __real@41a00000            300c0f94     bg_misc.obj
 0002:00004f98       __real@42100000            300c0f98     bg_misc.obj
 0002:00004f9c       __real@42200000            300c0f9c     bg_misc.obj
 0002:00004fa0       __real@42480000            300c0fa0     bg_misc.obj
 0002:00004fa4       __real@42800000            300c0fa4     bg_misc.obj
 0002:00004fa8       __real@43800000            300c0fa8     bg_misc.obj
 0002:00004fac       __real@44480000            300c0fac     bg_misc.obj
 0002:00004fb0       __real@44960000            300c0fb0     bg_misc.obj
 0002:00004fb4       __real@461c4000            300c0fb4     bg_misc.obj
 0002:00004fb8       __real@c2100000            300c0fb8     bg_misc.obj
 0002:00004fbc       __real@c47a0000            300c0fbc     bg_misc.obj
 0002:00004fc0       __real@c61c4000            300c0fc0     bg_misc.obj
 0002:00004fd0       __xmm@80000000800000008000000080000000 300c0fd0     bg_misc.obj
 0002:00004fe0       ??_C@_0O@OMFCNGJJ@delta?3?5?$CF5?42f?6@ 300c0fe0     bg_pmove.obj
 0002:00004ff0       ??_C@_0N@KJCNHCBK@?$CFi?3allsolid?6@ 300c0ff0     bg_pmove.obj
 0002:00005000       ??_C@_08EOGJDHPF@?$CFi?3lift?6@ 300c1000     bg_pmove.obj
 0002:0000500c       ??_C@_0M@CKJFDFGH@?$CFi?3kickoff?6@ 300c100c     bg_pmove.obj
 0002:00005018       ??_C@_09OPMLNNOA@?$CFi?3steep?6@ 300c1018     bg_pmove.obj
 0002:00005024       ??_C@_08KACHPCJN@?$CFi?3Land?6@ 300c1024     bg_pmove.obj
 0002:00005030       __real@0000000000000000    300c1030     bg_pmove.obj
 0002:00005038       __real@3c800000            300c1038     bg_pmove.obj
 0002:0000503c       __real@3e19999a            300c103c     bg_pmove.obj
 0002:00005040       __real@3e4ccccd            300c1040     bg_pmove.obj
 0002:00005044       __real@3e800000            300c1044     bg_pmove.obj
 0002:00005048       __real@3ea8f5c3            300c1048     bg_pmove.obj
 0002:0000504c       __real@3ecccccd            300c104c     bg_pmove.obj
 0002:00005050       __real@3ee66666            300c1050     bg_pmove.obj
 0002:00005054       __real@3f19999a            300c1054     bg_pmove.obj
 0002:00005058       __real@3f1a36e2eb1c432d    300c1058     bg_pmove.obj
 0002:00005060       __real@3f266666            300c1060     bg_pmove.obj
 0002:00005064       __real@3f28f5c3            300c1064     bg_pmove.obj
 0002:00005068       __real@3f400000            300c1068     bg_pmove.obj
 0002:0000506c       __real@3f666666            300c106c     bg_pmove.obj
 0002:00005070       __real@3f76800000000000    300c1070     bg_pmove.obj
 0002:00005078       __real@3fcccccd            300c1078     bg_pmove.obj
 0002:00005080       __real@3fd0000000000000    300c1080     bg_pmove.obj
 0002:00005088       __real@3fe6666666666666    300c1088     bg_pmove.obj
 0002:00005090       __real@3fe8000000000000    300c1090     bg_pmove.obj
 0002:00005098       __real@3feccccccccccccd    300c1098     bg_pmove.obj
 0002:000050a0       __real@3ff8000000000000    300c10a0     bg_pmove.obj
 0002:000050a8       __real@4004000000000000    300c10a8     bg_pmove.obj
 0002:000050b0       __real@4008000000000000    300c10b0     bg_pmove.obj
 0002:000050b8       __real@40400000            300c10b8     bg_pmove.obj
 0002:000050c0       __real@405fc00000000000    300c10c0     bg_pmove.obj
 0002:000050c8       __real@408f400000000000    300c10c8     bg_pmove.obj
 0002:000050d0       __real@40a00000            300c10d0     bg_pmove.obj
 0002:000050d4       __real@41200000            300c10d4     bg_pmove.obj
 0002:000050d8       __real@41600000            300c10d8     bg_pmove.obj
 0002:000050dc       __real@41900000            300c10dc     bg_pmove.obj
 0002:000050e0       __real@41e00000            300c10e0     bg_pmove.obj
 0002:000050e4       __real@41f00000            300c10e4     bg_pmove.obj
 0002:000050e8       __real@42000000            300c10e8     bg_pmove.obj
 0002:000050ec       __real@421b0000            300c10ec     bg_pmove.obj
 0002:000050f0       __real@42400000            300c10f0     bg_pmove.obj
 0002:000050f4       __real@42680000            300c10f4     bg_pmove.obj
 0002:000050f8       __real@42700000            300c10f8     bg_pmove.obj
 0002:000050fc       __real@42860000            300c10fc     bg_pmove.obj
 0002:00005100       __real@429a0000            300c1100     bg_pmove.obj
 0002:00005104       __real@42f00000            300c1104     bg_pmove.obj
 0002:00005108       __real@42fe0000            300c1108     bg_pmove.obj
 0002:0000510c       __real@43340000            300c110c     bg_pmove.obj
 0002:00005110       __real@43480000            300c1110     bg_pmove.obj
 0002:00005114       __real@437f0000            300c1114     bg_pmove.obj
 0002:00005118       __real@43870000            300c1118     bg_pmove.obj
 0002:0000511c       __real@43960000            300c111c     bg_pmove.obj
 0002:00005120       __real@43b40000            300c1120     bg_pmove.obj
 0002:00005124       __real@43c80000            300c1124     bg_pmove.obj
 0002:00005128       __real@43fa0000            300c1128     bg_pmove.obj
 0002:0000512c       __real@44bb8000            300c112c     bg_pmove.obj
 0002:00005130       __real@44fa0000            300c1130     bg_pmove.obj
 0002:00005134       __real@451c4000            300c1134     bg_pmove.obj
 0002:00005138       __real@459c4000            300c1138     bg_pmove.obj
 0002:0000513c       __real@469c4000            300c113c     bg_pmove.obj
 0002:00005140       __real@46fa0000            300c1140     bg_pmove.obj
 0002:00005144       __real@46fffe00            300c1144     bg_pmove.obj
 0002:00005148       __real@47800000            300c1148     bg_pmove.obj
 0002:0000514c       __real@80000000            300c114c     bg_pmove.obj
 0002:00005150       __real@bf800000            300c1150     bg_pmove.obj
 0002:00005158       __real@c069000000000000    300c1158     bg_pmove.obj
 0002:00005160       __real@c1000000            300c1160     bg_pmove.obj
 0002:00005164       __real@c1a00000            300c1164     bg_pmove.obj
 0002:00005168       __real@c1e00000            300c1168     bg_pmove.obj
 0002:0000516c       __real@c1f00000            300c116c     bg_pmove.obj
 0002:00005170       __real@c2000000            300c1170     bg_pmove.obj
 0002:00005174       __real@c2700000            300c1174     bg_pmove.obj
 0002:00005178       __real@c3340000            300c1178     bg_pmove.obj
 0002:0000517c       __real@c3480000            300c117c     bg_pmove.obj
 0002:00005180       __real@c35c0000            300c1180     bg_pmove.obj
 0002:00005190       __xmm@41f00000000000000000000000000000 300c1190     bg_pmove.obj
 0002:000051a0       __xmm@7fffffffffffffff7fffffffffffffff 300c11a0     bg_pmove.obj
 0002:000051b0       ??_C@_0BF@DLOFDPCB@?$CFi?3?$CFd?5?$CFd?5?$CI?$CFf?5?$CFf?5?$CFf?$CJ?6@ 300c11b0     bg_slidemove.obj
 0002:000051c8       ??_C@_0BH@DOOHOMNP@?$CFi?3planevelocitynudge?6@ 300c11c8     bg_slidemove.obj
 0002:000051e0       ??_C@_0BF@BGNDKOKH@?$CFi?3planeoriginnudge?6@ 300c11e0     bg_slidemove.obj
 0002:000051f8       ??_C@_0DG@KNLEOEAO@?$CFi?3PM_SlideMove?5solidified?$CB?5?$CI?$CFf@ 300c11f8     bg_slidemove.obj
 0002:00005230       ??_C@_0N@BGDIHLMO@?$CFi?3stepping?6@ 300c1230     bg_slidemove.obj
 0002:00005240       ??_C@_0BE@FLPNHHPN@?$CFi?3bend?5can?8t?5step?6@ 300c1240     bg_slidemove.obj
 0002:00005254       ??_C@_0BF@BELANBME@?$CFi?3legs?5unsteppable?6@ 300c1254     bg_slidemove.obj
 0002:0000526c       ??_C@_0BF@JDOKPPHD@?$CFi?3head?5unsteppable?6@ 300c126c     bg_slidemove.obj
 0002:00005284       ??_C@_0M@CDHDENEF@?$CFi?3stepped?6@ 300c1284     bg_slidemove.obj
 0002:00005290       __real@3fb999999999999a    300c1290     bg_slidemove.obj
 0002:00005298       __real@3fefae147ae147ae    300c1298     bg_slidemove.obj
 0002:000052a0       __real@41300000            300c12a0     bg_slidemove.obj
 0002:000052a4       __real@41700000            300c12a4     bg_slidemove.obj
 0002:000052a8       ??_C@_05GPLCCBII@noise@    300c12a8     bg_sscript.obj
 0002:000052b0       ??_C@_0BI@GHFIMFBH@expected?5sound?5filename@ 300c12b0     bg_sscript.obj
 0002:000052c8       ??_C@_06NHCMNMEH@origin@   300c12c8     bg_sscript.obj
 0002:000052d0       ??_C@_0BH@LIIBPPDO@expected?5origin?5vector@ 300c12d0     bg_sscript.obj
 0002:000052e8       ??_C@_0L@FEPNPAJD@targetname@ 300c12e8     bg_sscript.obj
 0002:000052f4       ??_C@_0BL@PCHAPEJJ@expected?5targetname?5string@ 300c12f4     bg_sscript.obj
 0002:00005310       ??_C@_06OIPHFMPH@looped@   300c1310     bg_sscript.obj
 0002:00005318       ??_C@_0BE@FBDIKLHP@expected?5loop?5value@ 300c1318     bg_sscript.obj
 0002:0000532c       ??_C@_02KAJCLHKP@no@       300c132c     bg_sscript.obj
 0002:00005330       ??_C@_02LIELOMNJ@on@       300c1330     bg_sscript.obj
 0002:00005334       ??_C@_03MCADLMAF@off@      300c1334     bg_sscript.obj
 0002:00005338       ??_C@_0BI@KFDHNDG@unknown?5loop?5value?5?8?$CFs?8@ 300c1338     bg_sscript.obj
 0002:00005350       ??_C@_09OALBOHJN@broadcast@ 300c1350     bg_sscript.obj
 0002:0000535c       ??_C@_0BJ@JOACKLLF@expected?5broadcast?5value@ 300c135c     bg_sscript.obj
 0002:00005378       ??_C@_06FJKEMHGD@global@   300c1378     bg_sscript.obj
 0002:00005380       ??_C@_05FIPAEOKB@nopvs@    300c1380     bg_sscript.obj
 0002:00005388       ??_C@_0BN@JLHOEDMA@unknown?5broadcast?5value?5?8?$CFs?8@ 300c1388     bg_sscript.obj
 0002:000053a8       ??_C@_04PNOAOIAG@wait@     300c13a8     bg_sscript.obj
 0002:000053b0       ??_C@_0BE@DFHGKPDD@expected?5wait?5value@ 300c13b0     bg_sscript.obj
 0002:000053c4       ??_C@_0BJ@PGOGNFP@wait?5value?5?$CFi?5is?5invalid@ 300c13c4     bg_sscript.obj
 0002:000053e0       ??_C@_06NLFCANPD@random@   300c13e0     bg_sscript.obj
 0002:000053e8       ??_C@_0BG@GDKLDMEN@expected?5random?5value@ 300c13e8     bg_sscript.obj
 0002:00005400       ??_C@_0BL@BOANIFFK@random?5value?5?$CFi?5is?5invalid@ 300c1400     bg_sscript.obj
 0002:0000541c       ??_C@_06EMCPHFGM@volume@   300c141c     bg_sscript.obj
 0002:00005424       ??_C@_0BG@CHDAOFOB@expected?5volume?5value@ 300c1424     bg_sscript.obj
 0002:0000543c       ??_C@_0BL@CPEGNHLM@volume?5value?5?$CFi?5is?5invalid@ 300c143c     bg_sscript.obj
 0002:00005458       ??_C@_05CCGOGOBM@range@    300c1458     bg_sscript.obj
 0002:00005460       ??_C@_0BF@LOFBMHHF@expected?5range?5value@ 300c1460     bg_sscript.obj
 0002:00005478       ??_C@_0BK@DOCPEFLL@range?5value?5?$CFi?5is?5invalid@ 300c1478     bg_sscript.obj
 0002:00005494       ??_C@_0BI@DFPPPHLE@Failed?5to?5store?5speaker@ 300c1494     bg_sscript.obj
 0002:000054ac       ??_C@_0O@LEFAMCBJ@speakerScript@ 300c14ac     bg_sscript.obj
 0002:000054bc       ??_C@_0BH@GCCFPLDO@expected?5?8soundScript?8@ 300c14bc     bg_sscript.obj
 0002:000054d4       ??_C@_0L@DEBDKEGO@speakerDef@ 300c14d4     bg_sscript.obj
 0002:00005670       ??_C@_0DB@OINKJHCO@Can?5only?5generate?5a?5tracemap?5in@ 300c1670     bg_tracemap.obj
 0002:000056a8       ??_C@_0EL@ONLKFGNE@Need?5valid?5mapcoords?5in?5the?5wor@ 300c16a8     bg_tracemap.obj
 0002:000056f4       ??_C@_0BO@IEPJGDEL@Mapcoords?5need?5to?5be?5square?4?6@ 300c16f4     bg_tracemap.obj
 0002:00005714       ??_C@_0CO@FIIAPGNO@Generating?5level?5heightmap?5and?5@ 300c1714     bg_tracemap.obj
 0002:00005744       ??_C@_0DK@INKLFHAK@?$CFi?5of?5?$CFi?5gridpoints?5calculated?5@ 300c1744     bg_tracemap.obj
 0002:00005780       ??_C@_0CK@BBFLBLPE@Generating?5sky?5heightmap?5and?5sk@ 300c1780     bg_tracemap.obj
 0002:000057ac       ??_C@_0BN@DONDPIEN@Generating?5sky?5groundmap?4?4?4?6@ 300c17ac     bg_tracemap.obj
 0002:000057cc       ??_C@_0BF@EOCEHCLN@maps?1?$CFs_tracemap?4tga@ 300c17cc     bg_tracemap.obj
 0002:000057e4       ??_C@_0BD@IPJPEEBK@TRUEVISION?9XFILE?4?$AA@ 300c17e4     bg_tracemap.obj
 0002:000057f8       __real@37800000            300c17f8     bg_tracemap.obj
 0002:000057fc       __real@3b800000            300c17fc     bg_tracemap.obj
 0002:00005800       __real@42c80000            300c1800     bg_tracemap.obj
 0002:00005804       __real@437e0000            300c1804     bg_tracemap.obj
 0002:00005808       __real@c7800000            300c1808     bg_tracemap.obj
 0002:0000580c       ??_C@_01GAPBHFFA@T@        300c180c     cg_atmospheric.obj
 0002:00005810       ??_C@_0CM@CGNCCNFL@Atmospheric?5effect?5must?5start?5w@ 300c1810     cg_atmospheric.obj
 0002:0000583c       ??_C@_04EJBHHPNF@RAIN@     300c183c     cg_atmospheric.obj
 0002:00005844       ??_C@_04LDJJJDJJ@SNOW@     300c1844     cg_atmospheric.obj
 0002:0000584c       ??_C@_0DD@OJOGLGKI@Only?5effect?5type?5?8rain?8?5and?5?8sn@ 300c184c     cg_atmospheric.obj
 0002:00005880       ??_C@_01HMGJMAIH@B@        300c1880     cg_atmospheric.obj
 0002:00005884       ??_C@_01BBODEMC@G@         300c1884     cg_atmospheric.obj
 0002:00005888       ??_C@_02JPEBIFJB@BV@       300c1888     cg_atmospheric.obj
 0002:0000588c       ??_C@_02JJIKEHHK@GV@       300c188c     cg_atmospheric.obj
 0002:00005890       ??_C@_01ELNMCGJD@W@        300c1890     cg_atmospheric.obj
 0002:00005894       ??_C@_01CKDDGHAB@D@        300c1894     cg_atmospheric.obj
 0002:00005898       ??_C@_01IGIGCIAN@H@        300c1898     cg_atmospheric.obj
 0002:0000589c       ??_C@_0BK@GBEJKPKM@Unknown?5effect?5key?5?8?$CFs?8?4?6@ 300c189c     cg_atmospheric.obj
 0002:000058b8       ??_C@_0BC@IDOJHHGK@gfx?1misc?1raindrop@ 300c18b8     cg_atmospheric.obj
 0002:000058cc       ??_C@_0O@KCLMJMJN@gfx?1misc?1snow@ 300c18cc     cg_atmospheric.obj
 0002:000058dc       __real@3627c5ac            300c18dc     cg_atmospheric.obj
 0002:000058e0       __real@38800000            300c18e0     cg_atmospheric.obj
 0002:000058e4       __real@3d000000            300c18e4     cg_atmospheric.obj
 0002:000058e8       __real@3fc999999999999a    300c18e8     cg_atmospheric.obj
 0002:000058f0       __real@3fe3333333333333    300c18f0     cg_atmospheric.obj
 0002:000058f8       __real@4039000000000000    300c18f8     cg_atmospheric.obj
 0002:00005900       __real@4059000000000000    300c1900     cg_atmospheric.obj
 0002:00005908       __real@4062c00000000000    300c1908     cg_atmospheric.obj
 0002:00005910       __real@41c00000            300c1910     cg_atmospheric.obj
 0002:00005914       __real@46800000            300c1914     cg_atmospheric.obj
 0002:00005918       __real@48742400            300c1918     cg_atmospheric.obj
 0002:0000591c       __real@49742400            300c191c     cg_atmospheric.obj
 0002:00005920       ??_C@_09MMNDMAAO@md3_beltr@ 300c1920     cg_character.obj
 0002:0000592c       ??_C@_09BIJCPPNB@md3_beltl@ 300c192c     cg_character.obj
 0002:00005938       ??_C@_08GBLMILKE@md3_belt@ 300c1938     cg_character.obj
 0002:00005944       ??_C@_08CINIFFFA@md3_back@ 300c1944     cg_character.obj
 0002:00005950       ??_C@_0L@EKOAGIEC@md3_weapon@ 300c1950     cg_character.obj
 0002:0000595c       ??_C@_0M@HFOIJEKF@md3_weapon2@ 300c195c     cg_character.obj
 0002:00005968       ??_C@_07GKLDBCBK@md3_hat@  300c1968     cg_character.obj
 0002:00005970       ??_C@_08EAOAFBIB@md3_rank@ 300c1970     cg_character.obj
 0002:0000597c       ??_C@_08BAHIBOBJ@md3_hat2@ 300c197c     cg_character.obj
 0002:00005988       ??_C@_08JGDCPFI@md3_hat3@  300c1988     cg_character.obj
 0002:00005994       ??_C@_0BC@NFDFKMPA@File?5?$CFs?5too?5long?6@ 300c1994     cg_character.obj
 0002:000059a8       ??_C@_0CK@CNLNMJAI@Error?5parsing?5hud?5head?5animatio@ 300c19a8     cg_character.obj
 0002:000059d4       ??_C@_0N@JEANHOIJ@tag_footleft@ 300c19d4     cg_character.obj
 0002:000059e4       ??_C@_0O@IOAPDJJD@tag_footright@ 300c19e4     cg_character.obj
 0002:000059f8       ??_C@_0EF@ENLFIAKD@CG_CalcMoveSpeeds?3?5unable?5to?5fi@ 300c19f8     cg_character.obj
 0002:00005a40       ??_C@_0BF@JEJBGGAB@File?5?$CFs?5is?5too?5long?6@ 300c1a40     cg_character.obj
 0002:00005a58       ??_C@_0DH@LGILPEOC@unable?5to?5find?5a?5free?5modelinfo@ 300c1a58     cg_character.obj
 0002:00005a90       ??_C@_08LIAPLKP@_?$CFs?4skin@ 300c1a90     cg_character.obj
 0002:00005a9c       ??_C@_0DO@BDMGLANE@?$FO3WARNING?3?5failed?5to?5register?5m@ 300c1a9c     cg_character.obj
 0002:00005adc       ??_C@_0L@GMLLEDOD@?$CFs_?$CFs?4skin@ 300c1adc     cg_character.obj
 0002:00005ae8       ??_C@_0DO@FEJBPNLC@?$FO3WARNING?3?5failed?5to?5register?5s@ 300c1ae8     cg_character.obj
 0002:00005b28       ??_C@_0EJ@LEMEINF@?$FO3WARNING?3?5failed?5to?5register?5a@ 300c1b28     cg_character.obj
 0002:00005b74       ??_C@_0BF@NBCNENBO@models?1gibs?1foot?4md3@ 300c1b74     cg_character.obj
 0002:00005b8c       ??_C@_0BE@PBDAJPPM@models?1gibs?1leg?4md3@ 300c1b8c     cg_character.obj
 0002:00005ba0       ??_C@_0BI@KACGLCGL@models?1gibs?1abdomen?4md3@ 300c1ba0     cg_character.obj
 0002:00005bb8       ??_C@_0BK@EGFHPFIO@models?1gibs?1intestine?4md3@ 300c1bb8     cg_character.obj
 0002:00005bd4       ??_C@_0BI@NDPGKIHD@models?1gibs?1forearm?4md3@ 300c1bd4     cg_character.obj
 0002:00005bec       ??_C@_0BG@GCKMGPLF@models?1gibs?1skull?4md3@ 300c1bec     cg_character.obj
 0002:00005c08       ??_C@_0FA@DENACLMD@?$FO3WARNING?3?5failed?5to?5register?5u@ 300c1c08     cg_character.obj
 0002:00005c58       ??_C@_0EP@IAMHECEE@?$FO3WARNING?3?5failed?5to?5register?5u@ 300c1c58     cg_character.obj
 0002:00005ca8       ??_C@_0EI@GDHGIPCH@?$FO3WARNING?3?5failed?5to?5register?5h@ 300c1ca8     cg_character.obj
 0002:00005cf0       ??_C@_0EH@EONGIDDA@?$FO3WARNING?3?5failed?5to?5register?5h@ 300c1cf0     cg_character.obj
 0002:00005d38       ??_C@_0EN@BFPGCLPN@?$FO3WARNING?3?5failed?5to?5register?5h@ 300c1d38     cg_character.obj
 0002:00005d88       ??_C@_0DE@NLADIFH@?$FO3WARNING?3?5no?5hud?5head?5animatio@ 300c1d88     cg_character.obj
 0002:00005dc0       ??_C@_0EA@MHDFNFLF@?$FO3WARNING?3?5failed?5to?5load?5anima@ 300c1dc0     cg_character.obj
 0002:00005e00       ??_C@_04LBNBCLPC@Axis@     300c1e00     cg_character.obj
 0002:00005e08       ??_C@_06KKLIBEMA@Allied@   300c1e08     cg_character.obj
 0002:00005e10       ??_C@_0FD@GFIAPOJG@ERROR?3?5CG_RegisterPlayerClasses@ 300c1e10     cg_character.obj
 0002:00005e64       ??_C@_0DJ@NEDFDLNH@?$FO3WARNING?3?5failed?5to?5load?5class@ 300c1e64     cg_character.obj
 0002:00005ea0       ??_C@_0DJ@MJBJMCII@?$FO3WARNING?3?5failed?5to?5load?5icon?5@ 300c1ea0     cg_character.obj
 0002:00005edc       ??_C@_05IFGJJDPH@cvops@    300c1edc     cg_character.obj
 0002:00005ee4       ??_C@_0BC@DMNAKHCL@body_soldier?4skin@ 300c1ee4     cg_character.obj
 0002:00005ef8       ??_C@_0BA@FGJMDIIF@body_medic?4skin@ 300c1ef8     cg_character.obj
 0002:00005f08       ??_C@_0BD@JBAPJBHE@body_engineer?4skin@ 300c1f08     cg_character.obj
 0002:00005f1c       ??_C@_0BD@BNFBKOIG@body_fieldops?4skin@ 300c1f1c     cg_character.obj
 0002:00005f30       ??_C@_0BA@EOAMABHL@body_cvops?4skin@ 300c1f30     cg_character.obj
 0002:00005f40       ??_C@_0BE@CMLAKDBB@helmet_soldier?4skin@ 300c1f40     cg_character.obj
 0002:00005f54       ??_C@_0BC@PIMKKHHB@helmet_medic?4skin@ 300c1f54     cg_character.obj
 0002:00005f68       ??_C@_0BF@FHBDCIMC@helmet_engineer?4skin@ 300c1f68     cg_character.obj
 0002:00005f80       ??_C@_0BF@NLENBHDA@helmet_fieldops?4skin@ 300c1f80     cg_character.obj
 0002:00005f98       ??_C@_0P@INEGCMEM@cap_cvops?4skin@ 300c1f98     cg_character.obj
 0002:00005fa8       ??_C@_02KOENHEAE@ax@       300c1fa8     cg_character.obj
 0002:00005fac       ??_C@_02IAODKDFB@al@       300c1fac     cg_character.obj
 0002:00005fb0       ??_C@_07LKFPCN@members@    300c1fb0     cg_character.obj
 0002:00005fb8       ??_C@_06LNOAONPG@admins@   300c1fb8     cg_character.obj
 0002:00005fc0       ??_C@_07BCGOFIOM@players@  300c1fc0     cg_character.obj
 0002:00005fc8       ??_C@_06FEMFHOOG@models@   300c1fc8     cg_character.obj
 0002:00005fd0       ??_C@_0BD@HOOAHBML@?$CFs?$CFc?$CFs?$CFc?$CFs?$CFc?$CFs?$CFc?$CFs@ 300c1fd0     cg_character.obj
 0002:00005fe4       ??_C@_0P@HEEBENPE@character?5mods@ 300c1fe4     cg_character.obj
 0002:00005ff4       ??_C@_0CJ@PFBDHDJD@?$FO3WARNING?3?5failed?5to?5register?5s@ 300c1ff4     cg_character.obj
 0002:00006020       ??_C@_0ED@IAPPNGEE@?$FO3WARNING?3?5failed?5to?5register?5a@ 300c2020     cg_character.obj
 0002:00006064       ??_C@_0CN@CFIPODDI@?$FO3Warning?3?5no?5valid?5command?5map@ 300c2064     cg_commandmap.obj
 0002:00006094       ??_C@_02NJPGOMH@?$CFf@     300c2094     cg_commandmap.obj
 0002:00006098       ??_C@_0L@ONGMFGLC@cg_mapzoom@ 300c2098     cg_commandmap.obj
 0002:000060a4       ??_C@_02IKAHHCAI@?$CFi@    300c20a4     cg_commandmap.obj
 0002:000060a8       ??_C@_01GBGANLPD@0@        300c20a8     cg_commandmap.obj
 0002:000060ac       ??_C@_0BA@PGEDLJDM@?$CFs?5?$CITroops?3?5?$CFi?$CJ@ 300c20ac     cg_commandmap.obj
 0002:000060bc       ??_C@_0N@KCKPNKIN@?$CITroops?3?5?$CFi?$CJ@ 300c20bc     cg_commandmap.obj
 0002:000060cc       ??_C@_0P@BIFBDOGG@setspawnpt?5?$CFi?6@ 300c20cc     cg_commandmap.obj
 0002:000060dc       __real@3e480000            300c20dc     cg_commandmap.obj
 0002:000060e0       __real@3e780000            300c20e0     cg_commandmap.obj
 0002:000060e4       __real@3e9c0000            300c20e4     cg_commandmap.obj
 0002:000060e8       __real@3f3e0000            300c20e8     cg_commandmap.obj
 0002:000060ec       __real@3fc00000            300c20ec     cg_commandmap.obj
 0002:000060f0       __real@3fe4000000000000    300c20f0     cg_commandmap.obj
 0002:000060f8       __real@3ff3333333333333    300c20f8     cg_commandmap.obj
 0002:00006100       __real@400921fb60000000    300c2100     cg_commandmap.obj
 0002:00006108       __real@4014a2d0e5604189    300c2108     cg_commandmap.obj
 0002:00006110       __real@401db851eb851eb8    300c2110     cg_commandmap.obj
 0002:00006118       __real@4028000000000000    300c2118     cg_commandmap.obj
 0002:00006120       __real@4040000000000000    300c2120     cg_commandmap.obj
 0002:00006128       __real@4048000000000000    300c2128     cg_commandmap.obj
 0002:00006130       __real@40edc28f            300c2130     cg_commandmap.obj
 0002:00006134       __real@41000000            300c2134     cg_commandmap.obj
 0002:00006138       __real@41400000            300c2138     cg_commandmap.obj
 0002:0000613c       __real@41b80000            300c213c     cg_commandmap.obj
 0002:00006140       __real@42340000            300c2140     cg_commandmap.obj
 0002:00006144       __real@43000000            300c2144     cg_commandmap.obj
 0002:00006148       __real@43040000            300c2148     cg_commandmap.obj
 0002:0000614c       __real@43160000            300c214c     cg_commandmap.obj
 0002:00006150       __real@437a0000            300c2150     cg_commandmap.obj
 0002:00006154       __real@43860000            300c2154     cg_commandmap.obj
 0002:00006158       __real@43b00000            300c2158     cg_commandmap.obj
 0002:0000615c       __real@43bf0000            300c215c     cg_commandmap.obj
 0002:00006160       __real@44228000            300c2160     cg_commandmap.obj
 0002:00006164       __real@442f0000            300c2164     cg_commandmap.obj
 0002:00006170       __xmm@3f400000000000000000000000000000 300c2170     cg_commandmap.obj
 0002:00006180       __xmm@3f8000003f8000003f8000003f800000 300c2180     cg_commandmap.obj
 0002:00006190       ??_C@_0BB@MJMOCNNN@?$CI?$CFi?5?$CFi?5?$CFi?$CJ?5?3?5?$CFi?6@ 300c2190     cg_consolecmds.obj
 0002:000061a4       ??_C@_0DK@NNLEOPLP@You?5must?5be?5a?5player?5or?5followi@ 300c21a4     cg_consolecmds.obj
 0002:000061e0       ??_C@_0L@LNJCBCJN@sgstats?5?$CFd@ 300c21e0     cg_consolecmds.obj
 0002:000061f0       ??_C@_0EN@PGJCCLAA@?$FO2Loaded?5default?5HUD?4?5Type?5?$FO3?1l@ 300c21f0     cg_consolecmds.obj
 0002:00006240       ??_C@_0BM@JAPBLPFD@?$FO3Available?5HUDs?5are?3?$FO2?5?$CFs?6@ 300c2240     cg_consolecmds.obj
 0002:0000625c       ??_C@_06NKEGMKPF@cg_hud@   300c225c     cg_consolecmds.obj
 0002:00006264       ??_C@_0CB@PGEHOBCN@?$FO2Loaded?5HUD?5settings?5from?5?8?$CFs?8@ 300c2264     cg_consolecmds.obj
 0002:00006288       ??_C@_0GC@LBLACDJH@?$FO1Failed?5?$FO2to?5load?5HUD?5settings@ 300c2288     cg_consolecmds.obj
 0002:000062ec       ??_C@_0L@EGAGNODH@tell?5?$CFi?5?$CFs@ 300c22ec     cg_consolecmds.obj
 0002:000062f8       ??_C@_08MCGBJKBN@IamMedic@ 300c22f8     cg_consolecmds.obj
 0002:00006304       ??_C@_0M@NFMCHGFD@IamEngineer@ 300c2304     cg_consolecmds.obj
 0002:00006310       ??_C@_0M@KHBBMEDE@IamFieldOps@ 300c2310     cg_consolecmds.obj
 0002:0000631c       ??_C@_0N@HOOODACO@IamCovertOps@ 300c231c     cg_consolecmds.obj
 0002:0000632c       ??_C@_0L@KJMBMHH@IamSoldier@ 300c232c     cg_consolecmds.obj
 0002:00006338       ??_C@_0CI@BPBCLLGK@Can?8t?5buddy?5voice?5chat?5as?5a?5spe@ 300c2338     cg_consolecmds.obj
 0002:00006360       ??_C@_0BJ@IFLKBGGI@cmd?5vsay_buddy?5?91?5?$CFs?5?$CFs?6@ 300c2360     cg_consolecmds.obj
 0002:0000637c       ??_C@_0CH@FEADHHMD@Can?8t?5team?5voice?5chat?5as?5a?5spec@ 300c237c     cg_consolecmds.obj
 0002:000063a4       ??_C@_0BC@KMMJHODH@cmd?5vsay_team?5?$CFs?6@ 300c23a4     cg_consolecmds.obj
 0002:000063b8       ??_C@_0N@OAPNJO@cmd?5vsay?5?$CFs?6@ 300c23b8     cg_consolecmds.obj
 0002:000063c8       ??_C@_0N@IDIDIMNN@messagemode2@ 300c23c8     cg_consolecmds.obj
 0002:000063d8       ??_C@_0P@GCBNLPDA@cg_messageType@ 300c23d8     cg_consolecmds.obj
 0002:000063e8       ??_C@_0N@JKJILNJM@messagemode3@ 300c23e8     cg_consolecmds.obj
 0002:000063f8       ??_C@_0P@CFBICFLP@cg_messageText@ 300c23f8     cg_consolecmds.obj
 0002:00006408       ??_C@_0P@BAMGBHOI@say_team?5?$CC?$CFs?$CC?6@ 300c2408     cg_consolecmds.obj
 0002:00006418       ??_C@_0BA@GBDIDJJH@say_buddy?5?$CC?$CFs?$CC?6@ 300c2418     cg_consolecmds.obj
 0002:00006428       ??_C@_09MNFIPOON@say?5?$CC?$CFs?$CC?6@ 300c2428     cg_consolecmds.obj
 0002:00006434       ??_C@_03JIHJHPIE@Jan@      300c2434     cg_consolecmds.obj
 0002:00006438       ??_C@_03HJBDCHOM@Feb@      300c2438     cg_consolecmds.obj
 0002:0000643c       ??_C@_03ODNJBKGA@Mar@      300c243c     cg_consolecmds.obj
 0002:00006440       ??_C@_03LEOLGMJP@Apr@      300c2440     cg_consolecmds.obj
 0002:00006444       ??_C@_03CNMDKL@May@        300c2444     cg_consolecmds.obj
 0002:00006448       ??_C@_03IDFGHECI@Jun@      300c2448     cg_consolecmds.obj
 0002:0000644c       ??_C@_03LBGABGKK@Jul@      300c244c     cg_consolecmds.obj
 0002:00006450       ??_C@_03IFJFEIGA@Aug@      300c2450     cg_consolecmds.obj
 0002:00006454       ??_C@_03GGCAPAJC@Sep@      300c2454     cg_consolecmds.obj
 0002:00006458       ??_C@_03BMAOKBAD@Oct@      300c2458     cg_consolecmds.obj
 0002:0000645c       ??_C@_03JPJOFNIA@Nov@      300c245c     cg_consolecmds.obj
 0002:00006460       ??_C@_03MKABNOCG@Dec@      300c2460     cg_consolecmds.obj
 0002:00006464       ??_C@_09NFOPKLIK@sv_cheats@ 300c2464     cg_consolecmds.obj
 0002:00006470       ??_C@_0CC@EBKLCPFO@editSpeakers?5is?5cheat?5protected@ 300c2470     cg_consolecmds.obj
 0002:00006494       ??_C@_0DK@KPGPJKMI@Speaker?5Edit?5mode?5needs?5to?5be?5a@ 300c2494     cg_consolecmds.obj
 0002:000064d0       ??_C@_0CC@LKFEHJGI@?$FO1ERROR?3?5Failed?5to?5store?5speake@ 300c24d0     cg_consolecmds.obj
 0002:000064f4       ??_C@_0M@NHEBONIJ@forcetapout@ 300c24f4     cg_consolecmds.obj
 0002:00006500       ??_C@_0GG@IGNMKPLA@loadfont?3?5usage?5?1loadfont?5?$DM1?42?4@ 300c2500     cg_consolecmds.obj
 0002:00006568       ??_C@_08LMJEPNLL@defaults@ 300c2568     cg_consolecmds.obj
 0002:00006574       ??_C@_06MLHBGBIG@ariblk@   300c2574     cg_consolecmds.obj
 0002:0000657c       ??_C@_06JLKJHNDD@courbd@   300c257c     cg_consolecmds.obj
 0002:00006584       ??_C@_0CN@JLNICMNA@loadfont?3?5font?5number?5must?5be?51@ 300c2584     cg_consolecmds.obj
 0002:000065b4       ??_C@_0CK@HJIHLKCN@loadfont?3?5could?5not?5load?5fonts?1@ 300c25b4     cg_consolecmds.obj
 0002:000065e0       ??_C@_07OFBIMGPG@testgun@  300c25e0     cg_consolecmds.obj
 0002:000065e8       ??_C@_09FDMDKFOH@testmodel@ 300c25e8     cg_consolecmds.obj
 0002:000065f4       ??_C@_09CEJNBBKD@nextframe@ 300c25f4     cg_consolecmds.obj
 0002:00006600       ??_C@_09KFHKLKJD@prevframe@ 300c2600     cg_consolecmds.obj
 0002:0000660c       ??_C@_08LEEFJCLI@nextskin@ 300c260c     cg_consolecmds.obj
 0002:00006618       ??_C@_08ONPIGPGM@prevskin@ 300c2618     cg_consolecmds.obj
 0002:00006624       ??_C@_07NBKBBFDF@viewpos@  300c2624     cg_consolecmds.obj
 0002:0000662c       ??_C@_07PNHLECKB@?$CLscores@ 300c262c     cg_consolecmds.obj
 0002:00006634       ??_C@_07DLBEELCG@?9scores@ 300c2634     cg_consolecmds.obj
 0002:0000663c       ??_C@_06LNHPGLKP@zoomin@   300c263c     cg_consolecmds.obj
 0002:00006644       ??_C@_07DIJPGOKN@zoomout@  300c2644     cg_consolecmds.obj
 0002:0000664c       ??_C@_0N@MPOIEII@weaplastused@ 300c264c     cg_consolecmds.obj
 0002:0000665c       ??_C@_0P@JENFEBHJ@weapnextinbank@ 300c265c     cg_consolecmds.obj
 0002:0000666c       ??_C@_0P@LCINJGHO@weapprevinbank@ 300c266c     cg_consolecmds.obj
 0002:0000667c       ??_C@_08IJHOKAF@weapnext@  300c267c     cg_consolecmds.obj
 0002:00006688       ??_C@_08DMEBPOGB@weapprev@ 300c2688     cg_consolecmds.obj
 0002:00006694       ??_C@_07FGLIPJLN@weapalt@  300c2694     cg_consolecmds.obj
 0002:0000669c       ??_C@_06GEPNGEJI@weapon@   300c269c     cg_consolecmds.obj
 0002:000066a4       ??_C@_0L@HIMPHAAL@weaponbank@ 300c26a4     cg_consolecmds.obj
 0002:000066b0       ??_C@_0M@IEEMCPKO@tell_target@ 300c26b0     cg_consolecmds.obj
 0002:000066bc       ??_C@_0O@CIPPGGPC@tell_attacker@ 300c26bc     cg_consolecmds.obj
 0002:000066cc       ??_C@_04FNICOANA@tcmd@     300c26cc     cg_consolecmds.obj
 0002:000066d4       ??_C@_04PLGBOGHH@fade@     300c26d4     cg_consolecmds.obj
 0002:000066dc       ??_C@_07GCEEHPOI@loadhud@  300c26dc     cg_consolecmds.obj
 0002:000066e4       ??_C@_07PDLPCFNG@edithud@  300c26e4     cg_consolecmds.obj
 0002:000066ec       ??_C@_07JAKNFGOE@dumphud@  300c26ec     cg_consolecmds.obj
 0002:000066f4       ??_C@_0M@DFILCJLA@loadweapons@ 300c26f4     cg_consolecmds.obj
 0002:00006700       ??_C@_0BA@HNFMENDL@mp_QuickMessage@ 300c2700     cg_consolecmds.obj
 0002:00006710       ??_C@_0P@LMOOPNHB@mp_fireteammsg@ 300c2710     cg_consolecmds.obj
 0002:00006720       ??_C@_0BB@IDOPKHPD@mp_fireteamadmin@ 300c2720     cg_consolecmds.obj
 0002:00006734       ??_C@_0BC@EPIFPIAA@wm_sayPlayerClass@ 300c2734     cg_consolecmds.obj
 0002:00006748       ??_C@_0BE@OHBDAJIO@wm_ftsayPlayerClass@ 300c2748     cg_consolecmds.obj
 0002:0000675c       ??_C@_09KNNOJAOC@classmenu@ 300c275c     cg_consolecmds.obj
 0002:00006768       ??_C@_08MIECFDNG@teammenu@ 300c2768     cg_consolecmds.obj
 0002:00006774       ??_C@_09ILIDJFDJ@spawnmenu@ 300c2774     cg_consolecmds.obj
 0002:00006780       ??_C@_09OFOBLMGC@VoiceChat@ 300c2780     cg_consolecmds.obj
 0002:0000678c       ??_C@_0O@FOJEGFAM@VoiceTeamChat@ 300c278c     cg_consolecmds.obj
 0002:0000679c       ??_C@_0BC@PMFMLABK@VoiceFireTeamChat@ 300c279c     cg_consolecmds.obj
 0002:000067b0       ??_C@_0M@FJBPGEJD@messageMode@ 300c27b0     cg_consolecmds.obj
 0002:000067bc       ??_C@_0N@IECPIJOL@messageMode2@ 300c27bc     cg_consolecmds.obj
 0002:000067cc       ??_C@_0N@JNDELIKK@messageMode3@ 300c27cc     cg_consolecmds.obj
 0002:000067dc       ??_C@_0M@PNPOBJID@messageSend@ 300c27dc     cg_consolecmds.obj
 0002:000067e8       ??_C@_0BD@PJMPKHPK@SetWeaponCrosshair@ 300c27e8     cg_consolecmds.obj
 0002:000067fc       ??_C@_0O@BEIPDODJ@openlimbomenu@ 300c27fc     cg_consolecmds.obj
 0002:0000680c       ??_C@_06PKLNAOFI@?$CLstats@ 300c280c     cg_consolecmds.obj
 0002:00006814       ??_C@_06JJGNDLGC@?9stats@  300c2814     cg_consolecmds.obj
 0002:0000681c       ??_C@_09PDHPNBEE@?$CLtopshots@ 300c281c     cg_consolecmds.obj
 0002:00006828       ??_C@_09POGBKBAD@?9topshots@ 300c2828     cg_consolecmds.obj
 0002:00006834       ??_C@_04DIMIGNMB@?$CLobj@  300c2834     cg_consolecmds.obj
 0002:0000683c       ??_C@_04LHIIJIGB@?9obj@    300c283c     cg_consolecmds.obj
 0002:00006844       ??_C@_0L@LGIGPHNL@autoRecord@ 300c2844     cg_consolecmds.obj
 0002:00006850       ??_C@_0P@KDDEGDPO@autoScreenshot@ 300c2850     cg_consolecmds.obj
 0002:00006860       ??_C@_0M@HIHDAHIM@currentTime@ 300c2860     cg_consolecmds.obj
 0002:0000686c       ??_C@_06FLGBLICP@keyoff@   300c286c     cg_consolecmds.obj
 0002:00006874       ??_C@_05NDBOHMNK@keyon@    300c2874     cg_consolecmds.obj
 0002:0000687c       ??_C@_09HKPHLABP@statsdump@ 300c287c     cg_consolecmds.obj
 0002:00006888       ??_C@_05GCLPGKEM@?$CLvstr@ 300c2888     cg_consolecmds.obj
 0002:00006890       ??_C@_05LEOGIJFB@?9vstr@   300c2890     cg_consolecmds.obj
 0002:00006898       ??_C@_0M@BMHICDGC@selectbuddy@ 300c2898     cg_consolecmds.obj
 0002:000068a4       ??_C@_09LIGFCLLM@MapZoomIn@ 300c28a4     cg_consolecmds.obj
 0002:000068b0       ??_C@_0L@LMCEDFDD@MapZoomOut@ 300c28b0     cg_consolecmds.obj
 0002:000068bc       ??_C@_0L@PFPLBJPJ@?$CLmapexpand@ 300c28bc     cg_consolecmds.obj
 0002:000068c8       ??_C@_0L@BNEONDLK@?9mapexpand@ 300c28c8     cg_consolecmds.obj
 0002:000068d4       ??_C@_0BB@NPIHNJJ@generateTracemap@ 300c28d4     cg_consolecmds.obj
 0002:000068e8       ??_C@_0O@BOIICBEJ@ToggleAutoMap@ 300c28e8     cg_consolecmds.obj
 0002:000068f8       ??_C@_0N@FAOMIOOA@editSpeakers@ 300c28f8     cg_consolecmds.obj
 0002:00006908       ??_C@_0M@IACJFKOE@dumpSpeaker@ 300c2908     cg_consolecmds.obj
 0002:00006914       ??_C@_0O@MIEMAOPF@modifySpeaker@ 300c2914     cg_consolecmds.obj
 0002:00006924       ??_C@_0M@BFCPBOJC@undoSpeaker@ 300c2924     cg_consolecmds.obj
 0002:00006930       ??_C@_03HDIKAFLE@cpm@      300c2930     cg_consolecmds.obj
 0002:00006934       ??_C@_05HEJIIFLI@etpub@    300c2934     cg_consolecmds.obj
 0002:0000693c       ??_C@_06ILBOJLFP@etpubc@   300c293c     cg_consolecmds.obj
 0002:00006944       ??_C@_08EIIMCIDG@hidevote@ 300c2944     cg_consolecmds.obj
 0002:00006950       ??_C@_0O@OCJHLDGC@resetmaxspeed@ 300c2950     cg_consolecmds.obj
 0002:00006960       ??_C@_08GIODBOIL@loadfont@ 300c2960     cg_consolecmds.obj
 0002:0000696c       ??_C@_09FEMGGAEG@hudeditor@ 300c296c     cg_consolecmds.obj
 0002:00006978       ??_C@_07LEFDDMKB@savehud@  300c2978     cg_consolecmds.obj
 0002:00006980       ??_C@_0P@IGGGAKFK@savehudmenucmd@ 300c2980     cg_consolecmds.obj
 0002:00006990       ??_C@_0P@PMGOPOF@loadhudmenucmd@ 300c2990     cg_consolecmds.obj
 0002:000069a0       ??_C@_0BB@OCGKDBPH@cancelhudmenucmd@ 300c29a0     cg_consolecmds.obj
 0002:000069b4       ??_C@_0L@PGGJLCHO@scoreboard@ 300c29b4     cg_consolecmds.obj
 0002:000069c0       ??_C@_08JGKANHAO@timerSet@ 300c29c0     cg_consolecmds.obj
 0002:000069cc       ??_C@_0L@NFJOKNFO@resetTimer@ 300c29cc     cg_consolecmds.obj
 0002:000069d8       ??_C@_08FJOFODJK@gc?5?$CFi?5?$CFi@ 300c29d8     cg_consolecmds.obj
 0002:000069e4       ??_C@_07LAHOAMNC@stshots@  300c29e4     cg_consolecmds.obj
 0002:000069ec       ??_C@_0O@IBIGMJNM@cg_scoreboard@ 300c29ec     cg_consolecmds.obj
 0002:000069fc       ??_C@_05DBKDOICH@score@    300c29fc     cg_consolecmds.obj
 0002:00006a04       ??_C@_04OKBFECHD@?4hud@    300c2a04     cg_consolecmds.obj
 0002:00006a0c       ??_C@_03HDICPLBH@hud@      300c2a0c     cg_consolecmds.obj
 0002:00006a10       ??_C@_07EJBOIIGA@?4camera@ 300c2a10     cg_consolecmds.obj
 0002:00006a18       ??_C@_0L@JCKEIPPM@cameras?1?$CFs@ 300c2a18     cg_consolecmds.obj
 0002:00006a24       ??_C@_0N@PHEFIFOC@cg_letterbox@ 300c2a24     cg_consolecmds.obj
 0002:00006a34       ??_C@_0L@NDBCGBOI@stopCamera@ 300c2a34     cg_consolecmds.obj
 0002:00006a40       ??_C@_0BK@DOEBFACE@Unable?5to?5load?5camera?5?$CFs?6@ 300c2a40     cg_consolecmds.obj
 0002:00006a5c       ??_C@_0BI@FOLFEAAE@vstr?5select_spawnpoint?$DL@ 300c2a5c     cg_consolecmds.obj
 0002:00006a74       ??_C@_0BC@HMNHIKPI@vstr?5select_team?$DL@ 300c2a74     cg_consolecmds.obj
 0002:00006a88       ??_C@_0BD@MEJBENMA@vstr?5select_class?$DL@ 300c2a88     cg_consolecmds.obj
 0002:00006a9c       ??_C@_0CN@BGNEGMCG@Current?5time?3?5?$FO3?$CF02d?3?$CF02d?3?$CF02d?5@ 300c2a9c     cg_consolecmds.obj
 0002:00006acc       ??_C@_0M@JPLEFMGL@stoprecord?6@ 300c2acc     cg_consolecmds.obj
 0002:00006ad8       ??_C@_0L@HLDKKHKG@record?5?$CFs?6@ 300c2ad8     cg_consolecmds.obj
 0002:00006ae4       ??_C@_04CJPKNBEB@JPEG@     300c2ae4     cg_consolecmds.obj
 0002:00006aec       ??_C@_0BB@IBNKHIFE@screenshot?$CFs?5?$CFs?6@ 300c2aec     cg_consolecmds.obj
 0002:00006b00       ??_C@_08NKHFNGLG@vstr?5?$CFs?$DL@ 300c2b00     cg_consolecmds.obj
 0002:00006b0c       ??_C@_0CE@NHGIMHHP@Usage?3?5?$CLvstr?5?$FLdown_vstr?$FN?5?$FLup_vs@ 300c2b0c     cg_consolecmds.obj
 0002:00006b30       ??_C@_0BM@NEJCFPMM@?$FO3?$CK?$CK?$CK?5NOT?5PLAYING?5A?5DEMO?$CB?$CB?6@ 300c2b30     cg_consolecmds.obj
 0002:00006b4c       ??_C@_0M@LMCLABBK@weaponstats@ 300c2b4c     cg_consolecmds.obj
 0002:00006b58       ??_C@_08PANNJPDL@statsall@ 300c2b58     cg_consolecmds.obj
 0002:00006b64       ??_C@_0DL@NNONCCLA@You?5must?5be?5a?5player?5or?5followi@ 300c2b64     cg_consolecmds.obj
 0002:00006ba0       ??_C@_09HFPBHOBN@wstats?5?$CFd@ 300c2ba0     cg_consolecmds.obj
 0002:00006bac       ??_C@_0DB@EJGPNJCL@You?5may?5only?5use?5this?5command?5d@ 300c2bac     cg_consolecmds.obj
 0002:00006be0       ??_C@_02PGHGPEOM@?91@      300c2be0     cg_consolecmds.obj
 0002:00006be4       ??_C@_0BC@KOAFPNOL@cg_spawnTimer_set@ 300c2be4     cg_consolecmds.obj
 0002:00006bf8       ??_C@_0CN@MPIDNGCL@Argument?5must?5be?5a?5number?5betwe@ 300c2bf8     cg_consolecmds.obj
 0002:00006c28       ??_C@_0BF@MOFDCBJK@cg_spawnTimer_period@ 300c2c28     cg_consolecmds.obj
 0002:00006c40       ??_C@_02DPKJAMEF@?$CFd@    300c2c40     cg_consolecmds.obj
 0002:00006c44       ??_C@_0BL@DPJFGHGC@Usage?3?5timerSet?5?$FLseconds?$FN?6@ 300c2c44     cg_consolecmds.obj
 0002:00006c60       ??_C@_01GOHFPIOK@m@        300c2c60     cg_consolecmds.obj
 0002:00006c64       ??_C@_07OFGHNNFP@m?5?$CC?$CFs?$CC?6@ 300c2c64     cg_consolecmds.obj
 0002:00006c6c       ??_C@_04DPFKKOOF@priv@     300c2c6c     cg_consolecmds.obj
 0002:00006c74       ??_C@_0L@DGENKOAO@priv?5?$CC?$CFs?$CC?6@ 300c2c74     cg_consolecmds.obj
 0002:00006c80       ??_C@_02LOCMCGM@mt@        300c2c80     cg_consolecmds.obj
 0002:00006c84       ??_C@_08KIJEFKGL@mt?5?$CC?$CFs?$CC?6@ 300c2c84     cg_consolecmds.obj
 0002:00006c90       ??_C@_02DMFHCEHI@ma@       300c2c90     cg_consolecmds.obj
 0002:00006c94       ??_C@_08JMMPGFCE@ma?5?$CC?$CFs?$CC?6@ 300c2c94     cg_consolecmds.obj
 0002:00006ca0       ??_C@_03BANJEMDJ@say@      300c2ca0     cg_consolecmds.obj
 0002:00006ca4       ??_C@_08NBFNGOHN@say_team@ 300c2ca4     cg_consolecmds.obj
 0002:00006cb0       ??_C@_0L@LLJKFIDI@say_teamnl@ 300c2cb0     cg_consolecmds.obj
 0002:00006cbc       ??_C@_0BB@MPOIFJFI@say_teamnl?5?$CC?$CFs?$CC?6@ 300c2cbc     cg_consolecmds.obj
 0002:00006cd0       ??_C@_09FNPICPOJ@say_buddy@ 300c2cd0     cg_consolecmds.obj
 0002:00006cdc       ??_C@_09EEPCCKEG@cyclechar@ 300c2cdc     cg_consolecmds.obj
 0002:00006ce8       ??_C@_07IFCDPCGC@setchar@  300c2ce8     cg_consolecmds.obj
 0002:00006cf0       ??_C@_04BJJEOANI@kill@     300c2cf0     cg_consolecmds.obj
 0002:00006cf8       ??_C@_0N@OCPECFDF@listbotgoals@ 300c2cf8     cg_consolecmds.obj
 0002:00006d08       ??_C@_04BMBHJADG@give@     300c2d08     cg_consolecmds.obj
 0002:00006d10       ??_C@_03DKFAMNOH@god@      300c2d10     cg_consolecmds.obj
 0002:00006d14       ??_C@_08HPLPOCJL@notarget@ 300c2d14     cg_consolecmds.obj
 0002:00006d20       ??_C@_06IHODGGMJ@noclip@   300c2d20     cg_consolecmds.obj
 0002:00006d28       ??_C@_04KADBPNCB@team@     300c2d28     cg_consolecmds.obj
 0002:00006d30       ??_C@_06HNJAFFAK@follow@   300c2d30     cg_consolecmds.obj
 0002:00006d38       ??_C@_0L@CCEFBCKP@setviewpos@ 300c2d38     cg_consolecmds.obj
 0002:00006d44       ??_C@_08NNMLCPB@callvote@  300c2d44     cg_consolecmds.obj
 0002:00006d50       ??_C@_04GHHIKFLG@vote@     300c2d50     cg_consolecmds.obj
 0002:00006d58       ??_C@_09IDBEKDFK@nofatigue@ 300c2d58     cg_consolecmds.obj
 0002:00006d64       ??_C@_0L@GBHEMAKD@follownext@ 300c2d64     cg_consolecmds.obj
 0002:00006d70       ??_C@_0L@FFKCNEMH@followprev@ 300c2d70     cg_consolecmds.obj
 0002:00006d7c       ??_C@_0M@JHCCCIKI@start_match@ 300c2d7c     cg_consolecmds.obj
 0002:00006d88       ??_C@_0M@IIAFABKB@reset_match@ 300c2d88     cg_consolecmds.obj
 0002:00006d94       ??_C@_0L@NDBOCMOD@swap_teams@ 300c2d94     cg_consolecmds.obj
 0002:00006da0       ??_C@_01OGPIMHDM@?$DP@     300c2da0     cg_consolecmds.obj
 0002:00006da4       ??_C@_0M@CCHDMPPP@bottomshots@ 300c2da4     cg_consolecmds.obj
 0002:00006db0       ??_C@_08BPLPECIC@commands@ 300c2db0     cg_consolecmds.obj
 0002:00006dbc       ??_C@_04MKMCLCOO@lock@     300c2dbc     cg_consolecmds.obj
 0002:00006dc4       ??_C@_08LJDKJCJK@notready@ 300c2dc4     cg_consolecmds.obj
 0002:00006dd0       ??_C@_05PDJBBECF@pause@    300c2dd0     cg_consolecmds.obj
 0002:00006dd8       ??_C@_09COEEGHNO@readyteam@ 300c2dd8     cg_consolecmds.obj
 0002:00006de4       ??_C@_05GLLMDLIO@ready@    300c2de4     cg_consolecmds.obj
 0002:00006dec       ??_C@_03GCDGINBO@ref@      300c2dec     cg_consolecmds.obj
 0002:00006df0       ??_C@_06KBCJDMLG@scores@   300c2df0     cg_consolecmds.obj
 0002:00006df8       ??_C@_0L@BKHPAJFO@specinvite@ 300c2df8     cg_consolecmds.obj
 0002:00006e04       ??_C@_08NIHJCBGL@speclock@ 300c2e04     cg_consolecmds.obj
 0002:00006e10       ??_C@_0L@DCNALHGA@specunlock@ 300c2e10     cg_consolecmds.obj
 0002:00006e1c       ??_C@_06IEGNIIGA@timein@   300c2e1c     cg_consolecmds.obj
 0002:00006e24       ??_C@_07DDHNKDGP@timeout@  300c2e24     cg_consolecmds.obj
 0002:00006e2c       ??_C@_08EBEBFFLL@topshots@ 300c2e2c     cg_consolecmds.obj
 0002:00006e38       ??_C@_06BNCCALCL@unlock@   300c2e38     cg_consolecmds.obj
 0002:00006e40       ??_C@_07BIEIMCKD@unpause@  300c2e40     cg_consolecmds.obj
 0002:00006e48       ??_C@_07IAGFONAI@unready@  300c2e48     cg_consolecmds.obj
 0002:00006e50       ??_C@_08EDAJACMH@fireteam@ 300c2e50     cg_consolecmds.obj
 0002:00006e5c       ??_C@_09JDCAJFKD@showstats@ 300c2e5c     cg_consolecmds.obj
 0002:00006e68       ??_C@_06GDPEBLPA@ignore@   300c2e68     cg_consolecmds.obj
 0002:00006e70       ??_C@_08GHMEOEDD@unignore@ 300c2e70     cg_consolecmds.obj
 0002:00006e7c       ??_C@_07JKJJNDPB@imready@  300c2e7c     cg_consolecmds.obj
 0002:00006e84       ??_C@_0L@OLIPNFOG@setspawnpt@ 300c2e84     cg_consolecmds.obj
 0002:00006e90       ??_C@_04IBCNHBFH@vsay@     300c2e90     cg_consolecmds.obj
 0002:00006e98       ??_C@_0L@MDGCGOMD@vsay_buddy@ 300c2e98     cg_consolecmds.obj
 0002:00006ea4       ??_C@_09CPIJOHHK@vsay_team@ 300c2ea4     cg_consolecmds.obj
 0002:00006eb0       ??_C@_05LCFPHLEE@where@    300c2eb0     cg_consolecmds.obj
 0002:00006eb8       ??_C@_09IDLKKKOH@hitsounds@ 300c2eb8     cg_consolecmds.obj
 0002:00006ec4       ??_C@_06GJOIPFFF@damage@   300c2ec4     cg_consolecmds.obj
 0002:00006ecc       ??_C@_0L@GNLKEPKA@killrating@ 300c2ecc     cg_consolecmds.obj
 0002:00006ed8       ??_C@_0N@JOHGKJON@playerrating@ 300c2ed8     cg_consolecmds.obj
 0002:00006ee8       ??_C@_08EHDDFPCA@playdead@ 300c2ee8     cg_consolecmds.obj
 0002:00006ef4       ??_C@_0L@LACNDKEL@throwknife@ 300c2ef4     cg_consolecmds.obj
 0002:00006f00       ??_C@_0L@BIIOOHAG@adrenother@ 300c2f00     cg_consolecmds.obj
 0002:00006f0c       ??_C@_06EJKEJPDG@knives@   300c2f0c     cg_consolecmds.obj
 0002:00006f14       ??_C@_05ENKANFLO@class@    300c2f14     cg_consolecmds.obj
 0002:00006f1c       ??_C@_08MDIEDLOA@nextteam@ 300c2f1c     cg_consolecmds.obj
 0002:00006f28       ??_C@_0L@KPCNGFPA@dropweapon@ 300c2f28     cg_consolecmds.obj
 0002:00006f34       ??_C@_07HMIBLGBM@sclogin@  300c2f34     cg_consolecmds.obj
 0002:00006f3c       ??_C@_08GKDGHCEG@sclogout@ 300c2f3c     cg_consolecmds.obj
 0002:00006f48       ??_C@_0P@GOPFBLHC@shoutcastlogin@ 300c2f48     cg_consolecmds.obj
 0002:00006f58       ??_C@_0BA@MACOEKLE@shoutcastlogout@ 300c2f58     cg_consolecmds.obj
 0002:00006f68       ??_C@_0L@ECNMBMGE@lua_status@ 300c2f68     cg_consolecmds.obj
 0002:00006f74       ??_C@_0O@DKEDOLPM@etpub_version@ 300c2f74     cg_consolecmds.obj
 0002:00006f84       ??_C@_07BDFIGFL@?$CLlookup@ 300c2f84     cg_consolecmds.obj
 0002:00006f8c       ??_C@_07MHFKIPNM@?9lookup@ 300c2f8c     cg_consolecmds.obj
 0002:00006f94       ??_C@_09KCKOGCLI@?$CLlookdown@ 300c2f94     cg_consolecmds.obj
 0002:00006fa0       ??_C@_09KPLABCPP@?9lookdown@ 300c2fa0     cg_consolecmds.obj
 0002:00006fac       ??_C@_0O@OBMKKPAG@configstrings@ 300c2fac     cg_consolecmds.obj
 0002:00006fbc       ??_C@_0BB@NOBONEMH@scripts?1?$CFs?4arena@ 300c2fbc     cg_consolecmds.obj
 0002:00006fd0       ??_C@_0L@FOHODDJF@0x?$CF08x?7?$CFs?6@ 300c2fd0     cg_crash.obj
 0002:00006fdc       ??_C@_0BB@KFJCFCM@Access?5violation@ 300c2fdc     cg_crash.obj
 0002:00006ff0       ??_C@_0BG@GMGPAKFC@Datatype?5misalignment@ 300c2ff0     cg_crash.obj
 0002:00007008       ??_C@_0L@DEJAMIEF@Breakpoint@ 300c3008     cg_crash.obj
 0002:00007014       ??_C@_0M@HBBAMPBG@Single?5step@ 300c3014     cg_crash.obj
 0002:00007020       ??_C@_0BG@PAGJAHHI@Array?5bounds?5exceeded@ 300c3020     cg_crash.obj
 0002:00007038       ??_C@_0BH@BHMNNGEN@Float?5denormal?5operand@ 300c3038     cg_crash.obj
 0002:00007050       ??_C@_0BF@JGBFFBDC@Float?5divide?5by?5zero@ 300c3050     cg_crash.obj
 0002:00007068       ??_C@_0BF@BGPMFELN@Float?5inexact?5result@ 300c3068     cg_crash.obj
 0002:00007080       ??_C@_0BI@NCCJNINI@Float?5invalid?5operation@ 300c3080     cg_crash.obj
 0002:00007098       ??_C@_0P@MPCBPAKO@Float?5overflow@ 300c3098     cg_crash.obj
 0002:000070a8       ??_C@_0BC@CFKBGEGC@Float?5stack?5check@ 300c30a8     cg_crash.obj
 0002:000070bc       ??_C@_0BA@MKOPBGLC@Float?5underflow@ 300c30bc     cg_crash.obj
 0002:000070cc       ??_C@_0BH@NHLLGLIN@Integer?5divide?5by?5zero@ 300c30cc     cg_crash.obj
 0002:000070e4       ??_C@_0BB@IPOJFFKA@Integer?5overflow@ 300c30e4     cg_crash.obj
 0002:000070f8       ??_C@_0BH@KPGNPNII@Privileged?5instruction@ 300c30f8     cg_crash.obj
 0002:00007110       ??_C@_0O@MGKDBHDE@In?5page?5error@ 300c3110     cg_crash.obj
 0002:00007120       ??_C@_0BE@MLNNHANJ@Illegal?5instruction@ 300c3120     cg_crash.obj
 0002:00007134       ??_C@_0BJ@HGNBDCNI@Noncontinuable?5exception@ 300c3134     cg_crash.obj
 0002:00007150       ??_C@_0P@MGPMFBBC@Stack?5overflow@ 300c3150     cg_crash.obj
 0002:00007160       ??_C@_0BE@JJMBEGLL@Invalid?5disposition@ 300c3160     cg_crash.obj
 0002:00007174       ??_C@_0L@IJAJFAIH@Guard?5page@ 300c3174     cg_crash.obj
 0002:00007180       ??_C@_0P@EFDAIKIF@Invalid?5handle@ 300c3180     cg_crash.obj
 0002:00007190       ??_C@_0BC@EOODALEL@Unknown?5exception@ 300c3190     cg_crash.obj
 0002:000071a4       ??_C@_0BI@JHADFJIA@Exception?3?5?$CFs?5?$CI0x?$CF08x?$CJ?6@ 300c31a4     cg_crash.obj
 0002:000071bc       ??_C@_0BL@HMAMKACE@Exception?5Address?3?50x?$CF08x?6@ 300c31bc     cg_crash.obj
 0002:000071d8       ??_C@_0BC@JIDKCFCN@DLL?5Information?3?6@ 300c31d8     cg_crash.obj
 0002:000071ec       ??_C@_07NBCGADJA@Unknown@  300c31ec     cg_crash.obj
 0002:000071f4       ??_C@_0BL@KFBJGJCF@?$CI?$CFd?$CJ?5?$CFs?$CI?$CFs?$CL?$CF?$CD0x?$CJ?5?$FL0x?$CF08x?$FN?6@ 300c31f4     cg_crash.obj
 0002:00007210       ??_C@_0BC@IFJKEEGH@?$CI?$CFd?$CJ?5?$CFs?5?$FL0x?$CF08x?$FN?6@ 300c3210     cg_crash.obj
 0002:00007224       ??_C@_0M@DGDBFJN@fs_basepath@ 300c3224     cg_crash.obj
 0002:00007230       ??_C@_0M@LECGGKKC@fs_homepath@ 300c3230     cg_crash.obj
 0002:0000723c       ??_C@_07FMAMAFJE@fs_game@  300c323c     cg_crash.obj
 0002:00007244       ??_C@_01NOFIACDB@w@        300c3244     cg_crash.obj
 0002:00007248       ??_C@_0BH@LFIAMKPI@?$CFs?2?$CFs?2etpubc_crash?4log@ 300c3248     cg_crash.obj
 0002:00007260       ??_C@_05BMGBEOOC@?$CFs?2?$CFs@ 300c3260     cg_crash.obj
 0002:00007268       ??_C@_0CJ@EMPEBNDK@?98?$DM?9?9?9?9?9?9?9?5Crash?5Information?5?9?9@ 300c3268     cg_crash.obj
 0002:00007294       ??_C@_0CJ@CNGFELGB@?5?5?5Please?5forward?5to?5etpub?5mod?5@ 300c3294     cg_crash.obj
 0002:000072c0       ??_C@_0CJ@NAGLDNBO@?9?9?9?9?9?9?9?9?9?9?9?9?9?9?9?9?9?9?9?9?9?9?9?9?9?9?9?9?9?9?9@ 300c32c0     cg_crash.obj
 0002:000072ec       ??_C@_08MDKNFIIB@20120211@ 300c32ec     cg_crash.obj
 0002:000072f8       ??_C@_0BD@IINNGPCI@Version?3?5?$CFs?5Win32?6@ 300c32f8     cg_crash.obj
 0002:0000730c       ??_C@_08JJJGBFEP@Map?3?5?$CFs?6@ 300c330c     cg_crash.obj
 0002:00007318       ??_C@_0CK@NCILKBBF@?98?$DM?9?9?9?9?9?9?9?9?9?9?9?9?9?9?9?9?9?9?9?9?9?9?9?9?9?9?9?9@ 300c3318     cg_crash.obj
 0002:00007344       ??_C@_0BJ@LJHNKIEP@Attempting?5to?5clean?5up?4?6@ 300c3344     cg_crash.obj
 0002:00007360       ??_C@_0N@KBGMOMJO@IMAGEHLP?4DLL@ 300c3360     cg_crash.obj
 0002:00007370       ??_C@_0BK@CNMKDCG@imagehlp?4dll?5unavailable?6@ 300c3370     cg_crash.obj
 0002:0000738c       ??_C@_0O@MCMFENKA@SymInitialize@ 300c338c     cg_crash.obj
 0002:0000739c       ??_C@_0L@GDMHENGB@SymCleanup@ 300c339c     cg_crash.obj
 0002:000073a8       ??_C@_0BB@KAOAIDAF@SymGetModuleBase@ 300c33a8     cg_crash.obj
 0002:000073bc       ??_C@_09OJFIDCEK@StackWalk@ 300c33bc     cg_crash.obj
 0002:000073c8       ??_C@_0BC@BDHGAJGO@SymGetSymFromAddr@ 300c33c8     cg_crash.obj
 0002:000073dc       ??_C@_0BE@HDOJAMIL@SymEnumerateModules@ 300c33dc     cg_crash.obj
 0002:000073f0       ??_C@_0BH@PMEMHADK@SymFunctionTableAccess@ 300c33f0     cg_crash.obj
 0002:00007408       ??_C@_0BP@MBMPKBCB@imagehlp?4dll?5missing?5exports?4?6@ 300c3408     cg_crash.obj
 0002:00007428       ??_C@_0N@IIKONMMF@Weapon?5Stats@ 300c3428     cg_debriefing.obj
 0002:00007438       ??_C@_04FABLJDN@Name@      300c3438     cg_debriefing.obj
 0002:00007440       ??_C@_05FJMKBFGF@Shots@    300c3440     cg_debriefing.obj
 0002:00007448       ??_C@_04EAJKEJFK@Hits@     300c3448     cg_debriefing.obj
 0002:00007450       ??_C@_05ILKPOBAF@Kills@    300c3450     cg_debriefing.obj
 0002:00007458       ??_C@_0O@EEPGBMID@ROLL?5OF?5HONOR@ 300c3458     cg_debriefing.obj
 0002:00007468       ??_C@_0O@EGIKAEAG@MISSION?5STATS@ 300c3468     cg_debriefing.obj
 0002:00007478       ??_C@_07OPDDOEGI@PLAYERS@  300c3478     cg_debriefing.obj
 0002:00007480       ??_C@_04DMNEFAGJ@Rank@     300c3480     cg_debriefing.obj
 0002:00007488       ??_C@_04OKOFBOPB@Time@     300c3488     cg_debriefing.obj
 0002:00007490       ??_C@_02NIKKAELB@XP@       300c3490     cg_debriefing.obj
 0002:00007494       ??_C@_06IIDHDGJJ@Deaths@   300c3494     cg_debriefing.obj
 0002:0000749c       ??_C@_0N@EMBGDAEO@PLAYER?5STATS@ 300c349c     cg_debriefing.obj
 0002:000074ac       ??_C@_06KPDLJAFG@Allies@   300c34ac     cg_debriefing.obj
 0002:000074b4       ??_C@_05KGEAEGFG@Total@    300c34b4     cg_debriefing.obj
 0002:000074bc       ??_C@_04NHKBCFAO@CHAT@     300c34bc     cg_debriefing.obj
 0002:000074c4       ??_C@_04LIPPJNOP@MORE@     300c34c4     cg_debriefing.obj
 0002:000074cc       ??_C@_08ELFFKEDJ@?$FO1REPORT@ 300c34cc     cg_debriefing.obj
 0002:000074d8       ??_C@_0L@IIKHIPA@QUICK?5CHAT@ 300c34d8     cg_debriefing.obj
 0002:000074e4       ??_C@_05KACKNMMA@READY@    300c34e4     cg_debriefing.obj
 0002:000074ec       ??_C@_08NDHPCBJM@chattext@ 300c34ec     cg_debriefing.obj
 0002:000074f8       ??_C@_08GFPKGONP@MAP?5VOTE@ 300c34f8     cg_debriefing.obj
 0002:00007504       ??_C@_05DGAPONBB@Score@    300c3504     cg_debriefing.obj
 0002:0000750c       ??_C@_06BAIIIEE@?$FO3VOTE@ 300c350c     cg_debriefing.obj
 0002:00007514       ??_C@_09NGHGOPFJ@?$FO3VOTE?5?$CD1@ 300c3514     cg_debriefing.obj
 0002:00007520       ??_C@_09PNFLLMJK@?$FO3VOTE?5?$CD2@ 300c3520     cg_debriefing.obj
 0002:0000752c       ??_C@_09OEEAINNL@?$FO3VOTE?5?$CD3@ 300c352c     cg_debriefing.obj
 0002:00007538       ??_C@_0BA@OELMILCN@Highest?5Fragger@ 300c3538     cg_debriefing.obj
 0002:00007548       ??_C@_0BK@FOLCLEP@Highest?5Experience?5Points@ 300c3548     cg_debriefing.obj
 0002:00007564       ??_C@_0BI@FCKNHHFO@Highest?5Ranking?5Officer@ 300c3564     cg_debriefing.obj
 0002:0000757c       ??_C@_0BG@JFFDOGDK@Most?5Highly?5Decorated@ 300c357c     cg_debriefing.obj
 0002:00007594       ??_C@_0BF@CFELMBBH@Highest?5Battle?5Sense@ 300c3594     cg_debriefing.obj
 0002:000075ac       ??_C@_0O@IGFMKJBG@Best?5Engineer@ 300c35ac     cg_debriefing.obj
 0002:000075bc       ??_C@_0L@FMJNDBPP@Best?5Medic@ 300c35bc     cg_debriefing.obj
 0002:000075c8       ??_C@_0P@JCIIFCLG@Best?5Field?5Ops@ 300c35c8     cg_debriefing.obj
 0002:000075d8       ??_C@_0BG@FGJHOIFI@Highest?5Light?5Weapons@ 300c35d8     cg_debriefing.obj
 0002:000075f0       ??_C@_0N@CHNAGJIF@Best?5Soldier@ 300c35f0     cg_debriefing.obj
 0002:00007600       ??_C@_0BA@PCLEFIGD@Best?5Covert?5Ops@ 300c3600     cg_debriefing.obj
 0002:00007610       ??_C@_0BB@IMLBIKGG@Highest?5Accuracy@ 300c3610     cg_debriefing.obj
 0002:00007624       ??_C@_0BN@OOHIDHHK@I?5Ain?8t?5Got?5No?5Friends?5Award@ 300c3624     cg_debriefing.obj
 0002:00007644       ??_C@_0BG@GKBNIKML@Welcome?5Newbie?$CB?5Award@ 300c3644     cg_debriefing.obj
 0002:0000765c       ??_C@_03FHMHJNJN@?$FO7?$HM@ 300c365c     cg_debriefing.obj
 0002:00007660       ??_C@_03OJGOOKPM@?$FO7_@   300c3660     cg_debriefing.obj
 0002:00007664       ??_C@_04OJJGBHGO@?$FO7?$CFs@ 300c3664     cg_debriefing.obj
 0002:0000766c       ??_C@_04EDJPNPOF@?$FO5?$CFs@ 300c366c     cg_debriefing.obj
 0002:00007674       ??_C@_04GGPEIADJ@?$FO3?$CFs@ 300c3674     cg_debriefing.obj
 0002:0000767c       ??_C@_06MKEJMLBF@winner@   300c367c     cg_debriefing.obj
 0002:00007684       ??_C@_0BL@LJILBHDP@sound?1music?1allies_win?4wav@ 300c3684     cg_debriefing.obj
 0002:000076a0       ??_C@_0BJ@HKOFIMKF@sound?1music?1axis_win?4wav@ 300c36a0     cg_debriefing.obj
 0002:000076bc       ??_C@_09PGKOGJAE@immaplist@ 300c36bc     cg_debriefing.obj
 0002:000076c8       ??_C@_05COEIJJMM@impkd@    300c36c8     cg_debriefing.obj
 0002:000076d0       ??_C@_04EJOLBGDD@imwa@     300c36d0     cg_debriefing.obj
 0002:000076d8       ??_C@_07DNMGOKJO@imws?5?$CFi@ 300c36d8     cg_debriefing.obj
 0002:000076e0       ??_C@_0M@NJKJFKNO@imvotetally@ 300c36e0     cg_debriefing.obj
 0002:000076ec       ??_C@_07FFDCCNEB@?$CFi?3?$CFi?$CFi@ 300c36ec     cg_debriefing.obj
 0002:000076f4       ??_C@_08PBHOMJNH@defender@ 300c36f4     cg_debriefing.obj
 0002:00007700       ??_C@_0BI@GEGEMHOG@Clock?5is?5now?5set?5to?5?$CFs?$CB@ 300c3700     cg_debriefing.obj
 0002:00007718       ??_C@_0CE@MOGLPAKH@ALLIES?5SUCCESSFULLY?5BEAT?5THE?5CL@ 300c3718     cg_debriefing.obj
 0002:0000773c       ??_C@_0CA@NGNGPFNL@ALLIES?5COULDN?8T?5BEAT?5THE?5CLOCK?$CB@ 300c373c     cg_debriefing.obj
 0002:0000775c       ??_C@_0CC@NBDDLNNF@AXIS?5SUCCESSFULLY?5BEAT?5THE?5CLOC@ 300c375c     cg_debriefing.obj
 0002:00007780       ??_C@_0BO@BDPNMEFH@AXIS?5COULDN?8T?5BEAT?5THE?5CLOCK?$CB@ 300c3780     cg_debriefing.obj
 0002:000077a0       ??_C@_0M@BOOHGHM@It?8s?5a?5TIE?$CB@ 300c37a0     cg_debriefing.obj
 0002:000077ac       ??_C@_0M@ONFCMDF@Allies?5Win?$CB@ 300c37ac     cg_debriefing.obj
 0002:000077b8       ??_C@_09DBDFLGFB@Axis?5Win?$CB@ 300c37b8     cg_debriefing.obj
 0002:000077c4       ??_C@_0BH@JAFFJKMO@?$CFi?5seconds?5to?5next?5map@ 300c37c4     cg_debriefing.obj
 0002:000077dc       ??_C@_0N@CLCNNDCJ@Map?5?$CFd?5of?5?$CFd@ 300c37dc     cg_debriefing.obj
 0002:000077ec       ??_C@_0BA@MLFLNFMF@?$FO1XP?5Resetting?$CB@ 300c37ec     cg_debriefing.obj
 0002:000077fc       ??_C@_0BC@PIIMIPAI@levelshots?1?$CFs?4tga@ 300c37fc     cg_debriefing.obj
 0002:00007810       ??_C@_0BF@JEBEIH@levelshots?1?$CFs_cc?4tga@ 300c3810     cg_debriefing.obj
 0002:00007828       ??_C@_07KNKEBBFK@?$FO1Never@ 300c3828     cg_debriefing.obj
 0002:00007830       ??_C@_0BA@CEALCPBG@?$FO3?$CFd?5?$FO7maps?5ago@ 300c3830     cg_debriefing.obj
 0002:00007840       ??_C@_0BM@CBEKLCIM@Last?5Played?5?5?5?5?5?5?5?5?5?5?5?5?3?5?$CFs@ 300c3840     cg_debriefing.obj
 0002:0000785c       ??_C@_0BO@CGKPJPIC@Total?5Accumulated?5Votes?3?5?$FO3?$CFd@ 300c385c     cg_debriefing.obj
 0002:0000787c       ??_C@_02PGJLIFGD@?$FO7@    300c387c     cg_debriefing.obj
 0002:00007880       ??_C@_04HGGBINEM@?$CFs?$CFd@ 300c3880     cg_debriefing.obj
 0002:00007888       ??_C@_01JOAMLHOP@?9@       300c3888     cg_debriefing.obj
 0002:0000788c       ??_C@_09BCJOCADI@Spectator@ 300c388c     cg_debriefing.obj
 0002:00007898       ??_C@_03BNCCNAJL@Spc@      300c3898     cg_debriefing.obj
 0002:0000789c       ??_C@_04DBBPGGOA@imws@     300c389c     cg_debriefing.obj
 0002:000078a4       ??_C@_05KALDBGDL@ACC?3?5@  300c38a4     cg_debriefing.obj
 0002:000078ac       ??_C@_04ICJKGDCI@ACC?3@    300c38ac     cg_debriefing.obj
 0002:000078b4       ??_C@_04KAKHEEPD@?$CFi?$CF?$CF@ 300c38b4     cg_debriefing.obj
 0002:000078bc       ??_C@_04EGMLMHKO@XP?3?5@   300c38bc     cg_debriefing.obj
 0002:000078c4       ??_C@_03JJBHPHGH@XP?3@     300c38c4     cg_debriefing.obj
 0002:000078c8       ??_C@_06ELNAEDJO@Time?3?5@ 300c38c8     cg_debriefing.obj
 0002:000078d0       ??_C@_05OPPJPJON@Time?3@   300c38d0     cg_debriefing.obj
 0002:000078d8       ??_C@_08ILEBMEAN@Medals?3?5@ 300c38d8     cg_debriefing.obj
 0002:000078e4       ??_C@_07MEBCMHJC@Medals?3@ 300c38e4     cg_debriefing.obj
 0002:000078ec       ??_C@_06GDCMPJCK@Rank?3?5@ 300c38ec     cg_debriefing.obj
 0002:000078f4       ??_C@_05BBPLNDNF@Rank?3@   300c38f4     cg_debriefing.obj
 0002:000078fc       ??_C@_09KKHPACEC@?$FO1RE?9VOTE@ 300c38fc     cg_debriefing.obj
 0002:00007908       ??_C@_0BA@GPEACDMJ@?$FO3?$CFd?3?5?$FO1RE?9VOTE@ 300c3908     cg_debriefing.obj
 0002:00007918       ??_C@_0N@GOGFGBAI@?$FO3?$CFd?3?5?$FO3VOTE@ 300c3918     cg_debriefing.obj
 0002:00007928       ??_C@_09OOFLEOMO@?$FO5TO?5TEAM@ 300c3928     cg_debriefing.obj
 0002:00007934       ??_C@_0O@GIKEMBPP@?$FO3TO?5FIRETEAM@ 300c3934     cg_debriefing.obj
 0002:00007944       ??_C@_0M@FGNIPDNN@?$FO2TO?5GLOBAL@ 300c3944     cg_debriefing.obj
 0002:00007950       ??_C@_0L@IIDLKPNA@mapvote?5?$CFd@ 300c3950     cg_debriefing.obj
 0002:0000795c       ??_C@_0CF@LEJMEDBG@?$FO3Can?8t?5vote?5for?5the?5same?5map?5t@ 300c395c     cg_debriefing.obj
 0002:00007984       ??_C@_0O@IKDIPJCM@mapvote?5?$CFd?5?$CFd@ 300c3984     cg_debriefing.obj
 0002:00007994       ??_C@_07EDJLODDG@say?5?$CFs?6@ 300c3994     cg_debriefing.obj
 0002:0000799c       ??_C@_0N@NPKIBBLL@say_team?5?$CFs?6@ 300c399c     cg_debriefing.obj
 0002:000079ac       ??_C@_0O@KLKMAHBI@say_buddy?5?$CFs?6@ 300c39ac     cg_debriefing.obj
 0002:000079bc       ??_C@_0BC@GJNEEBFK@Campaign?5Overview@ 300c39bc     cg_debriefing.obj
 0002:000079d0       ??_C@_09FIPHDGIA@?$CFs?5XP?3?5?$CFi@ 300c39d0     cg_debriefing.obj
 0002:000079dc       ??_C@_0BF@HJDHDJDK@gfx?1loading?1map_back@ 300c39dc     cg_debriefing.obj
 0002:000079f4       ??_C@_0M@OLFBJAIF@ALLIES?5WIN?$CB@ 300c39f4     cg_debriefing.obj
 0002:00007a00       ??_C@_09BNHAIGOG@AXIS?5WIN?$CB@ 300c3a00     cg_debriefing.obj
 0002:00007a0c       ??_C@_0M@MKDOECJE@IT?8S?5A?5TIE?$CB@ 300c3a0c     cg_debriefing.obj
 0002:00007a18       ??_C@_0BE@HHPHNMHG@CAMPAIGN?5STATUS?3?5?$CFs@ 300c3a18     cg_debriefing.obj
 0002:00007a2c       ??_C@_0BE@PBCJAAAB@?$CFi?5SECS?5TO?5NEXT?5MAP@ 300c3a2c     cg_debriefing.obj
 0002:00007a40       ??_C@_0N@KHFGKJMJ@Campaign?3?5?$CFs@ 300c3a40     cg_debriefing.obj
 0002:00007a50       ??_C@_07HPJBBMBN@Map?3?5?$CFs@ 300c3a50     cg_debriefing.obj
 0002:00007a58       ??_C@_06DELKPIEN@?$CFi?4?5?$CFs@ 300c3a58     cg_debriefing.obj
 0002:00007a60       ??_C@_0BF@PINDHEDO@gfx?1loading?1camp_map@ 300c3a60     cg_debriefing.obj
 0002:00007a78       ??_C@_0BF@CFIBBPHA@gfx?1loading?1pin_axis@ 300c3a78     cg_debriefing.obj
 0002:00007a90       ??_C@_0BH@ICLJIOOM@gfx?1loading?1pin_allied@ 300c3a90     cg_debriefing.obj
 0002:00007aa8       ??_C@_0BI@FLGCMJKE@gfx?1loading?1pin_neutral@ 300c3aa8     cg_debriefing.obj
 0002:00007ac0       ??_C@_0BE@JCMNICLJ@menu?1art?1unknownmap@ 300c3ac0     cg_debriefing.obj
 0002:00007ad4       __real@3a800000            300c3ad4     cg_debriefing.obj
 0002:00007ad8       __real@3e333333            300c3ad8     cg_debriefing.obj
 0002:00007ae0       __real@4074500000000000    300c3ae0     cg_debriefing.obj
 0002:00007ae8       __real@40c00000            300c3ae8     cg_debriefing.obj
 0002:00007aec       __real@41100000            300c3aec     cg_debriefing.obj
 0002:00007af0       __real@41880000            300c3af0     cg_debriefing.obj
 0002:00007af4       __real@42a20000            300c3af4     cg_debriefing.obj
 0002:00007af8       __real@42c00000            300c3af8     cg_debriefing.obj
 0002:00007afc       __real@43bb0000            300c3afc     cg_debriefing.obj
 0002:00007b00       __real@44178000            300c3b00     cg_debriefing.obj
 0002:00007b04       __real@44800000            300c3b04     cg_debriefing.obj
 0002:00007b10       __xmm@00000001000000010000000100000001 300c3b10     cg_debriefing.obj
 0002:00007b20       __xmm@00000003000000020000000100000000 300c3b20     cg_debriefing.obj
 0002:00007b30       __xmm@3a8000003a8000003a8000003a800000 300c3b30     cg_debriefing.obj
 0002:00007b40       __xmm@3e4ccccd3f8000003f8000003f800000 300c3b40     cg_debriefing.obj
 0002:00007b50       __xmm@3e99999a3f8000003f8000003f800000 300c3b50     cg_debriefing.obj
 0002:00007b60       __xmm@3ecccccd000000000000000000000000 300c3b60     cg_debriefing.obj
 0002:00007b70       __xmm@3ecccccd3e99999a3e99999a3e99999a 300c3b70     cg_debriefing.obj
 0002:00007b80       __xmm@3ecccccd3f0000003f0000003f000000 300c3b80     cg_debriefing.obj
 0002:00007b90       __xmm@3f0000003dcccccd3dcccccd3dcccccd 300c3b90     cg_debriefing.obj
 0002:00007ba0       __xmm@3f0000003f0000003f0000003f000000 300c3ba0     cg_debriefing.obj
 0002:00007bb0       __xmm@3f19999a000000000000000000000000 300c3bb0     cg_debriefing.obj
 0002:00007bc0       __xmm@3f4ccccd000000000000000000000000 300c3bc0     cg_debriefing.obj
 0002:00007bd0       __xmm@3f4ccccd3e2cacad3e4ccccd3e24a4a5 300c3bd0     cg_debriefing.obj
 0002:00007be0       __xmm@3f4ccccd3e2e147b3e4ccccd3e23d70a 300c3be0     cg_debriefing.obj
 0002:00007bf0       __xmm@3f8000003f19999a3f19999a3f19999a 300c3bf0     cg_debriefing.obj
 0002:00007c00       __xmm@3f8000003f6666663f6666663f666666 300c3c00     cg_debriefing.obj
 0002:00007c10       __xmm@ffffffffffffffffffffffffffffffff 300c3c10     cg_debriefing.obj
 0002:00007c20       ??_C@_0BH@OGHHEKME@time?3?$CFi?5snap?3?$CFi?5cmd?3?$CFi@ 300c3c20     cg_draw.obj
 0002:00007c38       ??_C@_06FCHJGAOK@?$CFi?5FPS@ 300c3c38     cg_draw.obj
 0002:00007c40       ??_C@_07COCHMHBB@?$CFd?3?$CF02d@ 300c3c40     cg_draw.obj
 0002:00007c48       ??_C@_05DEKILNBP@?3?$CF02d@ 300c3c48     cg_draw.obj
 0002:00007c50       ??_C@_03OHMPDLCA@?5am@     300c3c50     cg_draw.obj
 0002:00007c54       ??_C@_03PKCLPCGH@?5pm@     300c3c54     cg_draw.obj
 0002:00007c58       ??_C@_08CNONOOML@?$CF?41f?5UPS@ 300c3c58     cg_draw.obj
 0002:00007c64       ??_C@_08BBHGFKCB@?$CF?41f?5MPH@ 300c3c64     cg_draw.obj
 0002:00007c70       ??_C@_08DEBNAFPN@?$CF?41f?5KPH@ 300c3c70     cg_draw.obj
 0002:00007c7c       ??_C@_0BE@MGAPMPEL@?$CF?41f?5UPS?5?$CI?$CF?41f?5MAX?$CJ@ 300c3c7c     cg_draw.obj
 0002:00007c90       ??_C@_0BE@BOCKIFPK@?$CF?41f?5MPH?5?$CI?$CF?41f?5MAX?$CJ@ 300c3c90     cg_draw.obj
 0002:00007ca4       ??_C@_0BE@DMNAFBAI@?$CF?41f?5KPH?5?$CI?$CF?41f?5MAX?$CJ@ 300c3ca4     cg_draw.obj
 0002:00007cb8       ??_C@_06EPIJDFAE@?$FOF?$CFd?$CFs@ 300c3cb8     cg_draw.obj
 0002:00007cc0       ??_C@_0BD@LJPKOPNC@?$FOd?$CFi?3?$CFi?$CFi?5?$FO?$CKWARMUP@ 300c3cc0     cg_draw.obj
 0002:00007cd4       ??_C@_06OBLBKKFH@?$FON0?300@ 300c3cd4     cg_draw.obj
 0002:00007cdc       ??_C@_0M@BMJFBCJL@?$CFs?$FO?$CK?$CFi?3?$CFi?$CFi@ 300c3cdc     cg_draw.obj
 0002:00007ce8       ??_C@_07HFBACLIM@?$FO1?$CFd?5?$CFs@ 300c3ce8     cg_draw.obj
 0002:00007cf0       ??_C@_04HCJFHBP@a?5?$CFs@  300c3cf0     cg_draw.obj
 0002:00007cf8       ??_C@_05BHNINOOF@?$CFi?5?$CFs@ 300c3cf8     cg_draw.obj
 0002:00007d00       ??_C@_0N@GNHKKICL@an?5Objective@ 300c3d00     cg_draw.obj
 0002:00007d10       ??_C@_05DBDBEKIP@an?5?$CFs@ 300c3d10     cg_draw.obj
 0002:00007d18       ??_C@_0BH@HFDDJIMF@Connection?5Interrupted@ 300c3d18     cg_draw.obj
 0002:00007d30       ??_C@_03KLKIPBNP@snc@      300c3d30     cg_draw.obj
 0002:00007d34       ??_C@_0BA@BAEHEIHM@?$FO9banner?3?5?$FO7?$CFs?6@ 300c3d34     cg_draw.obj
 0002:00007d44       ??_C@_01FHEEJDEE@A@        300c3d44     cg_draw.obj
 0002:00007d48       ??_C@_05GCJPGBHM@?$FO?$CFc?$CFs@ 300c3d48     cg_draw.obj
 0002:00007d50       ??_C@_0BF@KGIOGBFI@?$FO9centerprint?3?5?$FO7?$CFs?6@ 300c3d50     cg_draw.obj
 0002:00007d68       ??_C@_0BA@HNOCDHGE@?$CFs?$FO7?8s?5dynamite@ 300c3d68     cg_draw.obj
 0002:00007d78       ??_C@_0M@NKCFGMBI@?$CFs?$FO7?8s?5mine@ 300c3d78     cg_draw.obj
 0002:00007d84       ??_C@_0BB@NDGOCPAB@Disguised?5Enemy?$CB@ 300c3d84     cg_draw.obj
 0002:00007d98       ??_C@_05DNIIFBMG@?$CFs?5?$CFs@ 300c3d98     cg_draw.obj
 0002:00007da0       ??_C@_0L@NNJGPDOG@?$FL?$CFs?$FN?5?$CFs?5?$CFs@ 300c3da0     cg_draw.obj
 0002:00007dac       ??_C@_07NIIHKMCI@?$FL?$CFs?$FN?5?$CFs@ 300c3dac     cg_draw.obj
 0002:00007db4       ??_C@_05MDCOHONE@?$CFs?5HP@ 300c3db4     cg_draw.obj
 0002:00007dbc       ??_C@_0M@FBLLAHNA@SHOUTCASTER@ 300c3dbc     cg_draw.obj
 0002:00007dc8       ??_C@_09GNDCBOBP@SPECTATOR@ 300c3dc8     cg_draw.obj
 0002:00007dd4       ??_C@_08EOGCGKCE@vote?5yes@ 300c3dd4     cg_draw.obj
 0002:00007de0       ??_C@_07EMGDANBL@vote?5no@ 300c3de0     cg_draw.obj
 0002:00007de8       ??_C@_0DA@JILIDPGE@File?5complaint?5against?5?$FO7?$CFs?$FO3?5f@ 300c3de8     cg_draw.obj
 0002:00007e18       ??_C@_0CD@GMAMKDHM@Press?5?8?$CFs?8?5for?5YES?0?5or?5?8?$CFs?8?5for@ 300c3e18     cg_draw.obj
 0002:00007e3c       ??_C@_0DD@CAEEHDKD@Accept?5?$FO7?$CFs?$FO3?8s?5application?5to?5@ 300c3e3c     cg_draw.obj
 0002:00007e70       ??_C@_0EE@KGHJJOHC@Accept?5?$FO7?$CFs?$FO3?8s?5proposition?5to?5@ 300c3e70     cg_draw.obj
 0002:00007eb4       ??_C@_0DD@DPCJNAOH@Accept?5?$FO7?$CFs?$FO3?8s?5invitation?5to?5j@ 300c3eb4     cg_draw.obj
 0002:00007ee8       ??_C@_0BH@NKFDINCI@Make?5Fireteam?5private?$DP@ 300c3ee8     cg_draw.obj
 0002:00007f00       ??_C@_0BD@BLIJFOPE@Create?5a?5Fireteam?$DP@ 300c3f00     cg_draw.obj
 0002:00007f14       ??_C@_0BB@BFHLNCEG@Join?5a?5Fireteam?$DP@ 300c3f14     cg_draw.obj
 0002:00007f28       ??_C@_0L@BDHFLJFC@?$FLhidevote?$FN@ 300c3f28     cg_draw.obj
 0002:00007f34       ??_C@_09OOCHDCCI@?2hidevote@ 300c3f34     cg_draw.obj
 0002:00007f40       ??_C@_04FNIJDBCC@kick@     300c3f40     cg_draw.obj
 0002:00007f48       ??_C@_0N@GMOCKLHE@VOTE?$CI?$CFi?$CJ?3?5?$CFs@ 300c3f48     cg_draw.obj
 0002:00007f58       ??_C@_0BJ@OHEICNLB@Cannot?5vote?5as?5Spectator@ 300c3f58     cg_draw.obj
 0002:00007f74       ??_C@_0BP@DMJLHLEG@YES?$CI?$CFs?$CJ?3?$CFi?0?5NO?$CI?$CFs?$CJ?3?$CFi?5HIDE?$CI?$CFs?$CJ@ 300c3f74     cg_draw.obj
 0002:00007f94       ??_C@_0BB@BKBNJICO@YOU?5VOTED?5ON?3?5?$CFs@ 300c3f94     cg_draw.obj
 0002:00007fa8       ??_C@_0L@BCMFDPOJ@Y?3?$CFi?0?5N?3?$CFi@ 300c3fa8     cg_draw.obj
 0002:00007fb4       ??_C@_0BO@MJGGAKKD@Your?5complaint?5has?5been?5filed@ 300c3fb4     cg_draw.obj
 0002:00007fd4       ??_C@_0BE@GHKIFLDP@Complaint?5dismissed@ 300c3fd4     cg_draw.obj
 0002:00007fe8       ??_C@_0CJ@PHKEIMMD@Server?5Host?5cannot?5be?5complaine@ 300c3fe8     cg_draw.obj
 0002:00008014       ??_C@_0CI@LOLHFLMK@You?5were?5team?9killed?5by?5the?5Ser@ 300c4014     cg_draw.obj
 0002:0000803c       ??_C@_0BP@OFNOCPLB@You?5were?5team?9killed?5by?5a?5bot?4@ 300c403c     cg_draw.obj
 0002:0000805c       ??_C@_0CE@PIFPHKDM@Your?5application?5has?5been?5submi@ 300c405c     cg_draw.obj
 0002:00008080       ??_C@_0BI@JOPMPAJ@Your?5application?5failed@ 300c4080     cg_draw.obj
 0002:00008098       ??_C@_0CD@JOKKGMIL@Your?5application?5has?5been?5appro@ 300c4098     cg_draw.obj
 0002:000080bc       ??_C@_0CF@PIONMOBH@Your?5application?5reply?5has?5been@ 300c40bc     cg_draw.obj
 0002:000080e4       ??_C@_0CE@JAFCMALD@Your?5proposition?5has?5been?5submi@ 300c40e4     cg_draw.obj
 0002:00008108       ??_C@_0BO@GKOFBFML@Your?5proposition?5was?5rejected@ 300c4108     cg_draw.obj
 0002:00008128       ??_C@_0BO@ILBPMKHJ@Your?5proposition?5was?5accepted@ 300c4128     cg_draw.obj
 0002:00008148       ??_C@_0CF@IFICFNBM@Your?5proposition?5reply?5has?5been@ 300c4148     cg_draw.obj
 0002:00008170       ??_C@_0CD@FIDBNPKA@Your?5invitation?5has?5been?5submit@ 300c4170     cg_draw.obj
 0002:00008194       ??_C@_0BN@JBFDDCMF@Your?5invitation?5was?5rejected@ 300c4194     cg_draw.obj
 0002:000081b4       ??_C@_0BN@HAKJONHH@Your?5invitation?5was?5accepted@ 300c41b4     cg_draw.obj
 0002:000081d4       ??_C@_0CE@BPEHPNN@Your?5invitation?5reply?5has?5been?5@ 300c41d4     cg_draw.obj
 0002:000081f8       ??_C@_0O@GEOKPMIM@Response?5Sent@ 300c41f8     cg_draw.obj
 0002:00008208       ??_C@_0BA@PJOOIPEE@?$FLopenlimbomenu?$FN@ 300c4208     cg_draw.obj
 0002:00008218       ??_C@_06CDPDIIDH@ESCAPE@   300c4218     cg_draw.obj
 0002:00008220       ??_C@_0BM@PAMDEMNJ@Press?5?$CFs?5to?5open?5Limbo?5Menu@ 300c4220     cg_draw.obj
 0002:0000823c       ??_C@_07MAODEHGM@?$CLattack@ 300c423c     cg_draw.obj
 0002:00008244       ??_C@_0BP@CLBOCDNO@Press?5?$CFs?5to?5follow?5next?5player@ 300c4244     cg_draw.obj
 0002:00008264       ??_C@_0CJ@MGPEFDH@You?5are?5wounded?5and?5waiting?5for@ 300c4264     cg_draw.obj
 0002:00008290       ??_C@_0CL@MIAJAECN@Press?5JUMP?5to?5go?5into?5reinforce@ 300c4290     cg_draw.obj
 0002:000082bc       ??_C@_0CD@BIJFPEHP@No?5more?5reinforcements?5this?5rou@ 300c42bc     cg_draw.obj
 0002:000082e0       ??_C@_0CJ@NGBHIKBK@Reinforcements?5deploy?5in?5?$FO3?$CFd?5?$FO@ 300c42e0     cg_draw.obj
 0002:0000830c       ??_C@_0CI@JLICKADG@Bonus?5Life?$CB?5Deploying?5in?5?$FO3?$CFd?5?$FO@ 300c430c     cg_draw.obj
 0002:00008334       ??_C@_0BP@BLHOEGNJ@No?5more?5deployments?5this?5round@ 300c4334     cg_draw.obj
 0002:00008354       ??_C@_0BM@LEEBLHLL@Deploying?5in?5?$FO3?$CFd?5?$FO7seconds@ 300c4354     cg_draw.obj
 0002:00008370       ??_C@_09FLNCBPON@Following@ 300c4370     cg_draw.obj
 0002:0000837c       ??_C@_0BC@GANINKC@?$CI?$CFs?5?$CFs?5?$CFs?$FO7?5?$FL?$CFs?$FN?$CJ@ 300c437c     cg_draw.obj
 0002:00008390       ??_C@_0BA@BEGNOCKF@?$CFs?5?$CFs?5?$CFs?$FO7?5?$FL?$CFs?$FN@ 300c4390     cg_draw.obj
 0002:000083a0       ??_C@_06BALNJMNP@player@   300c43a0     cg_draw.obj
 0002:000083a8       ??_C@_0BN@LNGPHPHC@WARMUP?3?5Waiting?5on?5?$FO2?$CFi?$FO3?5?$CFs@ 300c43a8     cg_draw.obj
 0002:000083c8       ??_C@_05EFIKCDOB@?$CI?$DP?$DP?$DP?$CJ@ 300c43c8     cg_draw.obj
 0002:000083d0       ??_C@_0CI@FJMBHKGL@Type?5?$FO3?2ready?$FO?$CK?5in?5the?5console?5@ 300c43d0     cg_draw.obj
 0002:000083f8       ??_C@_0BG@NKIADOPN@Press?5?$FO3?$CFs?$FO?$CK?5to?5start@ 300c43f8     cg_draw.obj
 0002:00008410       ??_C@_0BK@FCDHADC@?$CIWARMUP?$CJ?5Match?5begins?5in?3@ 300c4410     cg_draw.obj
 0002:0000842c       ??_C@_05INKFKLBN@?$CFs?5?$CFi@ 300c442c     cg_draw.obj
 0002:00008434       ??_C@_0BA@MMCCFKHN@Stopwatch?5Round@ 300c4434     cg_draw.obj
 0002:00008444       ??_C@_0CI@GPDAFPPD@You?5have?5been?5switched?5to?5the?5A@ 300c4444     cg_draw.obj
 0002:0000846c       ??_C@_0CI@CKDADHJ@Keep?5the?5Allies?5from?5beating?5th@ 300c446c     cg_draw.obj
 0002:00008494       ??_C@_0BJ@KAJPGOMG@You?5are?5on?5the?5Axis?5team@ 300c4494     cg_draw.obj
 0002:000084b0       ??_C@_0CK@KIGJGKLB@You?5have?5been?5switched?5to?5the?5A@ 300c44b0     cg_draw.obj
 0002:000084dc       ??_C@_0BH@IKFOKGNK@Try?5to?5beat?5the?5clock?$CB@ 300c44dc     cg_draw.obj
 0002:000084f4       ??_C@_0BL@FLIGGHJC@You?5are?5on?5the?5Allied?5team@ 300c44f4     cg_draw.obj
 0002:00008510       ??_C@_0CG@EOKDNGFN@Keep?5the?5Axis?5from?5beating?5the?5@ 300c4510     cg_draw.obj
 0002:00008538       ??_C@_0M@JJPLCLDP@ui_blackout@ 300c4538     cg_draw.obj
 0002:00008544       ??_C@_0BL@DFJAMD@The?5?$CFs?5team?5is?5speclocked?$CB@ 300c4544     cg_draw.obj
 0002:00008560       ??_C@_02HHFHKOHM@?$DP?$DP@ 300c4560     cg_draw.obj
 0002:00008564       ??_C@_04LMCKOGIO@AXIS@     300c4564     cg_draw.obj
 0002:0000856c       ??_C@_03BBKEAIF@?$DP?$DP?$DP@ 300c456c     cg_draw.obj
 0002:00008570       ??_C@_09PFKBKPHC@voiceMenu@ 300c4570     cg_draw.obj
 0002:0000857c       ??_C@_0O@PJLPEGOC@cl_conXOffset@ 300c457c     cg_draw.obj
 0002:0000858c       ??_C@_08IEFHEHEG@?$CFi?$HM?$CFi?1?$CFi@ 300c458c     cg_draw.obj
 0002:00008598       ??_C@_05PPJGDEGI@?$CFi?1?$CFi@ 300c4598     cg_draw.obj
 0002:000085a0       ??_C@_02MEIMKHMB@HP@       300c45a0     cg_draw.obj
 0002:000085a4       ??_C@_05IBAGMDFC@?3?$CF02i@ 300c45a4     cg_draw.obj
 0002:000085ac       ??_C@_04JDIIJBFG@?300?5@   300c45ac     cg_draw.obj
 0002:000085b4       ??_C@_04ENHBHKMJ@?$CI?$CFs?$CJ@ 300c45b4     cg_draw.obj
 0002:000085bc       ??_C@_0N@JFAHPDPI@?300?5?$CIA?099?$CJ?5?5@ 300c45bc     cg_draw.obj
 0002:000085cc       ??_C@_0DE@EMLOCNOP@FIXME?3?5Dyno?5Counter?5Draw?5code?5f@ 300c45cc     cg_draw.obj
 0002:00008600       ??_C@_03OFAPEBGM@?$CFs?6@  300c4600     cg_draw.obj
 0002:00008604       ??_C@_0P@GDMHBBBK@?5demo?5?$CFs?3?5?$CFik?5@ 300c4604     cg_draw.obj
 0002:00008614       ??_C@_0BA@BJLNLNKA@?5audio?5?$CFs?3?5?$CFik?5@ 300c4614     cg_draw.obj
 0002:00008624       ??_C@_0O@ONFMLOJ@RECORDING?$CFs?$CFs@ 300c4624     cg_draw.obj
 0002:00008634       ??_C@_0BA@DONGFDFE@fonts?1?$CFs_?$CFd?4dat@ 300c4634     cg_draw.obj
 0002:00008644       ??_C@_08PIDICNBJ@cg_font1@ 300c4644     cg_draw.obj
 0002:00008650       ??_C@_0N@MNFLIB@cg_font1size@ 300c4650     cg_draw.obj
 0002:00008660       ??_C@_08NDBFHONK@cg_font2@ 300c4660     cg_draw.obj
 0002:0000866c       ??_C@_0N@IGFJCJCP@cg_font2size@ 300c466c     cg_draw.obj
 0002:0000867c       ??_C@_08MKAOEPJL@cg_font3@ 300c467c     cg_draw.obj
 0002:00008688       ??_C@_0N@ENAFPKIK@cg_font3size@ 300c4688     cg_draw.obj
 0002:00008698       ??_C@_08IFEPNJFM@cg_font4@ 300c4698     cg_draw.obj
 0002:000086a4       ??_C@_0N@FAAAMKDC@cg_font4size@ 300c46a4     cg_draw.obj
 0002:000086b4       ??_C@_0CE@GNKHIBFA@CG_DrawActive?3?5Undefined?5stereo@ 300c46b4     cg_draw.obj
 0002:000086d8       __real@3727c5ac            300c46d8     cg_draw.obj
 0002:000086dc       __real@38200000            300c46dc     cg_draw.obj
 0002:000086e0       __real@38a00000            300c46e0     cg_draw.obj
 0002:000086e4       __real@3a83126f            300c46e4     cg_draw.obj
 0002:000086e8       __real@3ba3d70a            300c46e8     cg_draw.obj
 0002:000086ec       __real@3dcccccd            300c46ec     cg_draw.obj
 0002:000086f0       __real@3e000000            300c46f0     cg_draw.obj
 0002:000086f4       __real@3f570a3d            300c46f4     cg_draw.obj
 0002:000086f8       __real@3f60624dd2f1a9fc    300c46f8     cg_draw.obj
 0002:00008700       __real@3f8a3d71            300c4700     cg_draw.obj
 0002:00008704       __real@3f8f5c29            300c4704     cg_draw.obj
 0002:00008708       __real@3fb70a3d            300c4708     cg_draw.obj
 0002:00008710       __real@3fb99999a0000000    300c4710     cg_draw.obj
 0002:00008718       __real@3fc99999a0000000    300c4718     cg_draw.obj
 0002:00008720       __real@3fd126e978d4fdf4    300c4720     cg_draw.obj
 0002:00008728       __real@3fd9999a            300c4728     cg_draw.obj
 0002:00008730       __real@3fecccccc0000000    300c4730     cg_draw.obj
 0002:00008738       __real@4010000000000000    300c4738     cg_draw.obj
 0002:00008740       __real@4014000000000000    300c4740     cg_draw.obj
 0002:00008748       __real@401921fb60000000    300c4748     cg_draw.obj
 0002:00008750       __real@40200000            300c4750     cg_draw.obj
 0002:00008758       __real@4024000000000000    300c4758     cg_draw.obj
 0002:00008760       __real@40370a3d            300c4760     cg_draw.obj
 0002:00008768       __real@403e000000000000    300c4768     cg_draw.obj
 0002:00008770       __real@4059999a            300c4770     cg_draw.obj
 0002:00008778       __real@4066800000000000    300c4778     cg_draw.obj
 0002:00008780       __real@409f400000000000    300c4780     cg_draw.obj
 0002:00008788       __real@4168f5c3            300c4788     cg_draw.obj
 0002:0000878c       __real@41afede0            300c478c     cg_draw.obj
 0002:00008790       __real@41bb851f            300c4790     cg_draw.obj
 0002:00008794       __real@41c80000            300c4794     cg_draw.obj
 0002:00008798       __real@42235ce2            300c4798     cg_draw.obj
 0002:0000879c       __real@42500000            300c479c     cg_draw.obj
 0002:000087a0       __real@4255a0d9            300c47a0     cg_draw.obj
 0002:000087a4       __real@42b40000            300c47a4     cg_draw.obj
 0002:000087a8       __real@42d00000            300c47a8     cg_draw.obj
 0002:000087ac       __real@42ec0000            300c47ac     cg_draw.obj
 0002:000087b0       __real@43240000            300c47b0     cg_draw.obj
 0002:000087b4       __real@43520000            300c47b4     cg_draw.obj
 0002:000087b8       __real@43840000            300c47b8     cg_draw.obj
 0002:000087bc       __real@43a00000            300c47bc     cg_draw.obj
 0002:000087c0       __real@43a68000            300c47c0     cg_draw.obj
 0002:000087c4       __real@43a88000            300c47c4     cg_draw.obj
 0002:000087c8       __real@44000000            300c47c8     cg_draw.obj
 0002:000087cc       __real@441f4000            300c47cc     cg_draw.obj
 0002:000087d0       __real@44610000            300c47d0     cg_draw.obj
 0002:000087d4       __real@453b8000            300c47d4     cg_draw.obj
 0002:000087d8       __real@457a0000            300c47d8     cg_draw.obj
 0002:000087dc       __real@46000000            300c47dc     cg_draw.obj
 0002:000087e0       __real@464ccccd            300c47e0     cg_draw.obj
 0002:000087e4       __real@467c0400            300c47e4     cg_draw.obj
 0002:000087e8       __real@46cccccd            300c47e8     cg_draw.obj
 0002:000087ec       __real@bf000000            300c47ec     cg_draw.obj
 0002:000087f0       __real@bfe0000000000000    300c47f0     cg_draw.obj
 0002:00008800       __xmm@3e19999a3f8000003f8000003f800000 300c4800     cg_draw.obj
 0002:00008810       __xmm@3e800000000000000000000000000000 300c4810     cg_draw.obj
 0002:00008820       __xmm@3e8000003f8000003f8000003f800000 300c4820     cg_draw.obj
 0002:00008830       __xmm@3f0000003dcccccd3dcccccd3f800000 300c4830     cg_draw.obj
 0002:00008840       __xmm@3f0000003dcccccd3f8000003dcccccd 300c4840     cg_draw.obj
 0002:00008850       __xmm@3f0000003f8000003f8000003f800000 300c4850     cg_draw.obj
 0002:00008860       __xmm@3f800000000000000000000000000000 300c4860     cg_draw.obj
 0002:00008870       __xmm@3f800000000000003f8000003f800000 300c4870     cg_draw.obj
 0002:00008880       __xmm@3f8000003dcccccd3dcccccd3f451eb8 300c4880     cg_draw.obj
 0002:00008890       __xmm@3f8000003dcccccd3f3ae1483f451eb8 300c4890     cg_draw.obj
 0002:000088a0       __xmm@3f8000003f19999a3f2000003f200000 300c48a0     cg_draw.obj
 0002:000088b0       __xmm@41a0000041a0000043000000441a8000 300c48b0     cg_draw.obj
 0002:000088c0       __xmm@42800000412000004350000042480000 300c48c0     cg_draw.obj
 0002:000088d0       __real@3dd80000            300c48d0     cg_drawtools.obj
 0002:000088d4       __real@3e100000            300c48d4     cg_drawtools.obj
 0002:000088d8       __real@3f90000000000000    300c48d8     cg_drawtools.obj
 0002:000088e0       __real@3fb0000000000000    300c48e0     cg_drawtools.obj
 0002:000088e8       __real@3fe999999999999a    300c48e8     cg_drawtools.obj
 0002:000088f0       __real@4040800000000000    300c48f0     cg_drawtools.obj
 0002:000088f8       __real@4069000000000000    300c48f8     cg_drawtools.obj
 0002:00008900       __real@41d80000            300c4900     cg_drawtools.obj
 0002:00008910       __xmm@3e99999a3f0000003f0000003f000000 300c4910     cg_drawtools.obj
 0002:00008920       ??_C@_0BM@FJKGAFKH@CG_MakeExplosion?3?5msec?5?$DN?5?$CFi@ 300c4920     cg_effects.obj
 0002:0000893c       ??_C@_0BP@EEHJJPLA@Bad?5clientNum?5on?5player?5entity@ 300c493c     cg_effects.obj
 0002:0000895c       ??_C@_09KKEJJKOF@tag_mouth@ 300c495c     cg_effects.obj
 0002:00008968       ??_C@_0N@BNCCCPFE@tag_legright@ 300c4968     cg_effects.obj
 0002:00008978       ??_C@_0M@LAOECEAE@tag_legleft@ 300c4978     cg_effects.obj
 0002:00008984       ??_C@_0N@DOGDKPHP@tag_armright@ 300c4984     cg_effects.obj
 0002:00008994       ??_C@_0M@CIADLAPD@tag_armleft@ 300c4994     cg_effects.obj
 0002:000089a0       ??_C@_09FJEJHBEN@tag_torso@ 300c49a0     cg_effects.obj
 0002:000089ac       ??_C@_09JBECDLMC@tag_chest@ 300c49ac     cg_effects.obj
 0002:000089b8       ??_C@_08PGAPCFON@tag_head@ 300c49b8     cg_effects.obj
 0002:000089c4       __real@3d9fbe77            300c49c4     cg_effects.obj
 0002:000089c8       __real@3fa00000            300c49c8     cg_effects.obj
 0002:000089d0       __real@3fa999999999999a    300c49d0     cg_effects.obj
 0002:000089d8       __real@3fd3333333333333    300c49d8     cg_effects.obj
 0002:000089e0       __real@4020000000000000    300c49e0     cg_effects.obj
 0002:000089e8       __real@4034000000000000    300c49e8     cg_effects.obj
 0002:000089f0       __real@4052c00000000000    300c49f0     cg_effects.obj
 0002:000089f8       __real@406f400000000000    300c49f8     cg_effects.obj
 0002:00008a00       __real@40b3880000000000    300c4a00     cg_effects.obj
 0002:00008a08       __real@420c0000            300c4a08     cg_effects.obj
 0002:00008a0c       __real@42960000            300c4a0c     cg_effects.obj
 0002:00008a10       __real@429c0000            300c4a10     cg_effects.obj
 0002:00008a14       __real@42a80000            300c4a14     cg_effects.obj
 0002:00008a18       __real@44200000            300c4a18     cg_effects.obj
 0002:00008a1c       __real@477fff00            300c4a1c     cg_effects.obj
 0002:00008a20       __real@bf19999a            300c4a20     cg_effects.obj
 0002:00008a28       __real@c049000000000000    300c4a28     cg_effects.obj
 0002:00008a30       __real@c2800000            300c4a30     cg_effects.obj
 0002:00008a40       __xmm@41f00000bf8000000000000000000000 300c4a40     cg_effects.obj
 0002:00008a50       ??_C@_0L@CJNIOAHF@tag_ammo01@ 300c4a50     cg_ents.obj
 0002:00008a5c       ??_C@_0L@CPFLDLG@tag_ammo02@ 300c4a5c     cg_ents.obj
 0002:00008a68       ??_C@_0L@BLOOICPH@tag_ammo03@ 300c4a68     cg_ents.obj
 0002:00008a74       ??_C@_0L@FEKPBEDA@tag_ammo04@ 300c4a74     cg_ents.obj
 0002:00008a80       ??_C@_0L@ENLECFHB@tag_ammo05@ 300c4a80     cg_ents.obj
 0002:00008a8c       ??_C@_0L@GGJJHGLC@tag_ammo06@ 300c4a8c     cg_ents.obj
 0002:00008a98       ??_C@_0CL@ELNJKFOF@models?1multiplayer?1supplies?1amm@ 300c4a98     cg_ents.obj
 0002:00008ac4       ??_C@_0CO@CKHNKHEO@models?1mapobjects?1supplystands?1@ 300c4ac4     cg_ents.obj
 0002:00008af4       ??_C@_0P@LHMIDJED@tag_Medikit_01@ 300c4af4     cg_ents.obj
 0002:00008b04       ??_C@_0P@JMOFGKIA@tag_Medikit_02@ 300c4b04     cg_ents.obj
 0002:00008b14       ??_C@_0P@IFPOFLMB@tag_Medikit_03@ 300c4b14     cg_ents.obj
 0002:00008b24       ??_C@_0P@MKLPMNAG@tag_Medikit_04@ 300c4b24     cg_ents.obj
 0002:00008b34       ??_C@_0P@NDKEPMEH@tag_Medikit_05@ 300c4b34     cg_ents.obj
 0002:00008b44       ??_C@_0P@PIIJKPIE@tag_Medikit_06@ 300c4b44     cg_ents.obj
 0002:00008b54       ??_C@_0CN@MGGMALEF@models?1multiplayer?1supplies?1hea@ 300c4b54     cg_ents.obj
 0002:00008b84       ??_C@_0DA@HDCFONME@models?1mapobjects?1supplystands?1@ 300c4b84     cg_ents.obj
 0002:00008bb4       ??_C@_0BM@DFPOGHOF@Bad?5item?5index?5?$CFi?5on?5entity@ 300c4bb4     cg_ents.obj
 0002:00008bd0       ??_C@_0M@PIONGGCJ@tag_stand?$CFd@ 300c4bd0     cg_ents.obj
 0002:00008bdc       ??_C@_09OGNKPGPP@tag_stand@ 300c4bdc     cg_ents.obj
 0002:00008be8       ??_C@_0BC@NBFEOCP@cameras?1?$CFs?4camera@ 300c4be8     cg_ents.obj
 0002:00008bfc       ??_C@_0L@CCIMLBHF@tag_player@ 300c4bfc     cg_ents.obj
 0002:00008c08       ??_C@_0BF@NGFHFBLN@Bad?5entity?5type?3?5?$CFi?6@ 300c4c08     cg_ents.obj
 0002:00008c20       ??_C@_0N@FNEDJNCG@tag_mg42nest@ 300c4c20     cg_ents.obj
 0002:00008c30       ??_C@_08BCHAHEJP@tag_mg42@ 300c4c30     cg_ents.obj
 0002:00008c3c       ??_C@_0N@FILKDDBN@tag_playerpo@ 300c4c3c     cg_ents.obj
 0002:00008c4c       ??_C@_09FNBKMGLL@tag_flash@ 300c4c4c     cg_ents.obj
 0002:00008c58       __real@3b808081            300c4c58     cg_ents.obj
 0002:00008c5c       __real@3d6978d5            300c4c5c     cg_ents.obj
 0002:00008c60       __real@3f40000000000000    300c4c60     cg_ents.obj
 0002:00008c68       __real@3f70000000000000    300c4c68     cg_ents.obj
 0002:00008c70       __real@3f747ae147ae147b    300c4c70     cg_ents.obj
 0002:00008c78       __real@3f847ae147ae147b    300c4c78     cg_ents.obj
 0002:00008c80       __real@3fb2492bc2fc6973    300c4c80     cg_ents.obj
 0002:00008c88       __real@4000000000000000    300c4c88     cg_ents.obj
 0002:00008c90       __real@4053200000000000    300c4c90     cg_ents.obj
 0002:00008c98       __real@4076800000000000    300c4c98     cg_ents.obj
 0002:00008ca0       __real@40affe0000000000    300c4ca0     cg_ents.obj
 0002:00008ca8       __real@428c0000            300c4ca8     cg_ents.obj
 0002:00008cac       __real@45800000            300c4cac     cg_ents.obj
 0002:00008cb0       __real@bf70a3d7            300c4cb0     cg_ents.obj
 0002:00008cb8       __real@bfe3333333333333    300c4cb8     cg_ents.obj
 0002:00008cc0       __xmm@3dcccccd3f8000003f8000003f800000 300c4cc0     cg_ents.obj
 0002:00008cd0       ??_C@_0BL@OHFKEEHJ@sound?1world?1boardbreak?4wav@ 300c4cd0     cg_event.obj
 0002:00008cec       ??_C@_0BM@DFPBIHHH@sound?1world?1glassbreak1?4wav@ 300c4cec     cg_event.obj
 0002:00008d08       ??_C@_0BM@LDGFPFNJ@sound?1world?1glassbreak2?4wav@ 300c4d08     cg_event.obj
 0002:00008d24       ??_C@_0BM@HIDJCGHM@sound?1world?1glassbreak3?4wav@ 300c4d24     cg_event.obj
 0002:00008d40       ??_C@_0BL@JIIJGPP@sound?1world?1metalbreak?4wav@ 300c4d40     cg_event.obj
 0002:00008d5c       ??_C@_0BK@PIBGJCDC@sound?1world?1gibsplit1?4wav@ 300c4d5c     cg_event.obj
 0002:00008d78       ??_C@_0BI@GBHNCFMF@sound?1world?1debris1?4wav@ 300c4d78     cg_event.obj
 0002:00008d90       ??_C@_0BK@OMIDHNME@sound?1world?1stonefall?4wav@ 300c4d90     cg_event.obj
 0002:00008dac       ??_C@_08IJBDIACA@railCore@ 300c4dac     cg_event.obj
 0002:00008db8       ??_C@_0CB@LLKCBBGA@CG_Obituary?3?5target?5out?5of?5rang@ 300c4db8     cg_event.obj
 0002:00008ddc       ??_C@_0BC@NGJNAHCO@committed?5suicide@ 300c4ddc     cg_event.obj
 0002:00008df0       ??_C@_0BC@GEKAIHGJ@fell?5to?5his?5death@ 300c4df0     cg_event.obj
 0002:00008e04       ??_C@_0M@KLDMLMJI@was?5crushed@ 300c4e04     cg_event.obj
 0002:00008e10       ??_C@_07JDKPOJNN@drowned@  300c4e10     cg_event.obj
 0002:00008e18       ??_C@_0BI@NKKKJDO@died?5by?5toxic?5materials@ 300c4e18     cg_event.obj
 0002:00008e30       ??_C@_0L@IJOJMIHJ@was?5killed@ 300c4e30     cg_event.obj
 0002:00008e3c       ??_C@_0CC@KPMHPIDP@got?5buried?5under?5a?5pile?5of?5rubb@ 300c4e3c     cg_event.obj
 0002:00008e60       ??_C@_0BA@MHKAGMNC@was?5incinerated@ 300c4e60     cg_event.obj
 0002:00008e70       ??_C@_0BM@ENAMPOFB@dynamited?5himself?5to?5pieces@ 300c4e70     cg_event.obj
 0002:00008e8c       ??_C@_0BI@JJCIFHCH@dove?5on?5his?5own?5grenade@ 300c4e8c     cg_event.obj
 0002:00008ea4       ??_C@_0BC@DMKNKOLK@vaporized?5himself@ 300c4ea4     cg_event.obj
 0002:00008eb8       ??_C@_0BB@KBDGNFOF@played?5with?5fire@ 300c4eb8     cg_event.obj
 0002:00008ecc       ??_C@_0BE@MCPKABGA@obliterated?5himself@ 300c4ecc     cg_event.obj
 0002:00008ee0       ??_C@_0BM@KIEFOLCH@fired?9for?9effect?5on?5himself@ 300c4ee0     cg_event.obj
 0002:00008efc       ??_C@_0BK@CGNMJBBA@died?5in?5his?5own?5explosion@ 300c4efc     cg_event.obj
 0002:00008f18       ??_C@_0BK@GHFJIBAF@ate?5his?5own?5rifle?5grenade@ 300c4f18     cg_event.obj
 0002:00008f34       ??_C@_0CA@BGKEHJNA@failed?5to?5spot?5his?5own?5landmine@ 300c4f34     cg_event.obj
 0002:00008f54       ??_C@_0CD@CNECFGAC@embraced?5his?5own?5satchel?5explos@ 300c4f54     cg_event.obj
 0002:00008f78       ??_C@_0BO@FLPKJGKM@forgot?5where?5his?5tripmine?5was@ 300c4f78     cg_event.obj
 0002:00008f98       ??_C@_0CB@MJKEPHJI@engineered?5himself?5into?5oblivio@ 300c4f98     cg_event.obj
 0002:00008fbc       ??_C@_0BF@ONPKLMC@buried?5himself?5alive@ 300c4fbc     cg_event.obj
 0002:00008fd4       ??_C@_0CG@BBKOLNHF@never?5saw?5his?5own?5mortar?5round?5@ 300c4fd4     cg_event.obj
 0002:00008ffc       ??_C@_0BP@EKEBIPAP@danced?5on?5his?5airstrike?5marker@ 300c4ffc     cg_event.obj
 0002:0000901c       ??_C@_0CF@POENOHGO@was?5killed?5by?5his?5own?5friendly?5@ 300c501c     cg_event.obj
 0002:00009044       ??_C@_0P@DNKIPMGE@killed?5himself@ 300c5044     cg_event.obj
 0002:00009054       ??_C@_06HJDNOGPI@?$CFs?5?$CFs?4@ 300c5054     cg_event.obj
 0002:0000905c       ??_C@_0BI@DCOHBCEG@You?5swapped?5places?5with@ 300c505c     cg_event.obj
 0002:00009074       ??_C@_0BI@CCGAKIJB@You?5killed?5?$FO1TEAMMATE?$FO7@ 300c5074     cg_event.obj
 0002:0000908c       ??_C@_0L@DANACFJB@You?5killed@ 300c508c     cg_event.obj
 0002:00009098       ??_C@_06LNKFDEGN@noname@   300c5098     cg_event.obj
 0002:000090a0       ??_C@_0P@MHCGMPBF@was?5stabbed?5by@ 300c50a0     cg_event.obj
 0002:000090b0       ??_C@_08EEMLANJI@?8s?5knife@ 300c50b0     cg_event.obj
 0002:000090bc       ??_C@_0O@JEEJCGAD@was?5killed?5by@ 300c50bc     cg_event.obj
 0002:000090cc       ??_C@_0BH@DHJMNEDM@?8s?5Akimbo?5?445ACP?51911s@ 300c50cc     cg_event.obj
 0002:000090e4       ??_C@_0BF@KCIAJDDL@?8s?5Akimbo?5Luger?59mms@ 300c50e4     cg_event.obj
 0002:000090fc       ??_C@_0N@EMIIPKCL@?8s?5Luger?59mm@ 300c50fc     cg_event.obj
 0002:0000910c       ??_C@_0P@EBOFPJDA@?8s?5?445ACP?51911@ 300c510c     cg_event.obj
 0002:0000911c       ??_C@_07CEAIGMLM@?8s?5MP40@ 300c511c     cg_event.obj
 0002:00009124       ??_C@_0M@BNJHJCLA@?8s?5Thompson@ 300c5124     cg_event.obj
 0002:00009130       ??_C@_07JNMOEJGL@?8s?5Sten@ 300c5130     cg_event.obj
 0002:00009138       ??_C@_0P@CIDIINED@was?5blasted?5by@ 300c5138     cg_event.obj
 0002:00009148       ??_C@_0M@GFBNJIK@?8s?5dynamite@ 300c5148     cg_event.obj
 0002:00009154       ??_C@_0P@MBBMJJLJ@?8s?5Panzerfaust@ 300c5154     cg_event.obj
 0002:00009164       ??_C@_0BA@EFAEGK@was?5exploded?5by@ 300c5164     cg_event.obj
 0002:00009174       ??_C@_0L@KPHMDLGC@?8s?5grenade@ 300c5174     cg_event.obj
 0002:00009180       ??_C@_0O@LPKMCGBA@was?5cooked?5by@ 300c5180     cg_event.obj
 0002:00009190       ??_C@_0BA@GLAIICFC@?8s?5flamethrower@ 300c5190     cg_event.obj
 0002:000091a0       ??_C@_09KBNEFOGO@never?5saw@ 300c51a0     cg_event.obj
 0002:000091ac       ??_C@_0BH@BGANGGGE@?8s?5mortar?5round?5coming@ 300c51ac     cg_event.obj
 0002:000091c4       ??_C@_0BC@GIOBEPKG@was?5perforated?5by@ 300c51c4     cg_event.obj
 0002:000091d8       ??_C@_0BC@GLFNFJHP@?8s?5crew?9served?5MG@ 300c51d8     cg_event.obj
 0002:000091ec       ??_C@_0BP@MLDMMHEH@?8s?5tank?9mounted?5browning?530cal@ 300c51ec     cg_event.obj
 0002:0000920c       ??_C@_0BF@LJMOIBAP@?8s?5tank?9mounted?5MG42@ 300c520c     cg_event.obj
 0002:00009224       ??_C@_0BA@PNPMPOEE@?8s?5support?5fire@ 300c5224     cg_event.obj
 0002:00009234       ??_C@_0P@OCONJGBA@was?5shelled?5by@ 300c5234     cg_event.obj
 0002:00009244       ??_C@_0BF@DMFOLGBH@?8s?5artillery?5support@ 300c5244     cg_event.obj
 0002:0000925c       ??_C@_0BI@CFHEPLD@?$FO2swapped?5places?5with?$FO7@ 300c525c     cg_event.obj
 0002:00009274       ??_C@_06LPOCIALI@?8s?5K43@ 300c5274     cg_event.obj
 0002:0000927c       ??_C@_09IAPIOOCO@?8s?5Garand@ 300c527c     cg_event.obj
 0002:00009288       ??_C@_0BB@OHJPANEF@?8s?5rifle?5grenade@ 300c5288     cg_event.obj
 0002:0000929c       ??_C@_0P@JKHECIG@failed?5to?5spot@ 300c529c     cg_event.obj
 0002:000092ac       ??_C@_0M@NBFKGELK@?8s?5Landmine@ 300c52ac     cg_event.obj
 0002:000092b8       ??_C@_0O@GANBIMGN@got?5caught?5in@ 300c52b8     cg_event.obj
 0002:000092c8       ??_C@_0BI@LKCJMDOO@?8s?5construction?5madness@ 300c52c8     cg_event.obj
 0002:000092e0       ??_C@_0BC@DGAFHMCO@got?5burried?5under@ 300c52e0     cg_event.obj
 0002:000092f4       ??_C@_09IKCOPJBF@?8s?5rubble@ 300c52f4     cg_event.obj
 0002:00009300       ??_C@_0BB@LKGDMEPP@was?5mown?5down?5by@ 300c5300     cg_event.obj
 0002:00009314       ??_C@_0P@GHHOBBGE@?8s?5Mobile?5MG42@ 300c5314     cg_event.obj
 0002:00009324       ??_C@_0BA@BECELOFA@was?5silenced?5by@ 300c5324     cg_event.obj
 0002:00009334       ??_C@_07KMCAFAAJ@?8s?5FG42@ 300c5334     cg_event.obj
 0002:0000933c       ??_C@_0O@CMMPHCAI@was?5sniped?5by@ 300c533c     cg_event.obj
 0002:0000934c       ??_C@_0BC@JAOABKED@?8s?5Satchel?5Charge@ 300c534c     cg_event.obj
 0002:00009360       ??_C@_0BB@JOCGIOLN@was?5detonated?5by@ 300c5360     cg_event.obj
 0002:00009374       ??_C@_0N@JDBGPKIC@?8s?5trip?5mine@ 300c5374     cg_event.obj
 0002:00009384       ??_C@_08IOLLOCP@stood?5on@ 300c5384     cg_event.obj
 0002:00009390       ??_C@_0BE@OPCIDHME@?8s?5airstrike?5marker@ 300c5390     cg_event.obj
 0002:000093a4       ??_C@_0BA@BPIBDHAC@was?5poisoned?5by@ 300c53a4     cg_event.obj
 0002:000093b4       ??_C@_0L@LINPLOIM@?8s?5needle?4@ 300c53b4     cg_event.obj
 0002:000093c0       ??_C@_0CC@MEOFDCAG@experienced?5death?5from?5above?5fr@ 300c53c0     cg_event.obj
 0002:000093e4       ??_C@_0BH@PPJOMGDK@was?5scared?5to?5death?5by@ 300c53e4     cg_event.obj
 0002:000093fc       ??_C@_0BC@JKEBHMIE@?8s?5throwing?5knife@ 300c53fc     cg_event.obj
 0002:00009410       ??_C@_0BN@NECFJJMC@?$FO7was?5killed?5by?5?$FO1TEAMMATE?$FO7@ 300c5410     cg_event.obj
 0002:00009430       ??_C@_0P@EMMMEPDE@?$FO1TEAMKILL?3?5?$FO7@ 300c5430     cg_event.obj
 0002:00009440       ??_C@_0N@EEMPCPLI@?$CFs?$CFs?5?$CFs?5?$CFs?$CFs@ 300c5440     cg_event.obj
 0002:00009450       ??_C@_08HDJELGMD@?$CFs?5died?4@ 300c5450     cg_event.obj
 0002:0000945c       ??_C@_0N@BJLIPJKA@Picked?5up?5?$CFs@ 300c545c     cg_event.obj
 0002:0000946c       ??_C@_0O@LDJLGKNK@?$CKpain25_1?4wav@ 300c546c     cg_event.obj
 0002:0000947c       ??_C@_0O@JPBKAJHH@?$CKpain50_1?4wav@ 300c547c     cg_event.obj
 0002:0000948c       ??_C@_0O@PJAMCPJF@?$CKpain75_1?4wav@ 300c548c     cg_event.obj
 0002:0000949c       ??_C@_0P@MHKKKFHB@?$CKpain100_1?4wav@ 300c549c     cg_event.obj
 0002:000094ac       ??_C@_0P@BLAPONDA@blacksmokeanim@ 300c54ac     cg_event.obj
 0002:000094bc       ??_C@_08MEIODECE@explode1@ 300c54bc     cg_event.obj
 0002:000094c8       ??_C@_0M@HBPNKFIC@textures?1?$CFs@ 300c54c8     cg_event.obj
 0002:000094d4       ??_C@_0BP@DECMAFIA@CG_Debris?5has?5an?5unknown?5type?6@ 300c54d4     cg_event.obj
 0002:000094f4       ??_C@_0BM@ODIJAADJ@time?3?$CFi?5ent?3?$CF3i?5?5event?3?$CF3i?5@ 300c54f4     cg_event.obj
 0002:00009510       ??_C@_0L@GMIFJJAD@ZEROEVENT?6@ 300c5510     cg_event.obj
 0002:0000951c       ??_C@_0N@KAJBJGHI@EV_FOOTSTEP?6@ 300c551c     cg_event.obj
 0002:0000952c       ??_C@_0P@ECCJNKCN@EV_FOOTSPLASH?6@ 300c552c     cg_event.obj
 0002:0000953c       ??_C@_0N@DBFBMKGC@EV_FOOTWADE?6@ 300c553c     cg_event.obj
 0002:0000954c       ??_C@_08KPLPEGCK@EV_SWIM?6@ 300c554c     cg_event.obj
 0002:00009558       ??_C@_0P@DBGGEJF@EV_FALL_SHORT?6@ 300c5558     cg_event.obj
 0002:00009568       ??_C@_0BA@GPAIKPBL@EV_FALL_DMG_10?6@ 300c5568     cg_event.obj
 0002:00009578       ??_C@_0BA@GJMDGNPA@EV_FALL_DMG_15?6@ 300c5578     cg_event.obj
 0002:00009588       ??_C@_0BA@HLHGMCBO@EV_FALL_DMG_25?6@ 300c5588     cg_event.obj
 0002:00009598       ??_C@_0BA@OAGKDIEM@EV_FALL_DMG_50?6@ 300c5598     cg_event.obj
 0002:000095a8       ??_C@_0O@CCNBBGCL@EV_FALL_NDIE?6@ 300c55a8     cg_event.obj
 0002:000095b8       ??_C@_0L@NNKOBAOD@EV_EXERT1?6@ 300c55b8     cg_event.obj
 0002:000095c4       ??_C@_0M@CFNIPBAO@?$CKexert1?4wav@ 300c55c4     cg_event.obj
 0002:000095d0       ??_C@_0L@NPOIKOLK@EV_EXERT2?6@ 300c55d0     cg_event.obj
 0002:000095dc       ??_C@_0M@KDEMIDKA@?$CKexert2?4wav@ 300c55dc     cg_event.obj
 0002:000095e8       ??_C@_0L@NOCKMEIN@EV_EXERT3?6@ 300c55e8     cg_event.obj
 0002:000095f4       ??_C@_0M@GIBAFAAF@?$CKexert3?4wav@ 300c55f4     cg_event.obj
 0002:00009600       ??_C@_08LGDHLDGB@EV_STEP?6@ 300c5600     cg_event.obj
 0002:0000960c       ??_C@_08GKDKOBGN@EV_JUMP?6@ 300c560c     cg_event.obj
 0002:00009618       ??_C@_0L@FMHDEMAN@?$CKjump1?4wav@ 300c5618     cg_event.obj
 0002:00009624       ??_C@_09OAFEJHMF@EV_TAUNT?6@ 300c5624     cg_event.obj
 0002:00009630       ??_C@_0L@FDBCLIPJ@?$CKtaunt?4wav@ 300c5630     cg_event.obj
 0002:0000963c       ??_C@_0BA@PBFGAGAE@EV_WATER_TOUCH?6@ 300c563c     cg_event.obj
 0002:0000964c       ??_C@_0BA@POIDPCHH@EV_WATER_LEAVE?6@ 300c564c     cg_event.obj
 0002:0000965c       ??_C@_0BA@PFCHBJFN@EV_WATER_UNDER?6@ 300c565c     cg_event.obj
 0002:0000966c       ??_C@_0BA@OODKPEF@EV_WATER_CLEAR?6@ 300c566c     cg_event.obj
 0002:0000967c       ??_C@_0BA@LGJAHGJL@EV_ITEM_PICKUP?6@ 300c567c     cg_event.obj
 0002:0000968c       ??_C@_0BH@BPJPNNOH@EV_GLOBAL_ITEM_PICKUP?6@ 300c568c     cg_event.obj
 0002:000096a4       ??_C@_09FACBJNPD@EV_VENOM?6@ 300c56a4     cg_event.obj
 0002:000096b0       ??_C@_0BC@HAIDNCNO@EV_WEAP_OVERHEAT?6@ 300c56b0     cg_event.obj
 0002:000096c4       ??_C@_0L@HHOOBKKC@EV_SPINUP?6@ 300c56c4     cg_event.obj
 0002:000096d0       ??_C@_0O@LBHGAHOB@EV_EMPTYCLIP?6@ 300c56d0     cg_event.obj
 0002:000096e0       ??_C@_0O@KHAFGPFL@EV_FILL_CLIP?6@ 300c56e0     cg_event.obj
 0002:000096f0       ??_C@_0P@LKFMDAPL@EV_MG42_FIXED?6@ 300c56f0     cg_event.obj
 0002:00009700       ??_C@_0L@CIOCLBPP@EV_NOAMMO?6@ 300c5700     cg_event.obj
 0002:0000970c       ??_C@_0BC@KBHMOJOO@EV_CHANGE_WEAPON?6@ 300c570c     cg_event.obj
 0002:00009720       ??_C@_0BF@KFPMECGM@EV_FIRE_WEAPON_MG42?6@ 300c5720     cg_event.obj
 0002:00009738       ??_C@_0BG@MAKHMAGL@EV_FIRE_WEAPON_AAGUN?6@ 300c5738     cg_event.obj
 0002:00009750       ??_C@_0BA@CJMMIDHE@EV_FIRE_WEAPON?6@ 300c5750     cg_event.obj
 0002:00009760       ??_C@_0BJ@KDOEEGDA@EV_FIRE_WEAPON_LASTSHOT?6@ 300c5760     cg_event.obj
 0002:0000977c       ??_C@_0BG@IFMOEGLI@EV_NOFIRE_UNDERWATER?6@ 300c577c     cg_event.obj
 0002:00009794       ??_C@_0BD@EIBAGLKH@EV_GRENADE_BOUNCE?6@ 300c5794     cg_event.obj
 0002:000097a8       ??_C@_0BA@IGKGMCOM@EV_MISSILE_HIT?6@ 300c57a8     cg_event.obj
 0002:000097b8       ??_C@_0BB@PNKCFMCO@EV_MISSILE_MISS?6@ 300c57b8     cg_event.obj
 0002:000097cc       ??_C@_0BH@IPMBHGJ@EV_MISSILE_MISS_LARGE?6@ 300c57cc     cg_event.obj
 0002:000097e4       ??_C@_0BC@HPFEFPGM@EV_MORTAR_IMPACT?6@ 300c57e4     cg_event.obj
 0002:000097f8       ??_C@_0BA@BCBLMKGK@EV_MORTAR_MISS?6@ 300c57f8     cg_event.obj
 0002:00009808       ??_C@_0BI@JADKDIPI@EV_MG42BULLET_HIT_WALL?6@ 300c5808     cg_event.obj
 0002:00009820       ??_C@_0BJ@ECFKFACO@EV_MG42BULLET_HIT_FLESH?6@ 300c5820     cg_event.obj
 0002:0000983c       ??_C@_0BE@DJCGNKAA@EV_BULLET_HIT_WALL?6@ 300c583c     cg_event.obj
 0002:00009850       ??_C@_0BF@PBJFDGOC@EV_BULLET_HIT_FLESH?6@ 300c5850     cg_event.obj
 0002:00009868       ??_C@_0BC@BJDFIFFI@EV_GENERAL_SOUND?6@ 300c5868     cg_event.obj
 0002:0000987c       ??_C@_0N@FEHGNBJI@EV_FX_SOUND?6@ 300c587c     cg_event.obj
 0002:0000988c       ??_C@_0BJ@GOPBFLFN@EV_GENERAL_SOUND_VOLUME?6@ 300c588c     cg_event.obj
 0002:000098a8       ??_C@_0BG@DDNACAKH@EV_GLOBAL_TEAM_SOUND?6@ 300c58a8     cg_event.obj
 0002:000098c0       ??_C@_0BB@DOBOGIIM@EV_GLOBAL_SOUND?6@ 300c58c0     cg_event.obj
 0002:000098d4       ??_C@_0BI@FOLNNOKM@EV_GLOBAL_CLIENT_SOUND?6@ 300c58d4     cg_event.obj
 0002:000098ec       ??_C@_08MEMNOIPP@EV_PAIN?6@ 300c58ec     cg_event.obj
 0002:000098f8       ??_C@_0L@GGFIAEKN@EV_DEATHx?6@ 300c58f8     cg_event.obj
 0002:00009904       ??_C@_0N@OJAOIBLE@?$CKdeath?$CFi?4wav@ 300c5904     cg_event.obj
 0002:00009914       ??_C@_0N@NHOCPMCE@EV_OBITUARY?6@ 300c5914     cg_event.obj
 0002:00009924       ??_C@_0BF@JEGDHJFI@EV_STOPLOOPINGSOUND?6@ 300c5924     cg_event.obj
 0002:0000993c       ??_C@_0N@HLHDANM@EV_LOSE_HAT?6@ 300c593c     cg_event.obj
 0002:0000994c       ??_C@_0P@OAKOFJEN@EV_GIB_PLAYER?6@ 300c594c     cg_event.obj
 0002:0000995c       ??_C@_0P@DKFKJLCN@EV_DEBUG_LINE?6@ 300c595c     cg_event.obj
 0002:0000996c       ??_C@_09FCFLNPGG@EV_SMOKE?6@ 300c596c     cg_event.obj
 0002:00009978       ??_C@_0M@PPBMBJBK@EV_EXPLODE?6@ 300c5978     cg_event.obj
 0002:00009984       ??_C@_0L@HBLHFBNH@EV_RUBBLE?6@ 300c5984     cg_event.obj
 0002:00009990       ??_C@_0L@DNMJKIKB@EV_EFFECT?6@ 300c5990     cg_event.obj
 0002:0000999c       ??_C@_0O@OGGNDOBH@EV_MORTAREFX?6@ 300c599c     cg_event.obj
 0002:000099ac       ??_C@_09LNKGPALE@EV_SHAKE?6@ 300c59ac     cg_event.obj
 0002:000099b8       ??_C@_0BC@FPCFEIIK@EV_ALERT_SPEAKER?6@ 300c59b8     cg_event.obj
 0002:000099cc       ??_C@_0BJ@FEBPPAN@axis_hq_airstrike_denied@ 300c59cc     cg_event.obj
 0002:000099e8       ??_C@_0BL@DOBGJINC@allies_hq_airstrike_denied@ 300c59e8     cg_event.obj
 0002:00009a04       ??_C@_0BI@BCIMPOMB@axis_hq_airstrike_abort@ 300c5a04     cg_event.obj
 0002:00009a1c       ??_C@_0BK@CLMLOJOB@allies_hq_airstrike_abort@ 300c5a1c     cg_event.obj
 0002:00009a38       ??_C@_0BC@GEJDJFHL@axis_hq_airstrike@ 300c5a38     cg_event.obj
 0002:00009a4c       ??_C@_0BE@JAFMOKG@allies_hq_airstrike@ 300c5a4c     cg_event.obj
 0002:00009a60       ??_C@_0BD@BJEODJFL@axis_hq_ffe_denied@ 300c5a60     cg_event.obj
 0002:00009a74       ??_C@_0BF@OBEBABGJ@allies_hq_ffe_denied@ 300c5a74     cg_event.obj
 0002:00009a8c       ??_C@_0BC@HBCLMKJA@axis_hq_ffe_abort@ 300c5a8c     cg_event.obj
 0002:00009aa0       ??_C@_0BE@BMLNJBEN@allies_hq_ffe_abort@ 300c5aa0     cg_event.obj
 0002:00009ab4       ??_C@_0M@JDBPJPNC@axis_hq_ffe@ 300c5ab4     cg_event.obj
 0002:00009ac0       ??_C@_0O@FHABNHOL@allies_hq_ffe@ 300c5ac0     cg_event.obj
 0002:00009ad0       ??_C@_0BD@HNHLAFLE@EV_BOT_DEBUG_LINE?6@ 300c5ad0     cg_event.obj
 0002:00009ae4       ??_C@_0BF@MJANCGMG@EV_BOT_DEBUG_RADIUS?6@ 300c5ae4     cg_event.obj
 0002:00009afc       ??_C@_08GCOIMFOL@UNKNOWN?6@ 300c5afc     cg_event.obj
 0002:00009b08       ??_C@_0BC@OKELKAPM@Unknown?5event?3?5?$CFi@ 300c5b08     cg_event.obj
 0002:00009b20       __real@4038000000000000    300c5b20     cg_event.obj
 0002:00009b28       __real@42140000            300c5b28     cg_event.obj
 0002:00009b2c       __real@42980000            300c5b2c     cg_event.obj
 0002:00009b30       __real@42a00000            300c5b30     cg_event.obj
 0002:00009b34       __real@45fa0000            300c5b34     cg_event.obj
 0002:00009b40       __xmm@42800000bf8000000000000000000000 300c5b40     cg_event.obj
 0002:00009b50       ??_C@_0L@PEEOGCHH@0x00000000@ 300c5b50     cg_fireteamoverlay.obj
 0002:00009b5c       ??_C@_02EGCJHIOB@id@       300c5b5c     cg_fireteamoverlay.obj
 0002:00009b60       ??_C@_01HHGOMJKL@l@        300c5b60     cg_fireteamoverlay.obj
 0002:00009b64       ??_C@_01PAPGNFGE@c@        300c5b64     cg_fireteamoverlay.obj
 0002:00009b68       ??_C@_02NJNOFBBI@?$CFx@    300c5b68     cg_fireteamoverlay.obj
 0002:00009b6c       ??_C@_06OANMLBJC@Sample@   300c5b6c     cg_fireteamoverlay.obj
 0002:00009b74       ??_C@_0N@BEEAEDGA@Fireteam?3?5?$CFs@ 300c5b74     cg_fireteamoverlay.obj
 0002:00009b84       ??_C@_03GNABGMEE@100@      300c5b84     cg_fireteamoverlay.obj
 0002:00009b88       ??_C@_03IKCMFODH@X?0Y@     300c5b88     cg_fireteamoverlay.obj
 0002:00009b8c       ??_C@_06OHDLLFED@?$FO3?$CI?$CFs?$CJ@ 300c5b8c     cg_fireteamoverlay.obj
 0002:00009b94       ??_C@_09OHOPPOGD@?$FO3Unknown@ 300c5b94     cg_fireteamoverlay.obj
 0002:00009ba0       ??_C@_07OGADNHAC@?5?$FO3?$CI?$CFs?$CJ@ 300c5ba0     cg_fireteamoverlay.obj
 0002:00009ba8       ??_C@_01PPODPGHN@?$DO@     300c5ba8     cg_fireteamoverlay.obj
 0002:00009bac       ??_C@_01NBENCBCI@?$CK@     300c5bac     cg_fireteamoverlay.obj
 0002:00009bb0       ??_C@_03BEAEHGHM@0?$CFs@   300c5bb0     cg_fireteamoverlay.obj
 0002:00009bb4       ??_C@_04EDIMOABA@Sent@     300c5bb4     cg_fireteamoverlay.obj
 0002:00009bbc       ??_C@_06CMLPEGNC@Failed@   300c5bbc     cg_fireteamoverlay.obj
 0002:00009bc4       ??_C@_08DOBOODLA@Accepted@ 300c5bc4     cg_fireteamoverlay.obj
 0002:00009bd0       ??_C@_0BM@PJLLLIM@Accept?5application?5from?5?$CFs?$DP@ 300c5bd0     cg_fireteamoverlay.obj
 0002:00009bec       ??_C@_0BM@FLCNLIAP@Accept?5invitiation?5from?5?$CFs?$DP@ 300c5bec     cg_fireteamoverlay.obj
 0002:00009c08       ??_C@_0DM@MPJHLDPN@Accept?5?$CFs?8s?5proposition?5to?5invi@ 300c5c08     cg_fireteamoverlay.obj
 0002:00009c44       ??_C@_03JLNFKLOC@?$CFi?5@  300c5c44     cg_fireteamoverlay.obj
 0002:00009c50       __xmm@3e4ccccd000000000000000000000000 300c5c50     cg_fireteamoverlay.obj
 0002:00009c60       __xmm@3f19999a00000000000000003e800000 300c5c60     cg_fireteamoverlay.obj
 0002:00009c70       ??_C@_06FDAMAAOH@Attack@   300c5c70     cg_fireteams.obj
 0002:00009c78       ??_C@_09GFAGLPIA@Fall?5Back@ 300c5c78     cg_fireteams.obj
 0002:00009c84       ??_C@_08FEINEMIG@FTAttack@ 300c5c84     cg_fireteams.obj
 0002:00009c90       ??_C@_0L@PFKCNEMP@FTFallBack@ 300c5c90     cg_fireteams.obj
 0002:00009c9c       ??_C@_08GDELIAJM@Cover?5Me@ 300c5c9c     cg_fireteams.obj
 0002:00009ca8       ??_C@_0O@IACJNECF@Covering?5Fire@ 300c5ca8     cg_fireteams.obj
 0002:00009cb8       ??_C@_09FHNEPGJB@FTCoverMe@ 300c5cb8     cg_fireteams.obj
 0002:00009cc4       ??_C@_0P@IELJCAKM@FTCoveringFire@ 300c5cc4     cg_fireteams.obj
 0002:00009cd4       ??_C@_08IKDPPLNB@FTMortar@ 300c5cd4     cg_fireteams.obj
 0002:00009ce0       ??_C@_0L@JGBBIMDO@Heal?5Squad@ 300c5ce0     cg_fireteams.obj
 0002:00009cec       ??_C@_07OGLLPCHA@Heal?5Me@ 300c5cec     cg_fireteams.obj
 0002:00009cf4       ??_C@_0BB@POHOECCD@Revive?5Team?5Mate@ 300c5cf4     cg_fireteams.obj
 0002:00009d08       ??_C@_09IPCCKMJI@Revive?5Me@ 300c5d08     cg_fireteams.obj
 0002:00009d14       ??_C@_01DGKLNCNG@R@        300c5d14     cg_fireteams.obj
 0002:00009d18       ??_C@_0M@CBAGMBB@FTHealSquad@ 300c5d18     cg_fireteams.obj
 0002:00009d24       ??_C@_08PPKFFOCA@FTHealMe@ 300c5d24     cg_fireteams.obj
 0002:00009d30       ??_C@_0BB@DGENPIHO@FTReviveTeamMate@ 300c5d30     cg_fireteams.obj
 0002:00009d44       ??_C@_0L@GEDEFEAO@FTReviveMe@ 300c5d44     cg_fireteams.obj
 0002:00009d50       ??_C@_0BC@MAJCPKAP@Destroy?5Objective@ 300c5d50     cg_fireteams.obj
 0002:00009d64       ??_C@_0BB@DCENOECI@Repair?5Objective@ 300c5d64     cg_fireteams.obj
 0002:00009d78       ??_C@_0BE@FLGDCCHJ@Construct?5Objective@ 300c5d78     cg_fireteams.obj
 0002:00009d8c       ??_C@_0BA@MAPOGJHG@Disarm?5Dynamite@ 300c5d8c     cg_fireteams.obj
 0002:00009d9c       ??_C@_0BB@CJHHOBFJ@Deploy?5Landmines@ 300c5d9c     cg_fireteams.obj
 0002:00009db0       ??_C@_0BB@NEOHDIJE@Disarm?5Landmines@ 300c5db0     cg_fireteams.obj
 0002:00009dc4       ??_C@_01OCOKONAJ@L@        300c5dc4     cg_fireteams.obj
 0002:00009dc8       ??_C@_0BD@OPHLMAHI@FTDestroyObjective@ 300c5dc8     cg_fireteams.obj
 0002:00009ddc       ??_C@_0BC@IJOBOAH@FTRepairObjective@ 300c5ddc     cg_fireteams.obj
 0002:00009df0       ??_C@_0BF@CENHIGJG@FTConstructObjective@ 300c5df0     cg_fireteams.obj
 0002:00009e08       ??_C@_0BB@MACGAFBJ@FTDisarmDynamite@ 300c5e08     cg_fireteams.obj
 0002:00009e1c       ??_C@_0BC@PLMKCLCL@FTDeployLandmines@ 300c5e1c     cg_fireteams.obj
 0002:00009e30       ??_C@_0BC@JOKJMDB@FTDisarmLandmines@ 300c5e30     cg_fireteams.obj
 0002:00009e44       ??_C@_0BA@FIMPLHEJ@Call?5Air?9Strike@ 300c5e44     cg_fireteams.obj
 0002:00009e54       ??_C@_0P@MCGIHDPE@Call?5Artillery@ 300c5e54     cg_fireteams.obj
 0002:00009e64       ??_C@_0P@CJMJFEJB@Resupply?5Squad@ 300c5e64     cg_fireteams.obj
 0002:00009e74       ??_C@_0M@NJJFFNBD@Resupply?5Me@ 300c5e74     cg_fireteams.obj
 0002:00009e80       ??_C@_0BA@IHBCJPBG@FTCallAirStrike@ 300c5e80     cg_fireteams.obj
 0002:00009e90       ??_C@_0BA@OMPIGDCO@FTCallArtillery@ 300c5e90     cg_fireteams.obj
 0002:00009ea0       ??_C@_0BA@MBMFOLFA@FTResupplySquad@ 300c5ea0     cg_fireteams.obj
 0002:00009eb0       ??_C@_0N@CFGLHEIM@FTResupplyMe@ 300c5eb0     cg_fireteams.obj
 0002:00009ec0       ??_C@_0N@GCEECOON@Explore?5Area@ 300c5ec0     cg_fireteams.obj
 0002:00009ed0       ??_C@_0L@IBNBALOF@Infiltrate@ 300c5ed0     cg_fireteams.obj
 0002:00009edc       ??_C@_0O@JHHFIFNN@Go?5Undercover@ 300c5edc     cg_fireteams.obj
 0002:00009eec       ??_C@_0BF@LICLCKDG@Provide?5Sniper?5Cover@ 300c5eec     cg_fireteams.obj
 0002:00009f04       ??_C@_01JPJNBJEM@I@        300c5f04     cg_fireteams.obj
 0002:00009f08       ??_C@_01HJOKEEBB@U@        300c5f08     cg_fireteams.obj
 0002:00009f0c       ??_C@_0O@ECGJEENJ@FTExploreArea@ 300c5f0c     cg_fireteams.obj
 0002:00009f1c       ??_C@_0BD@CPDJLAGL@FTSatchelObjective@ 300c5f1c     cg_fireteams.obj
 0002:00009f30       ??_C@_0N@MHDHNDIO@FTInfiltrate@ 300c5f30     cg_fireteams.obj
 0002:00009f40       ??_C@_0P@MIEFPJNM@FTGoUndercover@ 300c5f40     cg_fireteams.obj
 0002:00009f50       ??_C@_0BF@MGHGPMME@FTProvideSniperCover@ 300c5f50     cg_fireteams.obj
 0002:00009f68       ??_C@_05KHOEDHDN@Apply@    300c5f68     cg_fireteams.obj
 0002:00009f70       ??_C@_06MIKANEJK@Create@   300c5f70     cg_fireteams.obj
 0002:00009f78       ??_C@_07JJAEOBKM@Propose@  300c5f78     cg_fireteams.obj
 0002:00009f80       ??_C@_05KMBJHHBA@Leave@    300c5f80     cg_fireteams.obj
 0002:00009f88       ??_C@_01EJNLAFE@P@         300c5f88     cg_fireteams.obj
 0002:00009f8c       ??_C@_07IHCCGGBK@Disband@  300c5f8c     cg_fireteams.obj
 0002:00009f94       ??_C@_06PKDAIMIJ@Invite@   300c5f94     cg_fireteams.obj
 0002:00009f9c       ??_C@_04JMEIBOCG@Kick@     300c5f9c     cg_fireteams.obj
 0002:00009fa4       ??_C@_04JMHPHBEI@Warn@     300c5fa4     cg_fireteams.obj
 0002:00009fac       ??_C@_01KNKLHLMO@K@        300c5fac     cg_fireteams.obj
 0002:00009fb0       ??_C@_07BAKMHNGL@MESSAGE@  300c5fb0     cg_fireteams.obj
 0002:00009fb8       ??_C@_09DBKAEJND@FIRETEAMS@ 300c5fb8     cg_fireteams.obj
 0002:00009fc4       ??_C@_04PJFINEKF@JOIN@     300c5fc4     cg_fireteams.obj
 0002:00009fcc       ??_C@_07JNCPDPHO@PROPOSE@  300c5fcc     cg_fireteams.obj
 0002:00009fd4       ??_C@_06DBKGGLMH@INVITE@   300c5fd4     cg_fireteams.obj
 0002:00009fdc       ??_C@_04JBIELMDE@WARN@     300c5fdc     cg_fireteams.obj
 0002:00009fe4       ??_C@_06JFCBNLCL@?$CFc?4?5?$CFs@ 300c5fe4     cg_fireteams.obj
 0002:00009fec       ??_C@_08CAGLMDLD@Previous@ 300c5fec     cg_fireteams.obj
 0002:00009ff8       ??_C@_04MDFHGMOB@Next@     300c5ff8     cg_fireteams.obj
 0002:0000a000       ??_C@_06JGPHNJLA@?$CFs?4?5?$CFs@ 300c6000     cg_fireteams.obj
 0002:0000a008       ??_C@_0BE@GPCLPBD@vsay_buddy?5?91?5?$CFs?5?$CFs@ 300c6008     cg_fireteams.obj
 0002:0000a01c       ??_C@_0BE@DLOJPFHI@vsay_buddy?5?$CFi?5?$CFs?5?$CFs@ 300c601c     cg_fireteams.obj
 0002:0000a030       ??_C@_0BB@NEAHNODB@fireteam?5create?6@ 300c6030     cg_fireteams.obj
 0002:0000a044       ??_C@_0BA@HDGPAPHO@fireteam?5leave?6@ 300c6044     cg_fireteams.obj
 0002:0000a054       ??_C@_0BC@FBIHANFJ@fireteam?5disband?6@ 300c6054     cg_fireteams.obj
 0002:0000a068       ??_C@_0BC@GHNFDFCF@fireteam?5apply?5?$CFi@ 300c6068     cg_fireteams.obj
 0002:0000a07c       ??_C@_0BE@DHOCNJFF@fireteam?5propose?5?$CFi@ 300c607c     cg_fireteams.obj
 0002:0000a090       ??_C@_0BD@HOANGONK@fireteam?5invite?5?$CFi@ 300c6090     cg_fireteams.obj
 0002:0000a0a4       ??_C@_0BB@JMGGOPBA@fireteam?5warn?5?$CFi@ 300c60a4     cg_fireteams.obj
 0002:0000a0b8       ??_C@_0BB@IEPHNLFN@fireteam?5kick?5?$CFi@ 300c60b8     cg_fireteams.obj
 0002:0000a0cc       ??_C@_0DJ@EAPJHPCD@CG_MergeFlameChunks?3?5f2?5doesn?8t@ 300c60cc     cg_flamethrower.obj
 0002:0000a108       ??_C@_0M@LFJNEFKA@?6?7nomipmaps@ 300c6108     cg_flamethrower.obj
 0002:0000a118       ??_C@_0JC@IAHBDMFH@?$CFs?$CFi?6?$HL?6?7nofog?$CFs?6?7allowCompress?6@ 300c6118     cg_flamethrower.obj
 0002:0000a1ac       ??_C@_0L@IEIGLBDL@?6?7nomipmap@ 300c61ac     cg_flamethrower.obj
 0002:0000a1b8       ??_C@_0GG@OKFONEKJ@?$CFs?$CFi?6?$HL?6?7nofog?$CFs?6?7allowCompress?6@ 300c61b8     cg_flamethrower.obj
 0002:0000a220       ??_C@_0BD@NAGNMEKL@flamethrowerFire?$CFi@ 300c6220     cg_flamethrower.obj
 0002:0000a234       ??_C@_0O@MIPBMBCB@nozzleFlame?$CFi@ 300c6234     cg_flamethrower.obj
 0002:0000a244       __real@3d86ed54            300c6244     cg_flamethrower.obj
 0002:0000a248       __real@3f50000000000000    300c6248     cg_flamethrower.obj
 0002:0000a250       __real@3fd6666666666666    300c6250     cg_flamethrower.obj
 0002:0000a258       __real@3ff4cccccccccccd    300c6258     cg_flamethrower.obj
 0002:0000a260       __real@3ff6666666666666    300c6260     cg_flamethrower.obj
 0002:0000a268       __real@3ff7b22d0e560419    300c6268     cg_flamethrower.obj
 0002:0000a270       __real@4012000000000000    300c6270     cg_flamethrower.obj
 0002:0000a278       __real@4044000000000000    300c6278     cg_flamethrower.obj
 0002:0000a280       __real@4045800000000000    300c6280     cg_flamethrower.obj
 0002:0000a288       __real@4049000000000000    300c6288     cg_flamethrower.obj
 0002:0000a290       __real@404e000000000000    300c6290     cg_flamethrower.obj
 0002:0000a298       __real@405b000000000000    300c6298     cg_flamethrower.obj
 0002:0000a2a0       __real@4061800000000000    300c62a0     cg_flamethrower.obj
 0002:0000a2a8       __real@4066600000000000    300c62a8     cg_flamethrower.obj
 0002:0000a2b0       __real@407f400000000000    300c62b0     cg_flamethrower.obj
 0002:0000a2b8       __real@4092c00000000000    300c62b8     cg_flamethrower.obj
 0002:0000a2c0       __real@40a09a0000000000    300c62c0     cg_flamethrower.obj
 0002:0000a2c8       __real@4504d000            300c62c8     cg_flamethrower.obj
 0002:0000a2cc       __real@c0000000            300c62cc     cg_flamethrower.obj
 0002:0000a2d0       __real@c0a2c00000000000    300c62d0     cg_flamethrower.obj
 0002:0000a2d8       __real@c2c80000            300c62d8     cg_flamethrower.obj
 0002:0000a2dc       __real@c3160000            300c62dc     cg_flamethrower.obj
 0002:0000a2e0       ??_C@_05BABJKOGB@blank@    300c62e0     cg_hud.obj
 0002:0000a2e8       ??_C@_0L@IMCNPECF@hud?1?$CFs?4hud@ 300c62e8     cg_hud.obj
 0002:0000a2f4       ??_C@_0L@BMGAKOKM@cl_profile@ 300c62f4     cg_hud.obj
 0002:0000a300       ??_C@_0BH@HCKFNIBC@profiles?1?$CFs?1?$CFs?9hud?4dat@ 300c6300     cg_hud.obj
 0002:0000a318       ??_C@_08DIGDHHDM@elements@ 300c6318     cg_hud.obj
 0002:0000a324       ??_C@_07CFMACLND@compass@  300c6324     cg_hud.obj
 0002:0000a32c       ??_C@_09GECEGHOC@healthbar@ 300c632c     cg_hud.obj
 0002:0000a338       ??_C@_0L@EBFNMDIE@staminabar@ 300c6338     cg_hud.obj
 0002:0000a344       ??_C@_09CHLICIFF@chargebar@ 300c6344     cg_hud.obj
 0002:0000a350       ??_C@_08MIILNEOD@overheat@ 300c6350     cg_hud.obj
 0002:0000a35c       ??_C@_0L@NHALBPGA@weaponcard@ 300c635c     cg_hud.obj
 0002:0000a368       ??_C@_0L@GIGGGLGC@healthtext@ 300c6368     cg_hud.obj
 0002:0000a374       ??_C@_06KHCNHHCI@xptext@   300c6374     cg_hud.obj
 0002:0000a37c       ??_C@_0L@IHLFMJBE@upperright@ 300c637c     cg_hud.obj
 0002:0000a388       ??_C@_09HJJFIAEM@ammocount@ 300c6388     cg_hud.obj
 0002:0000a394       ??_C@_09BAIJMOMG@skillpic1@ 300c6394     cg_hud.obj
 0002:0000a3a0       ??_C@_09DLKEJNAF@skillpic2@ 300c63a0     cg_hud.obj
 0002:0000a3ac       ??_C@_09CCLPKMEE@skillpic3@ 300c63ac     cg_hud.obj
 0002:0000a3b8       ??_C@_0L@BLGCNJFL@skilltext1@ 300c63b8     cg_hud.obj
 0002:0000a3c4       ??_C@_0L@DAEPIKJI@skilltext2@ 300c63c4     cg_hud.obj
 0002:0000a3d0       ??_C@_0L@CJFELLNJ@skilltext3@ 300c63d0     cg_hud.obj
 0002:0000a3dc       ??_C@_04NEODDMOL@head@     300c63dc     cg_hud.obj
 0002:0000a3e4       ??_C@_09DPLBBJGJ@skillbox1@ 300c63e4     cg_hud.obj
 0002:0000a3f0       ??_C@_09BEJMEKKK@skillbox2@ 300c63f0     cg_hud.obj
 0002:0000a3fc       ??_C@_09NIHHLOL@skillbox3@ 300c63fc     cg_hud.obj
 0002:0000a408       ??_C@_09GJJGLCPD@lagometer@ 300c6408     cg_hud.obj
 0002:0000a414       ??_C@_07DLIINCBJ@flagcov@  300c6414     cg_hud.obj
 0002:0000a41c       ??_C@_07INKAIPEF@cpmtext@  300c641c     cg_hud.obj
 0002:0000a424       ??_C@_0L@POIJEHHE@votefttext@ 300c6424     cg_hud.obj
 0002:0000a430       ??_C@_09EOFKFGKP@livesleft@ 300c6430     cg_hud.obj
 0002:0000a43c       ??_C@_0CH@FEKDAKLL@?$FO1usage?3?5?1edithud?5?$FLelementName?$FN@ 300c643c     cg_hud.obj
 0002:0000a464       ??_C@_0M@JLMNADBK@elements?5?$HL?6@ 300c6464     cg_hud.obj
 0002:0000a470       ??_C@_0BI@HPJELJDK@?5?5?$CCammocount?$CC?5?$CFd?5?$CFd?5?$CFd?6@ 300c6470     cg_hud.obj
 0002:0000a488       ??_C@_0BI@CDLCINFB@?5?5?$CCchargebar?$CC?5?$CFd?5?$CFd?5?$CFd?6@ 300c6488     cg_hud.obj
 0002:0000a4a0       ??_C@_0BH@JOPOGDGC@?5?5?$CCchattext?$CC?5?$CFd?5?$CFd?5?$CFd?6@ 300c64a0     cg_hud.obj
 0002:0000a4b8       ??_C@_0BG@FLPCOACH@?5?5?$CCcompass?$CC?5?$CFd?5?$CFd?5?$CFd?6@ 300c64b8     cg_hud.obj
 0002:0000a4d0       ??_C@_0BG@OPCIAMAG@?5?5?$CCcpmtext?$CC?5?$CFd?5?$CFd?5?$CFd?6@ 300c64d0     cg_hud.obj
 0002:0000a4e8       ??_C@_0BD@DHOEBDNJ@?5?5?$CCupperright?$CC?5?$CFd?6@ 300c64e8     cg_hud.obj
 0002:0000a4fc       ??_C@_0BH@MNDCIPHP@?5?5?$CCfireteam?$CC?5?$CFd?5?$CFd?5?$CFd?6@ 300c64fc     cg_hud.obj
 0002:0000a514       ??_C@_0BD@HENJKBBH@?5?5?$CCflagcov?$CC?5?$CFd?5?$CFd?6@ 300c6514     cg_hud.obj
 0002:0000a528       ??_C@_0BG@LCFDKBDC@?5?5?$CChead?$CC?5?$CFd?5?$CFd?5?$CFd?5?$CFd?6@ 300c6528     cg_hud.obj
 0002:0000a540       ??_C@_0BI@LBAAMOFI@?5?5?$CChealthbar?$CC?5?$CFd?5?$CFd?5?$CFd?6@ 300c6540     cg_hud.obj
 0002:0000a558       ??_C@_0BJ@CDECFDDF@?5?5?$CChealthtext?$CC?5?$CFd?5?$CFd?5?$CFd?6@ 300c6558     cg_hud.obj
 0002:0000a574       ??_C@_0BF@NIIFMKMI@?5?5?$CClagometer?$CC?5?$CFd?5?$CFd?6@ 300c6574     cg_hud.obj
 0002:0000a58c       ??_C@_0BI@HLDKBFGP@?5?5?$CClivesleft?$CC?5?$CFd?5?$CFd?5?$CFd?6@ 300c658c     cg_hud.obj
 0002:0000a5a4       ??_C@_0BK@IHDMGAKH@?5?5?$CCoverheat?$CC?5?$CFd?5?$CFd?5?$CFd?5?$CFd?6@ 300c65a4     cg_hud.obj
 0002:0000a5c0       ??_C@_0BI@IFAOCBEJ@?5?5?$CCskillbox1?$CC?5?$CFd?5?$CFd?5?$CFd?6@ 300c65c0     cg_hud.obj
 0002:0000a5d8       ??_C@_0BI@DIMEENIH@?5?5?$CCskillbox2?$CC?5?$CFd?5?$CFd?5?$CFd?6@ 300c65d8     cg_hud.obj
 0002:0000a5f0       ??_C@_0BI@OFFCJEAC@?5?5?$CCskillbox3?$CC?5?$CFd?5?$CFd?5?$CFd?6@ 300c65f0     cg_hud.obj
 0002:0000a608       ??_C@_0BI@OPPJOJMH@?5?5?$CCskillpic1?$CC?5?$CFd?5?$CFd?5?$CFd?6@ 300c6608     cg_hud.obj
 0002:0000a620       ??_C@_0BI@FCDDIFAJ@?5?5?$CCskillpic2?$CC?5?$CFd?5?$CFd?5?$CFd?6@ 300c6620     cg_hud.obj
 0002:0000a638       ??_C@_0BI@IPKFFMIM@?5?5?$CCskillpic3?$CC?5?$CFd?5?$CFd?5?$CFd?6@ 300c6638     cg_hud.obj
 0002:0000a650       ??_C@_0BJ@IFFFLKNH@?5?5?$CCskilltext1?$CC?5?$CFd?5?$CFd?5?$CFd?6@ 300c6650     cg_hud.obj
 0002:0000a66c       ??_C@_0BJ@DIJPNGBJ@?5?5?$CCskilltext2?$CC?5?$CFd?5?$CFd?5?$CFd?6@ 300c666c     cg_hud.obj
 0002:0000a688       ??_C@_0BJ@OFAJAPJM@?5?5?$CCskilltext3?$CC?5?$CFd?5?$CFd?5?$CFd?6@ 300c6688     cg_hud.obj
 0002:0000a6a4       ??_C@_0BJ@BMBAFHIG@?5?5?$CCstaminabar?$CC?5?$CFd?5?$CFd?5?$CFd?6@ 300c66a4     cg_hud.obj
 0002:0000a6c0       ??_C@_0BG@GCMEPONI@?5?5?$CCvotefttext?$CC?5?$CFd?5?$CFd?6@ 300c66c0     cg_hud.obj
 0002:0000a6d8       ??_C@_0BJ@CGHGGNOO@?5?5?$CCweaponcard?$CC?5?$CFd?5?$CFd?5?$CFd?6@ 300c66d8     cg_hud.obj
 0002:0000a6f4       ??_C@_0BF@MMAAGEDB@?5?5?$CCxptext?$CC?5?$CFd?5?$CFd?5?$CFd?6@ 300c66f4     cg_hud.obj
 0002:0000a70c       ??_C@_02KGHIDFGE@?$HN?6@   300c670c     cg_hud.obj
 0002:0000a710       ??_C@_0CF@GIDCKGML@Unable?5to?5open?5file?3?5?$CFs?5for?5wri@ 300c6710     cg_hud.obj
 0002:0000a738       ??_C@_0BN@CNNKDNEJ@?$FO1usage?3?5?1savehud?5?$FLhudname?$FN?6@ 300c6738     cg_hud.obj
 0002:0000a758       ??_C@_0M@PIGHMEMC@savehudmenu@ 300c6758     cg_hud.obj
 0002:0000a764       ??_C@_0M@GJEBDJL@loadhudmenu@ 300c6764     cg_hud.obj
 0002:0000a770       ??_C@_08CCMFCJIM@autosave@ 300c6770     cg_hud.obj
 0002:0000a77c       ??_C@_0CG@EMEJNNOL@?$FO3Can?8t?5load?5hud?5editor?5as?5spec@ 300c677c     cg_hud.obj
 0002:0000a7a4       ??_C@_0BM@GNKNNGPH@?$FOnMOUSE1?5?5?$FOmDRAG?5AN?5ELEMENT@ 300c67a4     cg_hud.obj
 0002:0000a7c0       ??_C@_0BN@IOOCPFJK@?$FOnMOUSE2?5?5?$FOmSCALE?5AN?5ELEMENT@ 300c67c0     cg_hud.obj
 0002:0000a7e0       ??_C@_0BN@CPOKFILA@?$FOnMWHLUP?5?5?$FOmUNIFORM?5SCALE?5UP@ 300c67e0     cg_hud.obj
 0002:0000a800       ??_C@_0BP@DDEBFNGC@?$FOnMWHLDN?5?5?$FOmUNIFORM?5SCALE?5DOWN@ 300c6800     cg_hud.obj
 0002:0000a820       ??_C@_0BN@HHKHJDLF@?$FOnTAB?5?5?5?5?5?$FOmTOGGLE?5HEALTHBAR@ 300c6820     cg_hud.obj
 0002:0000a840       ??_C@_0BO@ICENDOP@?$FOnQ?5?5?5?5?5?5?5?$FOmTOGGLE?5STAMINABAR@ 300c6840     cg_hud.obj
 0002:0000a860       ??_C@_0BN@LANIHDLM@?$FOnW?5?5?5?5?5?5?5?$FOmTOGGLE?5CHARGEBAR@ 300c6860     cg_hud.obj
 0002:0000a880       ??_C@_0BL@OJLFCJLB@?$FOnE?5?5?5?5?5?5?5?$FOmTOGGLE?5COMPASS@ 300c6880     cg_hud.obj
 0002:0000a89c       ??_C@_0BG@DFOJMDNJ@?$FOnR?5?5?5?5?5?5?5?$FOmTOGGLE?5HP@ 300c689c     cg_hud.obj
 0002:0000a8b4       ??_C@_0BG@KNOMPNHM@?$FOnT?5?5?5?5?5?5?5?$FOmTOGGLE?5XP@ 300c68b4     cg_hud.obj
 0002:0000a8cc       ??_C@_0BJ@BLMKDACB@?$FOnY?5?5?5?5?5?5?5?$FOmTOGGLE?5DRAWS@ 300c68cc     cg_hud.obj
 0002:0000a8e8       ??_C@_0BN@JILOIOCK@?$FOnU?5?5?5?5?5?5?5?$FOmTOGGLE?5SKILLPICS@ 300c68e8     cg_hud.obj
 0002:0000a908       ??_C@_0BO@PFLHECMA@?$FOnI?5?5?5?5?5?5?5?$FOmTOOGLE?5SKILLTEXTS@ 300c6908     cg_hud.obj
 0002:0000a928       ??_C@_0BO@BMDODKB@?$FOnO?5?5?5?5?5?5?5?$FOmTOGGLE?5SKILLBOXES@ 300c6928     cg_hud.obj
 0002:0000a948       ??_C@_0BM@JJKEOOAG@?$FOnP?5?5?5?5?5?5?5?$FOmTOGGLE?5OVERHEAT@ 300c6948     cg_hud.obj
 0002:0000a964       ??_C@_0BO@HBCEAKON@?$FOnCAPS?5?5?5?5?$FOmTOGGLE?5WEAPONCARD@ 300c6964     cg_hud.obj
 0002:0000a984       ??_C@_0BM@FPGJMFMN@?$FOnA?5?5?5?5?5?5?5?$FOmTOGGLE?5FIRETEAM@ 300c6984     cg_hud.obj
 0002:0000a9a0       ??_C@_0BI@OFHPBMBP@?$FOnS?5?5?5?5?5?5?5?$FOmTOGGLE?5AMMO@ 300c69a0     cg_hud.obj
 0002:0000a9b8       ??_C@_0BI@LBLACCP@?$FOnD?5?5?5?5?5?5?5?$FOmTOGGLE?5HEAD@ 300c69b8     cg_hud.obj
 0002:0000a9d0       ??_C@_0BN@MOAOFJAO@?$FOnF?5?5?5?5?5?5?5?$FOmTOGGLE?5LAGOMETER@ 300c69d0     cg_hud.obj
 0002:0000a9f0       ??_C@_0BL@GHJLPGCG@?$FOnG?5?5?5?5?5?5?5?$FOmTOGGLE?5FLAGCOV@ 300c69f0     cg_hud.obj
 0002:0000aa0c       ??_C@_0BL@DDOIMEGF@?$FOnH?5?5?5?5?5?5?5?$FOmTOGGLE?5CPMTEXT@ 300c6a0c     cg_hud.obj
 0002:0000aa28       ??_C@_0BM@GIGBCGNC@?$FOnJ?5?5?5?5?5?5?5?$FOmTOGGLE?5CHATTEXT@ 300c6a28     cg_hud.obj
 0002:0000aa44       ??_C@_0BO@KCGLJEBN@?$FOnK?5?5?5?5?5?5?5?$FOmTOGGLE?5VOTEFTTEXT@ 300c6a44     cg_hud.obj
 0002:0000aa64       ??_C@_0BN@PGFIFNFK@?$FOnL?5?5?5?5?5?5?5?$FOmTOGGLE?5LIVESLEFT@ 300c6a64     cg_hud.obj
 0002:0000aa84       ??_C@_0BK@EFPGHFJE@?$FOnSHIFT?5?5?5?$FOmHOLD?5TO?5GROUP@ 300c6a84     cg_hud.obj
 0002:0000aaa0       ??_C@_0BI@DNOJFMNL@?$FOnZ?5?5?5?5?5?5?5?$FOmDEFAULT?5HUD@ 300c6aa0     cg_hud.obj
 0002:0000aab8       ??_C@_0BB@MNOLBNCG@?$FOnX?$HMESC?5?5?5?$FOmEXIT@ 300c6ab8     cg_hud.obj
 0002:0000aacc       ??_C@_0BP@JLGJAIIC@?$FOnC?5?5?5?5?5?5?5?$FOmTOGGLE?5COORDINATES@ 300c6acc     cg_hud.obj
 0002:0000aaec       ??_C@_0BF@IJOPKHHK@?$FOnB?5?5?5?5?5?5?5?$FOmSAVE?5HUD@ 300c6aec     cg_hud.obj
 0002:0000ab04       ??_C@_0BF@GGPAFJGK@?$FOnN?5?5?5?5?5?5?5?$FOmLOAD?5HUD@ 300c6b04     cg_hud.obj
 0002:0000ab1c       ??_C@_0BK@FHBMKIBH@?$FOnM?5?5?5?5?5?5?5?$FOmSET?5SCALEMODE@ 300c6b1c     cg_hud.obj
 0002:0000ab38       ??_C@_0BA@PBHLJOAP@EDITOR?5CONTROLS@ 300c6b38     cg_hud.obj
 0002:0000ab48       ??_C@_0BK@PLFDGBJD@?$FOnBACKSPACE?5?$FOmhelp?5on?1off@ 300c6b48     cg_hud.obj
 0002:0000ab64       ??_C@_0CH@BPDFJLAB@?$CFd?0?5?$CFd?5?$CIClick?5MOUSE1?5to?5add?5to?5@ 300c6b64     cg_hud.obj
 0002:0000ab8c       ??_C@_0BE@NKAJKPIJ@?$CFd?0?5?$CFd?5?$CIXY?5Scaling?$CJ@ 300c6b8c     cg_hud.obj
 0002:0000aba0       ??_C@_0BD@HCAHCPAC@?$CFd?0?5?$CFd?5?$CIX?5Scaling?$CJ@ 300c6ba0     cg_hud.obj
 0002:0000abb4       ??_C@_0BD@LDIJPAMC@?$CFd?0?5?$CFd?5?$CIY?5Scaling?$CJ@ 300c6bb4     cg_hud.obj
 0002:0000abc8       ??_C@_06PHGHDMGF@?$CFd?0?5?$CFd@ 300c6bc8     cg_hud.obj
 0002:0000abd0       ??_C@_04KOJKLCBG@1000@     300c6bd0     cg_hud.obj
 0002:0000abd8       ??_C@_01FAMBOPH@4@         300c6bd8     cg_hud.obj
 0002:0000abdc       ??_C@_0L@KGDKJKB@30?$HM30?19999@ 300c6bdc     cg_hud.obj
 0002:0000abe8       ??_C@_0CE@PICPFCLH@Sample?5Vote?5Called?5by?5Sample?5Pl@ 300c6be8     cg_hud.obj
 0002:0000ac0c       __real@43a28000            300c6c0c     cg_hud.obj
 0002:0000ac10       __real@43e00000            300c6c10     cg_hud.obj
 0002:0000ac14       __real@43f00000            300c6c14     cg_hud.obj
 0002:0000ac20       __xmm@000000200000003c0000000100000001 300c6c20     cg_hud.obj
 0002:0000ac30       __xmm@000000200000003c000001a80000022e 300c6c30     cg_hud.obj
 0002:0000ac40       __xmm@000000500000003e0000000100000001 300c6c40     cg_hud.obj
 0002:0000ac50       __xmm@000000500000003e000001840000002c 300c6c50     cg_hud.obj
 0002:0000ac60       __xmm@000000800000000e0000018200000070 300c6c60     cg_hud.obj
 0002:0000ac70       __xmm@0000008000000010000001be00000070 300c6c70     cg_hud.obj
 0002:0000ac80       __xmm@00000182000000900000000e00000182 300c6c80     cg_hud.obj
 0002:0000ac90       __xmm@000001be0000009000000010000001be 300c6c90     cg_hud.obj
 0002:0000aca0       __xmm@3e4ccccd3dcccccd3dcccccd3dcccccd 300c6ca0     cg_hud.obj
 0002:0000acb0       __xmm@3f59999a000000000000000000000000 300c6cb0     cg_hud.obj
 0002:0000acc0       __xmm@3f59999a3e19999a3e19999a3e19999a 300c6cc0     cg_hud.obj
 0002:0000acd0       __xmm@3f8000003ecccccd3f19999a3f19999a 300c6cd0     cg_hud.obj
 0002:0000ace0       __xmm@ffffffffffffffffffffffff00000010 300c6ce0     cg_hud.obj
 0002:0000acf0       ??_C@_0P@MAFJMPPI@LOADING?4?4?4?5?$CFs?6@ 300c6cf0     cg_info.obj
 0002:0000ad00       ??_C@_0O@BFCMBINL@screenshot?$CFs?6@ 300c6d00     cg_info.obj
 0002:0000ad10       ??_C@_0P@CAOEILFK@cg_thirdperson@ 300c6d10     cg_info.obj
 0002:0000ad20       ??_C@_0BE@FKFEAA@cg_thirdPersonRange@ 300c6d20     cg_info.obj
 0002:0000ad34       ??_C@_0BE@HGBFBDIP@cg_thirdPersonAngle@ 300c6d34     cg_info.obj
 0002:0000ad48       ??_C@_09IIOBMIO@timescale@ 300c6d48     cg_info.obj
 0002:0000ad54       ??_C@_0L@EFFMDGHC@cl_avidemo@ 300c6d54     cg_info.obj
 0002:0000ad60       ??_C@_08DPFJKANG@Viewing?3@ 300c6d60     cg_info.obj
 0002:0000ad6c       ??_C@_06KLEAFNAE@Weapon@   300c6d6c     cg_info.obj
 0002:0000ad74       ??_C@_08NLCOAFEI@Accuracy@ 300c6d74     cg_info.obj
 0002:0000ad80       ??_C@_0N@ILJGDCDE@Hits?5?1?5Shots@ 300c6d80     cg_info.obj
 0002:0000ad90       ??_C@_09PEAPJCOK@Headshots@ 300c6d90     cg_info.obj
 0002:0000ad9c       ??_C@_0BK@ODKHEBPP@No?5weapon?5info?5available?4@ 300c6d9c     cg_info.obj
 0002:0000adb8       ??_C@_06LCJAGJME@Skills@   300c6db8     cg_info.obj
 0002:0000adc0       ??_C@_05KOHFLOFG@Level@    300c6dc0     cg_info.obj
 0002:0000adc8       ??_C@_0BA@JIKIOALP@XP?5?1?5Next?5Level@ 300c6dc8     cg_info.obj
 0002:0000add8       ??_C@_06LFIBPDEL@Medals@   300c6dd8     cg_info.obj
 0002:0000ade0       ??_C@_0BE@MIJPNLEM@No?5skills?5acquired?$CB@ 300c6de0     cg_info.obj
 0002:0000adf4       ??_C@_0BF@BFOOFCJE@?$CCTOPSHOT?$CC?5ACCURACIES@ 300c6df4     cg_info.obj
 0002:0000ae0c       ??_C@_06NPAAKFED@Player@   300c6e0c     cg_info.obj
 0002:0000ae14       ??_C@_0CF@PAMNKEIA@No?5qualifying?5weapon?5info?5avail@ 300c6e14     cg_info.obj
 0002:0000ae3c       ??_C@_02FKAPCJPD@?$CK?$CK@ 300c6e3c     cg_info.obj
 0002:0000ae40       ??_C@_0L@NPPIDPEI@OBJECTIVES@ 300c6e40     cg_info.obj
 0002:0000ae4c       ??_C@_0BK@EDLCJHHC@Unable?5to?5load?5objectives@ 300c6e4c     cg_info.obj
 0002:0000ae68       ??_C@_08GPEJJMOF@?$FO4Allies@ 300c6e68     cg_info.obj
 0002:0000ae74       ??_C@_06FGFDEFHD@?$FO1Axis@ 300c6e74     cg_info.obj
 0002:0000ae7c       ??_C@_03NHJIOEGA@a?$CFi@   300c6e7c     cg_info.obj
 0002:0000ae80       ??_C@_02ILOMHBCG@?$FO2@    300c6e80     cg_info.obj
 0002:0000ae84       ??_C@_02KAMBCCOF@?$FO1@    300c6e84     cg_info.obj
 0002:0000ae88       ??_C@_04HDOCAJNK@?$CFs?$CFs@ 300c6e88     cg_info.obj
 0002:0000ae90       ??_C@_03PKIJPMHF@x?$CFi@   300c6e90     cg_info.obj
 0002:0000ae94       ??_C@_0BF@INJOCJFJ@?$FOnTAB?5?5?5?5?5?5?5?$FOmscores@ 300c6e94     cg_info.obj
 0002:0000aeac       ??_C@_0BN@MBFGHGPJ@?$FOnF1?9F5?5?5?5?5?5?$FOmavidemo?5record@ 300c6eac     cg_info.obj
 0002:0000aecc       ??_C@_0BJ@DHFPLOAE@?$FOnF11?9F12?5?5?5?$FOmscreenshot@ 300c6ecc     cg_info.obj
 0002:0000aee8       ??_C@_0BN@CLCAJLNC@?$FOnKP_DOWN?5?5?5?$FOmslow?5down?5?$CI?9?9?$CJ@ 300c6ee8     cg_info.obj
 0002:0000af08       ??_C@_0BM@EGFICLBN@?$FOnKP_LEFT?5?5?5?$FOmslow?5down?5?$CI?9?$CJ@ 300c6f08     cg_info.obj
 0002:0000af24       ??_C@_0BM@DHFMPLNL@?$FOnKP_UP?5?5?5?5?5?$FOmspeed?5up?5?$CI?$CL?$CL?$CJ@ 300c6f24     cg_info.obj
 0002:0000af40       ??_C@_0BL@OPMOFDI@?$FOnKP_RIGHT?5?5?$FOmspeed?5up?5?$CI?$CL?$CJ@ 300c6f40     cg_info.obj
 0002:0000af5c       ??_C@_0BL@MFEHIKKL@?$FOnSPACE?5?5?5?5?5?$FOmnormal?5speed@ 300c6f5c     cg_info.obj
 0002:0000af78       ??_C@_0BM@PFJKKFFC@?$FOnENTER?5?5?5?5?5?$FOmExternal?5view@ 300c6f78     cg_info.obj
 0002:0000af94       ??_C@_0BL@NMCMNBCP@?$FOnLFT?1RGHT?5?5?$FOmChange?5angle@ 300c6f94     cg_info.obj
 0002:0000afb0       ??_C@_0BK@JJHDJBCO@?$FOnUP?1DOWN?5?5?5?$FOmMove?5in?1out@ 300c6fb0     cg_info.obj
 0002:0000afcc       ??_C@_0BP@GMGBMEOH@?$FOnMOUSE1?5?5?5?5?$FOmSelect?1move?5view@ 300c6fcc     cg_info.obj
 0002:0000afec       ??_C@_0BP@FDGANFEF@?$FOnMOUSE2?5?5?5?5?$FOmSwap?5w?1main?5view@ 300c6fec     cg_info.obj
 0002:0000b00c       ??_C@_0BM@JOBKGFPB@?$FOnMOUSE3?5?5?5?5?$FOmToggle?5on?1off@ 300c700c     cg_info.obj
 0002:0000b028       ??_C@_0BN@KKDPCECN@?$FOnSHIFT?5?5?5?5?5?$FOmHold?5to?5resize@ 300c7028     cg_info.obj
 0002:0000b048       ??_C@_0BM@IOAGLELJ@?$FOnKP_PGUP?5?5?5?$FOmEnable?5a?5view@ 300c7048     cg_info.obj
 0002:0000b064       ??_C@_0BL@IHABLAKM@?$FOnKP_PGDN?5?5?5?$FOmClose?5a?5view@ 300c7064     cg_info.obj
 0002:0000b080       ??_C@_0O@IPOJIBDI@DEMO?5CONTROLS@ 300c7080     cg_info.obj
 0002:0000b090       ??_C@_06CAAGCEOP@MOUSE1@   300c7090     cg_info.obj
 0002:0000b098       ??_C@_0BD@NPEODHAJ@window?5move?1resize@ 300c7098     cg_info.obj
 0002:0000b0ac       ??_C@_0BC@PJNOILDO@SHIFT?1CTRL?1MOUSE4@ 300c70ac     cg_info.obj
 0002:0000b0c0       ??_C@_0P@FJCDPDHO@hold?5to?5resize@ 300c70c0     cg_info.obj
 0002:0000b0d0       ??_C@_0BG@BNGNPOBP@MWHEELDOWN?1INS?1KPPGUP@ 300c70d0     cg_info.obj
 0002:0000b0e8       ??_C@_09OICPAALC@window?5on@ 300c70e8     cg_info.obj
 0002:0000b0f4       ??_C@_0BE@BDKEABAF@MWHEELUP?1DEL?1KPPGDN@ 300c70f4     cg_info.obj
 0002:0000b108       ??_C@_0L@BIDDGADJ@window?5off@ 300c7108     cg_info.obj
 0002:0000b114       ??_C@_06LCLHHCM@MOUSE2@    300c7114     cg_info.obj
 0002:0000b11c       ??_C@_0BB@KGJNHNCN@swap?5w?1main?5view@ 300c711c     cg_info.obj
 0002:0000b130       ??_C@_09MALOLBMO@BACKSPACE@ 300c7130     cg_info.obj
 0002:0000b13c       ??_C@_0M@FJNACKHE@help?5on?1off@ 300c713c     cg_info.obj
 0002:0000b148       ??_C@_05KHAONLBL@M?1ESC@   300c7148     cg_info.obj
 0002:0000b150       ??_C@_0O@MNLFEPCC@End?5Multiview@ 300c7150     cg_info.obj
 0002:0000b160       ??_C@_0O@OLAOAGHC@?$FO2?$CF?$CF?$CFds?5?$FON?$CF?$CFs@ 300c7160     cg_info.obj
 0002:0000b170       ??_C@_0BD@CDLIAACD@SPECTATOR?5CONTROLS@ 300c7170     cg_info.obj
 0002:0000b184       __real@3f8ccccd            300c7184     cg_info.obj
 0002:0000b188       __real@44340000            300c7188     cg_info.obj
 0002:0000b18c       ??_C@_0BF@DDCOINKJ@gfx?1limbo?1limbo_back@ 300c718c     cg_limbopanel.obj
 0002:0000b1a4       ??_C@_0BG@JPAEDIIJ@gfx?1limbo?1lightup_bar@ 300c71a4     cg_limbopanel.obj
 0002:0000b1bc       ??_C@_07EDNBCEAM@FILTERS@  300c71bc     cg_limbopanel.obj
 0002:0000b1c4       ??_C@_0BI@HKGILEAE@gfx?1limbo?1limbo_frame01@ 300c71c4     cg_limbopanel.obj
 0002:0000b1dc       ??_C@_0BI@FBEFOHMH@gfx?1limbo?1limbo_frame02@ 300c71dc     cg_limbopanel.obj
 0002:0000b1f4       ??_C@_0BI@EIFONGIG@gfx?1limbo?1limbo_frame03@ 300c71f4     cg_limbopanel.obj
 0002:0000b20c       ??_C@_0BI@HBPEAEB@gfx?1limbo?1limbo_frame04@ 300c720c     cg_limbopanel.obj
 0002:0000b224       ??_C@_0BI@BOAEHBAA@gfx?1limbo?1limbo_frame05@ 300c7224     cg_limbopanel.obj
 0002:0000b23c       ??_C@_0BI@DFCJCCMD@gfx?1limbo?1limbo_frame06@ 300c723c     cg_limbopanel.obj
 0002:0000b254       ??_C@_0BI@CMDCBDIC@gfx?1limbo?1limbo_frame07@ 300c7254     cg_limbopanel.obj
 0002:0000b26c       ??_C@_0BI@KLKKAPEN@gfx?1limbo?1limbo_frame08@ 300c726c     cg_limbopanel.obj
 0002:0000b284       ??_C@_0N@FLEIPGMH@MISSION?5TIME@ 300c7284     cg_limbopanel.obj
 0002:0000b294       ??_C@_0P@DGJHNPFF@REINFORCEMENTS@ 300c7294     cg_limbopanel.obj
 0002:0000b2a4       ??_C@_0M@MEGIEIJD@COMMAND?5MAP@ 300c72a4     cg_limbopanel.obj
 0002:0000b2b0       ??_C@_0N@FMLOBACF@PLAYER?5SETUP@ 300c72b0     cg_limbopanel.obj
 0002:0000b2c0       ??_C@_06HJAGIOIK@SKILLS@   300c72c0     cg_limbopanel.obj
 0002:0000b2c8       ??_C@_05JFPAPHBN@SHOTS@    300c72c8     cg_limbopanel.obj
 0002:0000b2d0       ??_C@_04ENGBIECG@HITS@     300c72d0     cg_limbopanel.obj
 0002:0000b2d8       ??_C@_03FEJLDAOE@ACC@      300c72d8     cg_limbopanel.obj
 0002:0000b2dc       ??_C@_01FGNFDNOH@?$CF@     300c72dc     cg_limbopanel.obj
 0002:0000b2e0       ??_C@_0BL@NPGBJIPC@gfx?1limbo?1but_objective_up@ 300c72e0     cg_limbopanel.obj
 0002:0000b2fc       ??_C@_0BL@BGMEGOGK@gfx?1limbo?1but_objective_dn@ 300c72fc     cg_limbopanel.obj
 0002:0000b318       ??_C@_02GIPFHKNO@OK@       300c7318     cg_limbopanel.obj
 0002:0000b31c       ??_C@_06JHILMIHF@CANCEL@   300c731c     cg_limbopanel.obj
 0002:0000b324       ??_C@_09HEBGIPHK@limboname@ 300c7324     cg_limbopanel.obj
 0002:0000b330       ??_C@_01MIFGBAGJ@?$CL@     300c7330     cg_limbopanel.obj
 0002:0000b334       ??_C@_07IHJNOHPB@news_?$CFs@ 300c7334     cg_limbopanel.obj
 0002:0000b33c       ??_C@_04MEMAJGDJ@name@     300c733c     cg_limbopanel.obj
 0002:0000b344       ??_C@_02FDNJLAOG@rs@       300c7344     cg_limbopanel.obj
 0002:0000b348       ??_C@_07MFCJCCAA@team?5s?6@ 300c7348     cg_limbopanel.obj
 0002:0000b350       ??_C@_01KDCPPGHE@r@        300c7350     cg_limbopanel.obj
 0002:0000b354       ??_C@_01OJONOECF@b@        300c7354     cg_limbopanel.obj
 0002:0000b358       ??_C@_0BC@LLHDACND@team?5?$CFs?5?$CFi?5?$CFi?5?$CFi?6@ 300c7358     cg_limbopanel.obj
 0002:0000b36c       ??_C@_07CIFAGBMG@unknown@  300c736c     cg_limbopanel.obj
 0002:0000b374       ??_C@_0BB@CFGCDMBB@?$FO1UNKNOWN?5WEAPON@ 300c7374     cg_limbopanel.obj
 0002:0000b388       ??_C@_0CG@OBDPBBMM@You?5will?5spawn?5as?5an?5?$CFs?5?$CFs?5with@ 300c7388     cg_limbopanel.obj
 0002:0000b3b0       ??_C@_0M@CGEBHBMB@JOIN?5A?5TEAM@ 300c73b0     cg_limbopanel.obj
 0002:0000b3bc       ??_C@_0O@IFMJDNJL@numobjectives@ 300c73bc     cg_limbopanel.obj
 0002:0000b3cc       ??_C@_0BI@HFCNGIAN@No?5Information?5Supplied@ 300c73cc     cg_limbopanel.obj
 0002:0000b3e4       ??_C@_05OINJGPC@1of?$CFi@  300c73e4     cg_limbopanel.obj
 0002:0000b3ec       ??_C@_06FPHLHEIO@?$CFiof?$CFi@ 300c73ec     cg_limbopanel.obj
 0002:0000b3f4       ??_C@_0CA@NFMBCHEL@ERROR?3?5Class?5weapon?50?5disabled?6@ 300c73f4     cg_limbopanel.obj
 0002:0000b414       ??_C@_05MMODACOB@ws?5?$CFi@ 300c7414     cg_limbopanel.obj
 0002:0000b41c       ??_C@_06KDFICGOL@obj?5?$CFi@ 300c741c     cg_limbopanel.obj
 0002:0000b424       ??_C@_02BCEHBHOI@?4?9@     300c7424     cg_limbopanel.obj
 0002:0000b428       ??_C@_01LFCBOECM@?4@       300c7428     cg_limbopanel.obj
 0002:0000b42c       __real@3e730000            300c742c     cg_limbopanel.obj
 0002:0000b430       __real@3fb33333            300c7430     cg_limbopanel.obj
 0002:0000b434       __real@40600000            300c7434     cg_limbopanel.obj
 0002:0000b438       __real@42ae0000            300c7438     cg_limbopanel.obj
 0002:0000b43c       __real@432e0000            300c743c     cg_limbopanel.obj
 0002:0000b440       __real@bfe6666666666666    300c7440     cg_limbopanel.obj
 0002:0000b450       __xmm@3ecccccd3f8000003f8000003f800000 300c7450     cg_limbopanel.obj
 0002:0000b460       __xmm@3f19999a3f8000003f8000003f800000 300c7460     cg_limbopanel.obj
 0002:0000b470       __xmm@3f4000003f8000003f8000003f800000 300c7470     cg_limbopanel.obj
 0002:0000b480       __xmm@3f8000003d4ccccd3d4ccccd3d4ccccd 300c7480     cg_limbopanel.obj
 0002:0000b490       __xmm@3f8000003dcccccd3dcccccd3dcccccd 300c7490     cg_limbopanel.obj
 0002:0000b4a0       __xmm@3f8000003e4ccccd3e4ccccd3e4ccccd 300c74a0     cg_limbopanel.obj
 0002:0000b4b0       ??_C@_0BG@NIFIFLJN@gfx?1loading?1camp_side@ 300c74b0     cg_loadpanel.obj
 0002:0000b4c8       ??_C@_0BB@OKCCEAPI@?$CK?$CK?$CKTOP?5SECRET?$CK?$CK?$CK@ 300c74c8     cg_loadpanel.obj
 0002:0000b4dc       ??_C@_0BN@OPKLDFMH@gfx?1loading?1progressbar_back@ 300c74dc     cg_loadpanel.obj
 0002:0000b4fc       ??_C@_0BI@GHKLPAPG@gfx?1loading?1progressbar@ 300c74fc     cg_loadpanel.obj
 0002:0000b514       ??_C@_07BMPLLLFL@LOADING@  300c7514     cg_loadpanel.obj
 0002:0000b51c       ??_C@_0O@NNAOEDOE@Single?5Player@ 300c751c     cg_loadpanel.obj
 0002:0000b52c       ??_C@_05OCHPEEAK@Co?9op@   300c752c     cg_loadpanel.obj
 0002:0000b534       ??_C@_09LHCHJKLO@Stopwatch@ 300c7534     cg_loadpanel.obj
 0002:0000b540       ??_C@_08FHHBCJKK@Campaign@ 300c7540     cg_loadpanel.obj
 0002:0000b54c       ??_C@_0BC@EHADLDNJ@Last?5Man?5Standing@ 300c754c     cg_loadpanel.obj
 0002:0000b560       ??_C@_0L@CFHKFAPI@Map?5Voting@ 300c7560     cg_loadpanel.obj
 0002:0000b56c       ??_C@_07DJMIGIHO@Invalid@  300c756c     cg_loadpanel.obj
 0002:0000b574       ??_C@_0O@EKHMPCNK@ui_connecting@ 300c7574     cg_loadpanel.obj
 0002:0000b584       ??_C@_0BF@CEHEGGHI@gfx?1loading?1pin_shot@ 300c7584     cg_loadpanel.obj
 0002:0000b59c       ??_C@_0BE@NDPOFBBP@ui?1assets?1filter_pb@ 300c759c     cg_loadpanel.obj
 0002:0000b5b0       ??_C@_0BE@KPDJELNJ@ui?1assets?1filter_ff@ 300c75b0     cg_loadpanel.obj
 0002:0000b5c4       ??_C@_0BG@JIOLIAEK@ui?1assets?1filter_weap@ 300c75c4     cg_loadpanel.obj
 0002:0000b5dc       ??_C@_0BH@OJEBHINP@ui?1assets?1filter_lives@ 300c75dc     cg_loadpanel.obj
 0002:0000b5f4       ??_C@_0BJ@OFDHLFHE@ui?1assets?1filter_antilag@ 300c75f4     cg_loadpanel.obj
 0002:0000b610       ??_C@_0BJ@NJLOHHCO@ui?1assets?1filter_balance@ 300c7610     cg_loadpanel.obj
 0002:0000b62c       ??_C@_0BA@JJBJFII@etpubc?520120211@ 300c762c     cg_loadpanel.obj
 0002:0000b63c       ??_C@_0M@NHCIKFPA@sv_hostname@ 300c763c     cg_loadpanel.obj
 0002:0000b648       ??_C@_06PFJNKOJI@ETHost@   300c7648     cg_loadpanel.obj
 0002:0000b650       ??_C@_0P@EFCECDLM@g_friendlyfire@ 300c7650     cg_loadpanel.obj
 0002:0000b660       ??_C@_0L@GFINLBEC@g_gametype@ 300c7660     cg_loadpanel.obj
 0002:0000b66c       ??_C@_0BB@CHKAPPCD@g_alliedmaxlives@ 300c766c     cg_loadpanel.obj
 0002:0000b680       ??_C@_0P@MGOMPFEE@g_axismaxlives@ 300c7680     cg_loadpanel.obj
 0002:0000b690       ??_C@_0L@CECMEOFE@g_maxlives@ 300c7690     cg_loadpanel.obj
 0002:0000b69c       ??_C@_0O@FFCKPCKD@sv_punkbuster@ 300c769c     cg_loadpanel.obj
 0002:0000b6ac       ??_C@_0BJ@PGLCGFGE@g_heavyWeaponRestriction@ 300c76ac     cg_loadpanel.obj
 0002:0000b6c8       ??_C@_09FDKFNPJN@g_antilag@ 300c76c8     cg_loadpanel.obj
 0002:0000b6d4       ??_C@_0BA@EEONNMJI@g_balancedteams@ 300c76d4     cg_loadpanel.obj
 0002:0000b6e4       ??_C@_0O@OBEFLHGN@levelshots?1?$CFs@ 300c76e4     cg_loadpanel.obj
 0002:0000b6f4       ??_C@_0BG@LHBJPEBO@levelshots?1unknownmap@ 300c76f4     cg_loadpanel.obj
 0002:0000b70c       ??_C@_03DKEJHHJP@?$CFs?3@  300c770c     cg_loadpanel.obj
 0002:0000b710       ??_C@_09LILBJGFE@?$CFs?5?$CFiof?$CFi@ 300c7710     cg_loadpanel.obj
 0002:0000b720       ??_C@_0KK@HODHJGID@Not?5all?5maps?5of?5the?5current?5cam@ 300c7720     cg_loadpanel.obj
 0002:0000b7cc       __real@43b10000            300c77cc     cg_loadpanel.obj
 0002:0000b7d0       __real@43dc0000            300c77d0     cg_loadpanel.obj
 0002:0000b7d4       ??_C@_0BJ@NMDMHMI@maps?1?$CFs_loc_override?4dat@ 300c77d4     cg_localents.obj
 0002:0000b7f0       ??_C@_0BA@KEAJIJII@maps?1?$CFs_loc?4dat@ 300c77f0     cg_localents.obj
 0002:0000b800       ??_C@_0EG@MAGMJCFN@?$FOdLoadLocations?3?5?$FO3Warning?3?5?$FO9N@ 300c7800     cg_localents.obj
 0002:0000b848       ??_C@_0DM@LAHPFLCL@Location?5file?5is?5too?5big?0?5make?5@ 300c7848     cg_localents.obj
 0002:0000b884       ??_C@_0DI@DMDGDBOO@?$FOdLoadLocations?3?5?$FO9location?5dat@ 300c7884     cg_localents.obj
 0002:0000b8bc       ??_C@_01EOFPKCAF@?$EA@     300c78bc     cg_localents.obj
 0002:0000b8c0       ??_C@_0CA@KDNEHJCA@?$FO9Too?5many?5locations?5specifed?4?6@ 300c78c0     cg_localents.obj
 0002:0000b8e0       ??_C@_0BK@CDBDMDCN@?$FO2?$CFi?5?$FO9locations?5loaded?4?6@ 300c78e0     cg_localents.obj
 0002:0000b8fc       ??_C@_0BP@HOJADAKE@CG_FreeLocalEntity?3?5not?5active@ 300c78fc     cg_localents.obj
 0002:0000b91c       ??_C@_0P@JBCHHKP@Bad?5leType?3?5?$CFi@ 300c791c     cg_localents.obj
 0002:0000b92c       __real@34000000            300c792c     cg_localents.obj
 0002:0000b930       __real@3fd51eb851eb851f    300c7930     cg_localents.obj
 0002:0000b938       __real@4030000000000000    300c7938     cg_localents.obj
 0002:0000b940       __real@4045000000000000    300c7940     cg_localents.obj
 0002:0000b948       __real@4d3ebc20            300c7948     cg_localents.obj
 0002:0000b94c       ??_C@_0BI@NODEBLMA@gfx?12d?1numbers?1zero_32b@ 300c794c     cg_main.obj
 0002:0000b964       ??_C@_0BH@GPBOJLFB@gfx?12d?1numbers?1one_32b@ 300c7964     cg_main.obj
 0002:0000b97c       ??_C@_0BH@BNBCEMFH@gfx?12d?1numbers?1two_32b@ 300c797c     cg_main.obj
 0002:0000b994       ??_C@_0BJ@KKKEIAHG@gfx?12d?1numbers?1three_32b@ 300c7994     cg_main.obj
 0002:0000b9b0       ??_C@_0BI@HPOPJJKG@gfx?12d?1numbers?1four_32b@ 300c79b0     cg_main.obj
 0002:0000b9c8       ??_C@_0BI@JGLLLIJP@gfx?12d?1numbers?1five_32b@ 300c79c8     cg_main.obj
 0002:0000b9e0       ??_C@_0BH@DOOFJAPO@gfx?12d?1numbers?1six_32b@ 300c79e0     cg_main.obj
 0002:0000b9f8       ??_C@_0BJ@FHLKICGB@gfx?12d?1numbers?1seven_32b@ 300c79f8     cg_main.obj
 0002:0000ba14       ??_C@_0BJ@OILFPBFC@gfx?12d?1numbers?1eight_32b@ 300c7a14     cg_main.obj
 0002:0000ba30       ??_C@_0BI@HJFCMICO@gfx?12d?1numbers?1nine_32b@ 300c7a30     cg_main.obj
 0002:0000ba48       ??_C@_0BJ@PPCBGHDL@gfx?12d?1numbers?1minus_32b@ 300c7a48     cg_main.obj
 0002:0000ba64       ??_C@_09JDMGBOIM@cg_ignore@ 300c7a64     cg_main.obj
 0002:0000ba70       ??_C@_0O@JKEEFDLF@cg_autoswitch@ 300c7a70     cg_main.obj
 0002:0000ba80       ??_C@_0L@MLBFCMPB@cg_drawGun@ 300c7a80     cg_main.obj
 0002:0000ba8c       ??_C@_0N@OLGNBJND@cg_gun_frame@ 300c7a8c     cg_main.obj
 0002:0000ba9c       ??_C@_0P@NOKIHKHC@cg_cursorHints@ 300c7a9c     cg_main.obj
 0002:0000baac       ??_C@_0BF@BFCCHDM@cg_zoomDefaultSniper@ 300c7aac     cg_main.obj
 0002:0000bac4       ??_C@_02PIBHCBOA@20@       300c7ac4     cg_main.obj
 0002:0000bac8       ??_C@_0BC@IMJIKONA@cg_zoomStepSniper@ 300c7ac8     cg_main.obj
 0002:0000badc       ??_C@_06FDNMOLLD@cg_fov@   300c7adc     cg_main.obj
 0002:0000bae4       ??_C@_02PEECMOAB@90@       300c7ae4     cg_main.obj
 0002:0000bae8       ??_C@_0BE@EMBJACLB@cg_stereoSeparation@ 300c7ae8     cg_main.obj
 0002:0000bafc       ??_C@_03KHGJEAFP@0?44@     300c7afc     cg_main.obj
 0002:0000bb00       ??_C@_0L@MAOLAFLC@cg_shadows@ 300c7b00     cg_main.obj
 0002:0000bb0c       ??_C@_07FFANGJCI@cg_gibs@  300c7b0c     cg_main.obj
 0002:0000bb14       ??_C@_09EKPCJMOG@cg_draw2D@ 300c7b14     cg_main.obj
 0002:0000bb20       ??_C@_0BD@EOMAFAEF@cg_drawSpreadScale@ 300c7b20     cg_main.obj
 0002:0000bb34       ??_C@_0L@CHMHIHCB@cg_drawFPS@ 300c7b34     cg_main.obj
 0002:0000bb40       ??_C@_0BA@MIPMDAEB@cg_drawSnapshot@ 300c7b40     cg_main.obj
 0002:0000bb50       ??_C@_0BB@KBADOJHA@cg_drawCrosshair@ 300c7b50     cg_main.obj
 0002:0000bb64       ??_C@_0BG@PFLNOEEN@cg_drawCrosshairNames@ 300c7b64     cg_main.obj
 0002:0000bb7c       ??_C@_0BI@EINMENEC@cg_drawCrosshairPickups@ 300c7b7c     cg_main.obj
 0002:0000bb94       ??_C@_0BD@OBNAPDNG@cg_useWeapsForZoom@ 300c7b94     cg_main.obj
 0002:0000bba8       ??_C@_0BE@LAMBBOGH@cg_weaponCycleDelay@ 300c7ba8     cg_main.obj
 0002:0000bbbc       ??_C@_03GLMKKOKP@150@      300c7bbc     cg_main.obj
 0002:0000bbc0       ??_C@_0BB@GGEMGPGI@cg_cycleAllWeaps@ 300c7bc0     cg_main.obj
 0002:0000bbd4       ??_C@_0BB@NJOFJDCL@cg_crosshairSize@ 300c7bd4     cg_main.obj
 0002:0000bbe8       ??_C@_02DEEDNHFK@48@       300c7be8     cg_main.obj
 0002:0000bbec       ??_C@_0BD@JJIJCGAH@cg_crosshairHealth@ 300c7bec     cg_main.obj
 0002:0000bc00       ??_C@_0O@IHFEICLM@cg_crosshairX@ 300c7c00     cg_main.obj
 0002:0000bc10       ??_C@_0O@JOEPLDPN@cg_crosshairY@ 300c7c10     cg_main.obj
 0002:0000bc20       ??_C@_0N@GADGJPHJ@cg_brassTime@ 300c7c20     cg_main.obj
 0002:0000bc30       ??_C@_04NOOEDIPE@2500@     300c7c30     cg_main.obj
 0002:0000bc38       ??_C@_0M@FAEGBIEM@cg_marktime@ 300c7c38     cg_main.obj
 0002:0000bc44       ??_C@_05KNKIGLLO@20000@    300c7c44     cg_main.obj
 0002:0000bc4c       ??_C@_0N@IBNNIGPC@cg_lagometer@ 300c7c4c     cg_main.obj
 0002:0000bc5c       ??_C@_0BB@PPFMMLIA@cg_railTrailTime@ 300c7c5c     cg_main.obj
 0002:0000bc70       ??_C@_03FKNPJMHG@400@      300c7c70     cg_main.obj
 0002:0000bc74       ??_C@_07DAKIIFAC@cg_gunX@  300c7c74     cg_main.obj
 0002:0000bc7c       ??_C@_07CJLDLEED@cg_gunY@  300c7c7c     cg_main.obj
 0002:0000bc84       ??_C@_07CJOOHIA@cg_gunZ@   300c7c84     cg_main.obj
 0002:0000bc8c       ??_C@_0O@CMEJDJHP@cg_centertime@ 300c7c8c     cg_main.obj
 0002:0000bc9c       ??_C@_01BMBHCPLG@5@        300c7c9c     cg_main.obj
 0002:0000bca0       ??_C@_0M@JHJCCBOJ@cg_runpitch@ 300c7ca0     cg_main.obj
 0002:0000bcac       ??_C@_05DPLAODFG@0?4000@   300c7cac     cg_main.obj
 0002:0000bcb4       ??_C@_0L@MJJHGKNK@cg_runroll@ 300c7cb4     cg_main.obj
 0002:0000bcc0       ??_C@_08MBNPMEME@cg_bobup@ 300c7cc0     cg_main.obj
 0002:0000bccc       ??_C@_0M@BBIJCEAP@cg_bobpitch@ 300c7ccc     cg_main.obj
 0002:0000bcd8       ??_C@_0L@BEAFIAK@cg_bobroll@ 300c7cd8     cg_main.obj
 0002:0000bce4       ??_C@_0BA@DGCMHBIM@cg_autoactivate@ 300c7ce4     cg_main.obj
 0002:0000bcf4       ??_C@_0O@NLMPFCHA@cg_swingSpeed@ 300c7cf4     cg_main.obj
 0002:0000bd04       ??_C@_03NKBOLEBK@0?41@     300c7d04     cg_main.obj
 0002:0000bd08       ??_C@_0N@KPBDNADB@cg_bloodTime@ 300c7d08     cg_main.obj
 0002:0000bd18       ??_C@_03GOIFLICK@120@      300c7d18     cg_main.obj
 0002:0000bd1c       ??_C@_09OMJCNCAH@cg_skybox@ 300c7d1c     cg_main.obj
 0002:0000bd28       ??_C@_0L@LELCMOPN@cg_message@ 300c7d28     cg_main.obj
 0002:0000bd34       ??_C@_0N@EMGODPLM@cg_animspeed@ 300c7d34     cg_main.obj
 0002:0000bd44       ??_C@_0N@OLFHJPEJ@cg_debuganim@ 300c7d44     cg_main.obj
 0002:0000bd54       ??_C@_0BB@PNGPLJB@cg_debugposition@ 300c7d54     cg_main.obj
 0002:0000bd68       ??_C@_0P@NKGOJNHN@cg_debugevents@ 300c7d68     cg_main.obj
 0002:0000bd78       ??_C@_0O@MAANEMBM@cg_errordecay@ 300c7d78     cg_main.obj
 0002:0000bd88       ??_C@_0N@BMAKLHMK@cg_nopredict@ 300c7d88     cg_main.obj
 0002:0000bd98       ??_C@_0BB@HOMHKKFN@cg_noplayeranims@ 300c7d98     cg_main.obj
 0002:0000bdac       ??_C@_0M@DOMGGLDE@cg_showmiss@ 300c7dac     cg_main.obj
 0002:0000bdb8       ??_C@_0N@GHAOKDNB@cg_footsteps@ 300c7db8     cg_main.obj
 0002:0000bdc8       ??_C@_0L@NCNGDBLE@cg_tracers@ 300c7dc8     cg_main.obj
 0002:0000bdd4       ??_C@_0BA@DJBDPKKA@cg_tracerchance@ 300c7dd4     cg_main.obj
 0002:0000bde4       ??_C@_0P@ENCNJBFG@cg_tracerwidth@ 300c7de4     cg_main.obj
 0002:0000bdf4       ??_C@_03LNMAPFD@0?48@      300c7df4     cg_main.obj
 0002:0000bdf8       ??_C@_0P@LFANMCKL@cg_tracerSpeed@ 300c7df8     cg_main.obj
 0002:0000be08       ??_C@_04FBKEMNFE@4500@     300c7e08     cg_main.obj
 0002:0000be10       ??_C@_0BA@CAFKIKHE@cg_tracerlength@ 300c7e10     cg_main.obj
 0002:0000be20       ??_C@_03GJIMBAPG@160@      300c7e20     cg_main.obj
 0002:0000be24       ??_C@_02PFIAKEDG@80@       300c7e24     cg_main.obj
 0002:0000be28       ??_C@_0P@OPFJLCMG@cg_thirdPerson@ 300c7e28     cg_main.obj
 0002:0000be38       ??_C@_0BA@FOMJOJCG@cg_teamChatTime@ 300c7e38     cg_main.obj
 0002:0000be48       ??_C@_04KDIKNAGH@8000@     300c7e48     cg_main.obj
 0002:0000be50       ??_C@_0BC@JPKKPJNB@cg_teamChatHeight@ 300c7e50     cg_main.obj
 0002:0000be64       ??_C@_01KJLJFBPL@8@        300c7e64     cg_main.obj
 0002:0000be68       ??_C@_0BB@BEEFGIOF@cg_coronafardist@ 300c7e68     cg_main.obj
 0002:0000be7c       ??_C@_04MNFIFLPL@1536@     300c7e7c     cg_main.obj
 0002:0000be84       ??_C@_0L@CLHCPDJE@cg_coronas@ 300c7e84     cg_main.obj
 0002:0000be90       ??_C@_0BA@PKAEEJJB@cg_predictItems@ 300c7e90     cg_main.obj
 0002:0000bea0       ??_C@_08CGDPCFHD@cg_stats@ 300c7ea0     cg_main.obj
 0002:0000beac       ??_C@_0BA@KGCMKOCO@cg_enableBreath@ 300c7eac     cg_main.obj
 0002:0000bebc       ??_C@_0P@EIAPFKBF@com_cameraMode@ 300c7ebc     cg_main.obj
 0002:0000becc       ??_C@_0M@HOGKGHBI@pmove_fixed@ 300c7ecc     cg_main.obj
 0002:0000bed8       ??_C@_0L@JLBEBBAD@pmove_msec@ 300c7ed8     cg_main.obj
 0002:0000bee4       ??_C@_0L@BNLHLPGL@cg_noTaunt@ 300c7ee4     cg_main.obj
 0002:0000bef0       ??_C@_0BD@EJJNLELD@cg_voiceSpriteTime@ 300c7ef0     cg_main.obj
 0002:0000bf04       ??_C@_04BMLKGOAG@6000@     300c7f04     cg_main.obj
 0002:0000bf0c       ??_C@_0BB@GFOCPFOA@cg_teamChatsOnly@ 300c7f0c     cg_main.obj
 0002:0000bf20       ??_C@_0BA@DGINBIDE@cg_noVoiceChats@ 300c7f20     cg_main.obj
 0002:0000bf30       ??_C@_0P@HEADOJJM@cg_noVoiceText@ 300c7f30     cg_main.obj
 0002:0000bf40       ??_C@_0BE@POILEJKP@cg_customVoiceChats@ 300c7f40     cg_main.obj
 0002:0000bf54       ??_C@_0BA@MOHNLIKA@com_buildScript@ 300c7f54     cg_main.obj
 0002:0000bf64       ??_C@_09DIABHAFB@cl_paused@ 300c7f64     cg_main.obj
 0002:0000bf70       ??_C@_0N@BGFOBDOL@cg_showblood@ 300c7f70     cg_main.obj
 0002:0000bf80       ??_C@_0BB@LKEKHBGJ@cg_wolfparticles@ 300c7f80     cg_main.obj
 0002:0000bf94       ??_C@_0M@JFOBNFBL@cg_norender@ 300c7f94     cg_main.obj
 0002:0000bfa0       ??_C@_05GGPELIBL@30000@    300c7fa0     cg_main.obj
 0002:0000bfa8       ??_C@_0M@BAMFJAOM@g_movespeed@ 300c7fa8     cg_main.obj
 0002:0000bfb4       ??_C@_02KIIGEEIN@76@       300c7fb4     cg_main.obj
 0002:0000bfb8       ??_C@_0P@NNBDAACL@cg_drawCompass@ 300c7fb8     cg_main.obj
 0002:0000bfc8       ??_C@_0BD@GKMNKMOC@cg_quickMessageAlt@ 300c7fc8     cg_main.obj
 0002:0000bfdc       ??_C@_0BD@KOLCLGNE@cg_descriptiveText@ 300c7fdc     cg_main.obj
 0002:0000bff0       ??_C@_09DNECJBKD@developer@ 300c7ff0     cg_main.obj
 0002:0000bffc       ??_C@_09PJIBJMKE@cf_wstats@ 300c7ffc     cg_main.obj
 0002:0000c008       ??_C@_03EJIPIALM@1?42@     300c8008     cg_main.obj
 0002:0000c00c       ??_C@_0N@CDLJMPOM@cf_wtopshots@ 300c800c     cg_main.obj
 0002:0000c01c       ??_C@_03HLLJOCDO@1?40@     300c801c     cg_main.obj
 0002:0000c020       ??_C@_0O@FILMCFNA@cg_autoAction@ 300c8020     cg_main.obj
 0002:0000c030       ??_C@_0O@FNFJAGIB@cg_autoReload@ 300c8030     cg_main.obj
 0002:0000c040       ??_C@_0BE@JHIHLPAO@cg_bloodDamageBlend@ 300c8040     cg_main.obj
 0002:0000c054       ??_C@_0O@CINGLONP@cg_bloodFlash@ 300c8054     cg_main.obj
 0002:0000c064       ??_C@_0BC@BEAEEJKP@cg_complaintPopUp@ 300c8064     cg_main.obj
 0002:0000c078       ??_C@_0BC@DBBIBJOC@cg_crosshairAlpha@ 300c8078     cg_main.obj
 0002:0000c08c       ??_C@_0BF@LDMIEFP@cg_crosshairAlphaAlt@ 300c808c     cg_main.obj
 0002:0000c0a4       ??_C@_0BC@EFBPHNAJ@cg_crosshairColor@ 300c80a4     cg_main.obj
 0002:0000c0b8       ??_C@_0BF@DBHOIAGK@cg_crosshairColorAlt@ 300c80b8     cg_main.obj
 0002:0000c0d0       ??_C@_0BC@PKLCFMJN@cg_crosshairPulse@ 300c80d0     cg_main.obj
 0002:0000c0e4       ??_C@_0BJ@ICGIDCKE@cg_drawReinforcementTime@ 300c80e4     cg_main.obj
 0002:0000c100       ??_C@_0BH@JGDDIPOP@cg_drawWeaponIconFlash@ 300c8100     cg_main.obj
 0002:0000c118       ??_C@_0BE@NNMCMDBG@cg_noAmmoAutoSwitch@ 300c8118     cg_main.obj
 0002:0000c12c       ??_C@_0BG@IJCJILME@cg_printObjectiveInfo@ 300c812c     cg_main.obj
 0002:0000c144       ??_C@_0M@NCAPPGCL@cg_specHelp@ 300c8144     cg_main.obj
 0002:0000c150       ??_C@_08MJKAKPEI@cg_uinfo@ 300c8150     cg_main.obj
 0002:0000c15c       ??_C@_0BF@PABLOBKE@cg_useScreenshotJPEG@ 300c815c     cg_main.obj
 0002:0000c174       ??_C@_0O@EGJBMMGG@demo_avifpsF1@ 300c8174     cg_main.obj
 0002:0000c184       ??_C@_0O@GNLMJPKF@demo_avifpsF2@ 300c8184     cg_main.obj
 0002:0000c194       ??_C@_02PKFBJPLJ@10@       300c8194     cg_main.obj
 0002:0000c198       ??_C@_0O@HEKHKOOE@demo_avifpsF3@ 300c8198     cg_main.obj
 0002:0000c1a8       ??_C@_02IHCGGLPM@15@       300c81a8     cg_main.obj
 0002:0000c1ac       ??_C@_0O@DLOGDICD@demo_avifpsF4@ 300c81ac     cg_main.obj
 0002:0000c1bc       ??_C@_0O@CCPNAJGC@demo_avifpsF5@ 300c81bc     cg_main.obj
 0002:0000c1cc       ??_C@_02JMHLOEOE@24@       300c81cc     cg_main.obj
 0002:0000c1d0       ??_C@_0BD@NPPOBCPM@demo_drawTimeScale@ 300c81d0     cg_main.obj
 0002:0000c1e4       ??_C@_0BA@GJPJCOBO@demo_infoWindow@ 300c81e4     cg_main.obj
 0002:0000c1f4       ??_C@_0O@FAEBFPEP@cl_maxpackets@ 300c81f4     cg_main.obj
 0002:0000c204       ??_C@_02PJNFELNH@30@       300c8204     cg_main.obj
 0002:0000c208       ??_C@_0N@PKDEOADF@cl_timenudge@ 300c8208     cg_main.obj
 0002:0000c218       ??_C@_07JIEGLHEC@m_pitch@  300c8218     cg_main.obj
 0002:0000c220       ??_C@_05OACFFLK@0?4022@    300c8220     cg_main.obj
 0002:0000c228       ??_C@_0M@JFLMCFNC@sensitivity@ 300c8228     cg_main.obj
 0002:0000c234       ??_C@_0BG@KIEOPLJJ@cg_atmosphericEffects@ 300c8234     cg_main.obj
 0002:0000c24c       ??_C@_09OIGPADLP@authLevel@ 300c824c     cg_main.obj
 0002:0000c258       ??_C@_0BC@DOAINJPK@auth_rconPassword@ 300c8258     cg_main.obj
 0002:0000c26c       ??_C@_0BF@JLBPOIEI@auth_refereePassword@ 300c826c     cg_main.obj
 0002:0000c284       ??_C@_0BC@FJGPJIBC@cg_drawRoundTimer@ 300c8284     cg_main.obj
 0002:0000c298       ??_C@_0BB@BJJIBHGB@cg_instanttapout@ 300c8298     cg_main.obj
 0002:0000c2ac       ??_C@_0P@NDFJMLBC@cg_debugSkills@ 300c82ac     cg_main.obj
 0002:0000c2bc       ??_C@_0BH@KPCPLBCN@cg_drawFireteamOverlay@ 300c82bc     cg_main.obj
 0002:0000c2d4       ??_C@_0BH@INDBMMPJ@cg_drawSmallPopupIcons@ 300c82d4     cg_main.obj
 0002:0000c2ec       ??_C@_0BB@GCDAMJNB@cl_demorecording@ 300c82ec     cg_main.obj
 0002:0000c300       ??_C@_0BA@LJGBFELM@cl_demofilename@ 300c8300     cg_main.obj
 0002:0000c310       ??_C@_0O@LOJOJMJF@cl_demooffset@ 300c8310     cg_main.obj
 0002:0000c320       ??_C@_0BB@CHHPKLIG@cl_waverecording@ 300c8320     cg_main.obj
 0002:0000c334       ??_C@_0BA@CJFPHGJB@cl_wavefilename@ 300c8334     cg_main.obj
 0002:0000c344       ??_C@_0O@DPDEFOEB@cl_waveoffset@ 300c8344     cg_main.obj
 0002:0000c354       ??_C@_0BI@JIECIBHG@cg_recording_statusline@ 300c8354     cg_main.obj
 0002:0000c36c       ??_C@_01LAKCGALK@9@        300c836c     cg_main.obj
 0002:0000c370       ??_C@_0M@ONDCPDGI@cg_drawTime@ 300c8370     cg_main.obj
 0002:0000c37c       ??_C@_0BD@NDLLNIMA@cg_drawTimeSeconds@ 300c837c     cg_main.obj
 0002:0000c390       ??_C@_05MIGMCC@5?4159@     300c8390     cg_main.obj
 0002:0000c398       ??_C@_0M@GOLPPHBM@cg_obituary@ 300c8398     cg_main.obj
 0002:0000c3a4       ??_C@_0O@PDIFHLBF@cg_panzerhack@ 300c83a4     cg_main.obj
 0002:0000c3b4       ??_C@_0N@PAPIJNKI@cg_drawspeed@ 300c83b4     cg_main.obj
 0002:0000c3c4       ??_C@_0BB@FFOGBJBD@cg_speedinterval@ 300c83c4     cg_main.obj
 0002:0000c3d8       ??_C@_0N@CNJNHNMF@cg_speedunit@ 300c83d8     cg_main.obj
 0002:0000c3e8       ??_C@_0P@KCOLNJCJ@cg_muzzleFlash@ 300c83e8     cg_main.obj
 0002:0000c3f8       ??_C@_0BB@MKOACOMD@cg_fireteamAlpha@ 300c83f8     cg_main.obj
 0002:0000c40c       ??_C@_03JFFPCCNN@0?46@     300c840c     cg_main.obj
 0002:0000c410       ??_C@_0N@OEOIEIDN@cg_chatAlpha@ 300c8410     cg_main.obj
 0002:0000c420       ??_C@_04KFHFGJA@0?433@     300c8420     cg_main.obj
 0002:0000c428       ??_C@_0BC@JENEMGNE@cg_lagometerAlpha@ 300c8428     cg_main.obj
 0002:0000c43c       ??_C@_0N@PCGNIFAG@cg_specAlpha@ 300c843c     cg_main.obj
 0002:0000c44c       ??_C@_0P@FEBODJHK@cg_etpubcbuild@ 300c844c     cg_main.obj
 0002:0000c45c       ??_C@_0BE@PEKBFCGG@win?9x86?5Nov?512?52019@ 300c845c     cg_main.obj
 0002:0000c470       ??_C@_09HLCMJOCD@cg_etpubc@ 300c8470     cg_main.obj
 0002:0000c47c       ??_C@_02LHFGLHCH@27@       300c847c     cg_main.obj
 0002:0000c480       ??_C@_02KMALDIDP@16@       300c8480     cg_main.obj
 0002:0000c484       ??_C@_02OBAMBAKB@21@       300c8484     cg_main.obj
 0002:0000c488       ??_C@_0BC@NEFAHEJP@cg_fontLimboScale@ 300c8488     cg_main.obj
 0002:0000c49c       ??_C@_03PBDDOHNJ@0?42@     300c849c     cg_main.obj
 0002:0000c4a0       ??_C@_0P@NADFHPJO@cg_fontCPScale@ 300c84a0     cg_main.obj
 0002:0000c4b0       ??_C@_0BA@KLFFNIBF@cg_fontOIDScale@ 300c84b0     cg_main.obj
 0002:0000c4c0       ??_C@_0P@CPACNOLC@cg_fontQAScale@ 300c84c0     cg_main.obj
 0002:0000c4d0       ??_C@_0P@BMJPHPAA@cg_fontBPScale@ 300c84d0     cg_main.obj
 0002:0000c4e0       ??_C@_04FNMPJLCB@0?425@    300c84e0     cg_main.obj
 0002:0000c4e8       ??_C@_0BG@JLJMNBAA@cg_optimizePrediction@ 300c84e8     cg_main.obj
 0002:0000c500       ??_C@_0BD@PFNDIOHJ@cg_scoresDoubleTap@ 300c8500     cg_main.obj
 0002:0000c514       ??_C@_0P@GHDKIEHL@g_fixedphysics@ 300c8514     cg_main.obj
 0002:0000c524       ??_C@_0BC@IPOJOJJB@g_fixedphysicsfps@ 300c8524     cg_main.obj
 0002:0000c538       ??_C@_03BDPCEMGP@125@      300c8538     cg_main.obj
 0002:0000c53c       ??_C@_0M@OIBBODNJ@g_watermark@ 300c853c     cg_main.obj
 0002:0000c548       ??_C@_0BF@LOOIIKCG@g_watermarkFadeAfter@ 300c8548     cg_main.obj
 0002:0000c560       ??_C@_0BE@LOAFLGDJ@g_watermarkFadeTime@ 300c8560     cg_main.obj
 0002:0000c574       ??_C@_0BC@KBAOELPI@cg_watermarkAlpha@ 300c8574     cg_main.obj
 0002:0000c588       ??_C@_0BA@OEKBCEO@cg_gun_fovscale@ 300c8588     cg_main.obj
 0002:0000c598       ??_C@_0O@MNNFMFBK@cg_logConsole@ 300c8598     cg_main.obj
 0002:0000c5a8       ??_C@_0BC@HHCAEJHC@cg_weapaltReloads@ 300c85a8     cg_main.obj
 0002:0000c5bc       ??_C@_0N@LJJENLJE@cg_drawRanks@ 300c85bc     cg_main.obj
 0002:0000c5cc       ??_C@_0P@EOADNMLA@cg_dynoCounter@ 300c85cc     cg_main.obj
 0002:0000c5dc       ??_C@_0BA@LDHKDPLD@cg_maxTeamDynas@ 300c85dc     cg_main.obj
 0002:0000c5ec       ??_C@_0BB@HIOMPPPH@cg_maxEnemyDynas@ 300c85ec     cg_main.obj
 0002:0000c600       ??_C@_0BC@CDHELCBC@cg_drawClassIcons@ 300c8600     cg_main.obj
 0002:0000c614       ??_C@_01COCBENDE@7@        300c8614     cg_main.obj
 0002:0000c618       ??_C@_0BA@HHNALCNB@cg_countryFlags@ 300c8618     cg_main.obj
 0002:0000c628       ??_C@_0BD@DCNLADAF@cg_drawCrosshairHP@ 300c8628     cg_main.obj
 0002:0000c63c       ??_C@_0BH@LIONHNFF@cg_autoSelectFTMembers@ 300c863c     cg_main.obj
 0002:0000c654       ??_C@_0N@KEEMKHHK@cg_hitSounds@ 300c8654     cg_main.obj
 0002:0000c664       ??_C@_0O@DPGPIDNF@cg_damageKick@ 300c8664     cg_main.obj
 0002:0000c674       ??_C@_0N@OOBFJIKL@cg_locations@ 300c8674     cg_main.obj
 0002:0000c684       ??_C@_03BADCJGEO@mac@      300c8684     cg_main.obj
 0002:0000c688       ??_C@_0BL@MDCOCEP@vmMain?3?5unknown?5command?5?$CFi@ 300c8688     cg_main.obj
 0002:0000c6a4       ??_C@_0L@MPAGGMDN@sv_running@ 300c86a4     cg_main.obj
 0002:0000c6b0       ??_C@_0N@EJFHMJFH@hitsounds?5?$CFs@ 300c86b0     cg_main.obj
 0002:0000c6c0       ??_C@_0M@MJBAJMKN@rconAuth?5?$CFs@ 300c86c0     cg_main.obj
 0002:0000c6cc       ??_C@_06MNIJPMIH@ref?5?$CFs@ 300c86cc     cg_main.obj
 0002:0000c6d4       ??_C@_0O@MHKBEJCK@cg_errorDecay@ 300c86d4     cg_main.obj
 0002:0000c6e4       ??_C@_03OCGDPLBD@500@      300c86e4     cg_main.obj
 0002:0000c6e8       ??_C@_0N@CPHJOPCL@watermark?1?$CFs@ 300c86e8     cg_main.obj
 0002:0000c6f8       ??_C@_0CD@IKPMNCFM@?$FO2Loaded?5HUD?5?$CIcg_hud?5changed?$CJ?3?5@ 300c86f8     cg_main.obj
 0002:0000c720       ??_C@_0EI@KDHCILBK@?$FO2No?5HUD?5or?5invalid?5HUD?5specifi@ 300c8720     cg_main.obj
 0002:0000c768       ??_C@_0DC@JEAEPLIJ@?$FO1ERROR?3?5unable?5to?5load?5any?5HUD@ 300c8768     cg_main.obj
 0002:0000c79c       ??_C@_0N@JFLPIDNL@etconfig?4cfg@ 300c879c     cg_main.obj
 0002:0000c7ac       ??_C@_0P@NNHNPLN@profiles?1?$CFs?1?$CFs@ 300c87ac     cg_main.obj
 0002:0000c7bc       ??_C@_0BF@LLINGDHF@profiles?1?$CFs?1?$CFs?4etpub@ 300c87bc     cg_main.obj
 0002:0000c7d4       ??_C@_0CL@DAIDABEJ@forcecvar?3?5could?5not?5read?5?$CC?$CFs?$CC?5@ 300c87d4     cg_main.obj
 0002:0000c800       ??_C@_0CM@JAOHADCI@forcecvar?3?5could?5not?5write?5?$CC?$CFs?$CC@ 300c8800     cg_main.obj
 0002:0000c82c       ??_C@_0CE@PMFJEJK@RestoreProfile?3?5could?5not?5open?5@ 300c882c     cg_main.obj
 0002:0000c850       ??_C@_0CF@PKMFKCMM@RestoreProfile?3?5no?5backup?5?$CFs?5fo@ 300c8850     cg_main.obj
 0002:0000c878       ??_C@_08OOHKHLPO@?$CFd?5?$CFd?5?$CFd@ 300c8878     cg_main.obj
 0002:0000c884       ??_C@_0BO@LFEJGEKE@?$CF02X?3?$CF02X?3?$CF02X?3?$CF02X?3?$CF02X?3?$CF02X@ 300c8884     cg_main.obj
 0002:0000c8a4       ??_C@_0L@DLEDELBK@?$FLcgnotify?$FN@ 300c88a4     cg_main.obj
 0002:0000c8b0       ??_C@_04JFNGLLLE@?9MVD@    300c88b0     cg_main.obj
 0002:0000c8b8       ??_C@_07KMNEBLH@mapname@   300c88b8     cg_main.obj
 0002:0000c8c0       ??_C@_0BP@GBEGMGMI@?$CFd?9?$CF02d?9?$CF02d?9?$CF02d?$CF02d?$CF02d?9?$CFs?$CFs@ 300c88c0     cg_main.obj
 0002:0000c8e0       ??_C@_0BF@KHMIDINP@is?5not?5on?5the?5server@ 300c88e0     cg_main.obj
 0002:0000c8f8       ??_C@_04ODLBFFJE@User@     300c88f8     cg_main.obj
 0002:0000c900       ??_C@_0P@CANFGBJF@?$CFs?5?$FO3?$CFs?$FO7?5?$CFs?4?6@ 300c8900     cg_main.obj
 0002:0000c910       ??_C@_0P@BPPALCIP@?$FLskipnotify?$FN?$CFs@ 300c8910     cg_main.obj
 0002:0000c920       ??_C@_0BE@CMNKOEOL@maps?1?$CFs_lms?4objdata@ 300c8920     cg_main.obj
 0002:0000c934       ??_C@_0BA@IDEDFOKA@maps?1?$CFs?4objdata@ 300c8934     cg_main.obj
 0002:0000c944       ??_C@_0BC@PJOLJILH@wm_mapdescription@ 300c8944     cg_main.obj
 0002:0000c958       ??_C@_0DF@GNPHNHHK@?$FO1ERROR?3?5bad?5objdata?5line?5?3?5tea@ 300c8958     cg_main.obj
 0002:0000c990       ??_C@_0DM@DMGFFOJH@?$FO1ERROR?3?5bad?5objdata?5line?5?3?5des@ 300c8990     cg_main.obj
 0002:0000c9cc       ??_C@_06GFAFCNFM@allied@   300c89cc     cg_main.obj
 0002:0000c9d4       ??_C@_07JAOEMGIL@neutral@  300c89d4     cg_main.obj
 0002:0000c9dc       ??_C@_0BH@JNBNFAIM@wm_objective_axis_desc@ 300c89dc     cg_main.obj
 0002:0000c9f4       ??_C@_0DH@PNHEKAM@?$FO1ERROR?3?5bad?5objdata?5line?5?3?5num@ 300c89f4     cg_main.obj
 0002:0000ca2c       ??_C@_0DN@DICBMLKD@?$FO1ERROR?3?5bad?5objdata?5line?5?3?5?5de@ 300c8a2c     cg_main.obj
 0002:0000ca6c       ??_C@_0DG@FPFEJFIO@?$FO1ERROR?3?5bad?5objdata?5line?5?3?5inv@ 300c8a6c     cg_main.obj
 0002:0000caa4       ??_C@_0BJ@GDJFDOBB@wm_objective_allied_desc@ 300c8aa4     cg_main.obj
 0002:0000cac0       ??_C@_0CJ@CMOPAMCG@PrecacheItem?3?5?$CFs?5has?5bad?5precac@ 300c8ac0     cg_main.obj
 0002:0000caec       ??_C@_03BICDMHKB@wav@      300c8aec     cg_main.obj
 0002:0000caf0       ??_C@_0BC@HKFNCLGC@sound?1maps?1?$CFs?4sps@ 300c8af0     cg_main.obj
 0002:0000cb04       ??_C@_0CA@LMJFNDJI@sound?1weapons?1misc?1fire_dry?4wav@ 300c8b04     cg_main.obj
 0002:0000cb24       ??_C@_0CC@CADNAJMN@sound?1weapons?1misc?1fire_water?4w@ 300c8b24     cg_main.obj
 0002:0000cb48       ??_C@_0BO@KKMFJLOB@sound?1weapons?1misc?1change?4wav@ 300c8b48     cg_main.obj
 0002:0000cb68       ??_C@_0BL@CCIEAEEP@sound?1player?1land_hurt?4wav@ 300c8b68     cg_main.obj
 0002:0000cb84       ??_C@_0BF@OCPJPOOE@sound?1player?1gib?4wav@ 300c8b84     cg_main.obj
 0002:0000cb9c       ??_C@_0CL@ELODIPC@sound?1weapons?1dynamite?1dynamite@ 300c8b9c     cg_main.obj
 0002:0000cbc8       ??_C@_0CJ@MLKIKKCG@sound?1weapons?1satchel?1satchel_b@ 300c8bc8     cg_main.obj
 0002:0000cbf4       ??_C@_0CH@DIDOENMF@sound?1weapons?1landmine?1mine_bou@ 300c8bf4     cg_main.obj
 0002:0000cc1c       ??_C@_0BK@DOHDALGL@sound?1player?1water_in?4wav@ 300c8c1c     cg_main.obj
 0002:0000cc38       ??_C@_0BL@PEIAOPIF@sound?1player?1water_out?4wav@ 300c8c38     cg_main.obj
 0002:0000cc54       ??_C@_0BK@JOANPNNB@sound?1player?1water_un?4wav@ 300c8c54     cg_main.obj
 0002:0000cc70       ??_C@_0BG@KDDAPEKL@sound?1player?1gasp?4wav@ 300c8c70     cg_main.obj
 0002:0000cc88       ??_C@_0BM@BFEJFNFP@sound?1player?1underwater?4wav@ 300c8c88     cg_main.obj
 0002:0000cca4       ??_C@_0CI@KLMLDDNG@sound?1weapons?1grenade?1bounce_ha@ 300c8ca4     cg_main.obj
 0002:0000cccc       ??_C@_0CJ@IHLBLPCL@sound?1weapons?1grenade?1bounce_me@ 300c8ccc     cg_main.obj
 0002:0000ccf8       ??_C@_0CI@NFIDJGEO@sound?1weapons?1grenade?1bounce_wo@ 300c8cf8     cg_main.obj
 0002:0000cd20       ??_C@_0CI@LFECGCLM@sound?1weapons?1grenade?1bounce_so@ 300c8d20     cg_main.obj
 0002:0000cd48       ??_C@_0CG@KMOAAANG@sound?1player?1footsteps?1stone_ju@ 300c8d48     cg_main.obj
 0002:0000cd70       ??_C@_0CG@GBBMFLIL@sound?1player?1footsteps?1water_ju@ 300c8d70     cg_main.obj
 0002:0000cd98       ??_C@_0CG@KEFLOCHL@sound?1player?1footsteps?1metal_ju@ 300c8d98     cg_main.obj
 0002:0000cdc0       ??_C@_0CF@DEMJJBBF@sound?1player?1footsteps?1wood_jum@ 300c8dc0     cg_main.obj
 0002:0000cde8       ??_C@_0CG@LECOFPGG@sound?1player?1footsteps?1grass_ju@ 300c8de8     cg_main.obj
 0002:0000ce10       ??_C@_0CH@KJOKIIJH@sound?1player?1footsteps?1gravel_j@ 300c8e10     cg_main.obj
 0002:0000ce38       ??_C@_0CF@OIAGEGLJ@sound?1player?1footsteps?1roof_jum@ 300c8e38     cg_main.obj
 0002:0000ce60       ??_C@_0CF@MHOHGFEB@sound?1player?1footsteps?1snow_jum@ 300c8e60     cg_main.obj
 0002:0000ce88       ??_C@_0CH@IGMHNCMC@sound?1player?1footsteps?1carpet_j@ 300c8e88     cg_main.obj
 0002:0000ceb0       ??_C@_0CD@DMIGMCGL@sound?1player?1footsteps?1stone?$CFi?4@ 300c8eb0     cg_main.obj
 0002:0000ced4       ??_C@_0CD@MLEEENGN@sound?1player?1footsteps?1water?$CFi?4@ 300c8ed4     cg_main.obj
 0002:0000cef8       ??_C@_0CD@KJGPEJGH@sound?1player?1footsteps?1metal?$CFi?4@ 300c8ef8     cg_main.obj
 0002:0000cf1c       ??_C@_0CC@LPHIFLDD@sound?1player?1footsteps?1wood?$CFi?4w@ 300c8f1c     cg_main.obj
 0002:0000cf40       ??_C@_0CD@CCLPHDJC@sound?1player?1footsteps?1grass?$CFi?4@ 300c8f40     cg_main.obj
 0002:0000cf64       ??_C@_0CE@KAIJIPMH@sound?1player?1footsteps?1gravel?$CFi@ 300c8f64     cg_main.obj
 0002:0000cf88       ??_C@_0CC@IMAKPAAM@sound?1player?1footsteps?1roof?$CFi?4w@ 300c8f88     cg_main.obj
 0002:0000cfac       ??_C@_0CC@BCFHHFEH@sound?1player?1footsteps?1snow?$CFi?4w@ 300c8fac     cg_main.obj
 0002:0000cfd0       ??_C@_0CE@IOOCCCEO@sound?1player?1footsteps?1carpet?$CFi@ 300c8fd0     cg_main.obj
 0002:0000cff4       ??_C@_0CK@CBAEMCN@sound?1weapons?1flamethrower?1flam@ 300c8ff4     cg_main.obj
 0002:0000d020       ??_C@_0CL@GOFMGBMJ@sound?1weapons?1flamethrower?1flam@ 300c9020     cg_main.obj
 0002:0000d04c       ??_C@_0CI@KCJHNBKH@sound?1weapons?1flamethrower?1flam@ 300c904c     cg_main.obj
 0002:0000d074       ??_C@_0CK@BOCPMJIG@sound?1weapons?1flamethrower?1flam@ 300c9074     cg_main.obj
 0002:0000d0a0       ??_C@_0CG@DGEHDECH@sound?1weapons?1grenade?1gren_time@ 300c90a0     cg_main.obj
 0002:0000d0c8       ??_C@_0CG@CLECAEJP@sound?1weapons?1grenade?1gren_time@ 300c90c8     cg_main.obj
 0002:0000d0f0       ??_C@_0CG@OABONHDK@sound?1weapons?1grenade?1gren_time@ 300c90f0     cg_main.obj
 0002:0000d118       ??_C@_0CG@GGIKKFJE@sound?1weapons?1grenade?1gren_time@ 300c9118     cg_main.obj
 0002:0000d140       ??_C@_0CF@HKBFCGIL@sound?1weapons?1rocket?1rocket_exp@ 300c9140     cg_main.obj
 0002:0000d168       ??_C@_0CJ@PFMMKHEM@sound?1weapons?1rocket?1rocket_exp@ 300c9168     cg_main.obj
 0002:0000d194       ??_C@_0CN@PPCOPPPJ@sound?1weapons?1artillery?1artille@ 300c9194     cg_main.obj
 0002:0000d1c4       ??_C@_0CN@HJLKINFH@sound?1weapons?1artillery?1artille@ 300c91c4     cg_main.obj
 0002:0000d1f4       ??_C@_0CN@LCOGFOPC@sound?1weapons?1artillery?1artille@ 300c91f4     cg_main.obj
 0002:0000d224       ??_C@_0CP@HHOPDDB@sound?1weapons?1artillery?1artille@ 300c9224     cg_main.obj
 0002:0000d254       ??_C@_0CN@DGNIGPCE@sound?1weapons?1airstrike?1airstri@ 300c9254     cg_main.obj
 0002:0000d284       ??_C@_0CN@LAEMBNIK@sound?1weapons?1airstrike?1airstri@ 300c9284     cg_main.obj
 0002:0000d2b4       ??_C@_0CN@HLBAMOCP@sound?1weapons?1airstrike?1airstri@ 300c92b4     cg_main.obj
 0002:0000d2e4       ??_C@_0CP@MDOHBCNB@sound?1weapons?1airstrike?1airstri@ 300c92e4     cg_main.obj
 0002:0000d314       ??_C@_0CJ@KBMKDCOH@sound?1weapons?1dynamite?1dynamite@ 300c9314     cg_main.obj
 0002:0000d340       ??_C@_0CN@IILCDGNH@sound?1weapons?1dynamite?1dynamite@ 300c9340     cg_main.obj
 0002:0000d370       ??_C@_0CH@BKHOEEMM@sound?1weapons?1satchel?1satchel_e@ 300c9370     cg_main.obj
 0002:0000d398       ??_C@_0CL@HDOHALLC@sound?1weapons?1satchel?1satchel_e@ 300c9398     cg_main.obj
 0002:0000d3c4       ??_C@_0CF@ODKJNBPA@sound?1weapons?1landmine?1mine_exp@ 300c93c4     cg_main.obj
 0002:0000d3ec       ??_C@_0CJ@DINKCPNA@sound?1weapons?1landmine?1mine_exp@ 300c93ec     cg_main.obj
 0002:0000d418       ??_C@_0CG@GNGELPKC@sound?1weapons?1mortar?1mortar_exp@ 300c9418     cg_main.obj
 0002:0000d440       ??_C@_0CG@OLPAMNAM@sound?1weapons?1mortar?1mortar_exp@ 300c9440     cg_main.obj
 0002:0000d468       ??_C@_0CG@CAKMBOKJ@sound?1weapons?1mortar?1mortar_exp@ 300c9468     cg_main.obj
 0002:0000d490       ??_C@_0CF@EJKAIGDD@sound?1weapons?1mortar?1mortar_exp@ 300c9490     cg_main.obj
 0002:0000d4b8       ??_C@_0CJ@NCBAKHLC@sound?1weapons?1mortar?1mortar_exp@ 300c94b8     cg_main.obj
 0002:0000d4e4       ??_C@_0CE@HMHKGNDA@sound?1weapons?1grenade?1gren_expl@ 300c94e4     cg_main.obj
 0002:0000d508       ??_C@_0CI@EIHGNOKL@sound?1weapons?1grenade?1gren_expl@ 300c9508     cg_main.obj
 0002:0000d530       ??_C@_0CK@GGDFFGHM@sound?1weapons?1grenade?1gren_expl@ 300c9530     cg_main.obj
 0002:0000d55c       ??_C@_0CF@MEENDCGH@sound?1weapons?1misc?1shell_metal?$CF@ 300c955c     cg_main.obj
 0002:0000d584       ??_C@_0CE@CACGEENE@sound?1weapons?1misc?1shell_soft?$CFi@ 300c9584     cg_main.obj
 0002:0000d5a8       ??_C@_0CF@FBKELJGL@sound?1weapons?1misc?1shell_stone?$CF@ 300c95a8     cg_main.obj
 0002:0000d5d0       ??_C@_0CE@EAOHLACG@sound?1weapons?1misc?1shell_wood?$CFi@ 300c95d0     cg_main.obj
 0002:0000d5f4       ??_C@_0BJ@EKNOAHGP@sound?1world?1debris?$CFi?4wav@ 300c95f4     cg_main.obj
 0002:0000d610       ??_C@_0CD@DPGDKKFM@sound?1weapons?1knife?1knife_hit1?4@ 300c9610     cg_main.obj
 0002:0000d634       ??_C@_0CD@LJPHNIPC@sound?1weapons?1knife?1knife_hit2?4@ 300c9634     cg_main.obj
 0002:0000d658       ??_C@_0CD@HCKLALFH@sound?1weapons?1knife?1knife_hit3?4@ 300c9658     cg_main.obj
 0002:0000d67c       ??_C@_0CD@GPKODLOP@sound?1weapons?1knife?1knife_hit4?4@ 300c967c     cg_main.obj
 0002:0000d6a0       ??_C@_0CH@NFDPMGIK@sound?1weapons?1knife?1knife_hitwa@ 300c96a0     cg_main.obj
 0002:0000d6c8       ??_C@_0CB@CFCFMBEP@sound?1weapons?1impact?1flesh?$CFi?4wa@ 300c96c8     cg_main.obj
 0002:0000d6ec       ??_C@_0CB@OBOKNFBP@sound?1weapons?1impact?1metal?$CFi?4wa@ 300c96ec     cg_main.obj
 0002:0000d710       ??_C@_0CA@IINCGIJE@sound?1weapons?1impact?1wood?$CFi?4wav@ 300c9710     cg_main.obj
 0002:0000d730       ??_C@_0CB@JGLKAACH@sound?1weapons?1impact?1glass?$CFi?4wa@ 300c9730     cg_main.obj
 0002:0000d754       ??_C@_0CB@HEADFOBD@sound?1weapons?1impact?1stone?$CFi?4wa@ 300c9754     cg_main.obj
 0002:0000d778       ??_C@_0CB@IDMBNBBF@sound?1weapons?1impact?1water?$CFi?4wa@ 300c9778     cg_main.obj
 0002:0000d79c       ??_C@_0BL@GOBMIGEN@sound?1misc?1body_pickup?4wav@ 300c979c     cg_main.obj
 0002:0000d7b8       ??_C@_0BM@FGEJLKCC@sound?1world?1build_abort?4wav@ 300c97b8     cg_main.obj
 0002:0000d7d4       ??_C@_0BG@JOBDMLMJ@sound?1menu?1select?4wav@ 300c97d4     cg_main.obj
 0002:0000d7ec       ??_C@_0BF@PODHDOND@sound?1menu?1focus?4wav@ 300c97ec     cg_main.obj
 0002:0000d804       ??_C@_0BG@FOBGKEFM@sound?1menu?1filter?4wav@ 300c9804     cg_main.obj
 0002:0000d81c       ??_C@_0BG@FNMCDLLF@sound?1menu?1cancel?4wav@ 300c981c     cg_main.obj
 0002:0000d834       ??_C@_0BH@OGLPPOLB@sound?1misc?1rank_up?4wav@ 300c9834     cg_main.obj
 0002:0000d84c       ??_C@_0BI@HLANAJCP@sound?1misc?1skill_up?4wav@ 300c984c     cg_main.obj
 0002:0000d864       ??_C@_0BK@NMMCLBJ@sound?1chat?1axis?1medic?4wav@ 300c9864     cg_main.obj
 0002:0000d880       ??_C@_0BM@IPNEPCNC@sound?1chat?1allies?1medic?4wav@ 300c9880     cg_main.obj
 0002:0000d89c       ??_C@_0BM@KBHMPPOD@sound?1hitsounds?1default?4wav@ 300c989c     cg_main.obj
 0002:0000d8b8       ??_C@_0BL@INEEJEJA@sound?1hitsounds?1helmet?4wav@ 300c98b8     cg_main.obj
 0002:0000d8d4       ??_C@_0BJ@NDFDBNJL@sound?1hitsounds?1head?4wav@ 300c98d4     cg_main.obj
 0002:0000d8f0       ??_C@_0CB@FMEEFJAA@sound?1hitsounds?1team_default?4wa@ 300c98f0     cg_main.obj
 0002:0000d914       ??_C@_0CA@NHBLANIK@sound?1hitsounds?1team_helmet?4wav@ 300c9914     cg_main.obj
 0002:0000d934       ??_C@_0BO@JAINPIGF@sound?1hitsounds?1team_head?4wav@ 300c9934     cg_main.obj
 0002:0000d954       ??_C@_0CD@OCPGFLAK@sound?1hitsounds?1team_warn_axis?4@ 300c9954     cg_main.obj
 0002:0000d978       ??_C@_0CF@NHPDB@sound?1hitsounds?1team_warn_allie@ 300c9978     cg_main.obj
 0002:0000d9a0       ??_C@_0CM@HPEPCEEP@sound?1weapons?1artillery?1artille@ 300c99a0     cg_main.obj
 0002:0000d9cc       ??_C@_0CM@PJNLFGOB@sound?1weapons?1artillery?1artille@ 300c99cc     cg_main.obj
 0002:0000d9f8       ??_C@_0CM@DCIHIFEE@sound?1weapons?1artillery?1artille@ 300c99f8     cg_main.obj
 0002:0000da24       ??_C@_0CM@JJBKEAAK@sound?1weapons?1airstrike?1airstri@ 300c9a24     cg_main.obj
 0002:0000da50       ??_C@_08PNMNOKOB@entities@ 300c9a50     cg_main.obj
 0002:0000da5c       ??_C@_0L@EDDEHNPC@game?5media@ 300c9a5c     cg_main.obj
 0002:0000da68       ??_C@_0M@FODEOKKD@?5?9?5textures@ 300c9a68     cg_main.obj
 0002:0000da74       ??_C@_0BF@PECIOAKL@fleshimpactsmokepuff@ 300c9a74     cg_main.obj
 0002:0000da8c       ??_C@_08HIGKOAPI@jpwtest1@ 300c9a8c     cg_main.obj
 0002:0000da98       ??_C@_08FDEHLDDL@jpwtest2@ 300c9a98     cg_main.obj
 0002:0000daa4       ??_C@_07FNJJHJNL@jpwhud1@  300c9aa4     cg_main.obj
 0002:0000daac       ??_C@_07HGLECKBI@jpwhud2@  300c9aac     cg_main.obj
 0002:0000dab4       ??_C@_07GPKPBLFJ@jpwhud3@  300c9ab4     cg_main.obj
 0002:0000dabc       ??_C@_07CAOOINJO@jpwhud4@  300c9abc     cg_main.obj
 0002:0000dac4       ??_C@_07DJPFLMNP@jpwhud5@  300c9ac4     cg_main.obj
 0002:0000dacc       ??_C@_09GPGLBPNG@smokePuff@ 300c9acc     cg_main.obj
 0002:0000dad8       ??_C@_0L@EHBDBAED@bloodCloud@ 300c9ad8     cg_main.obj
 0002:0000dae4       ??_C@_0P@MDFMKMMN@smokePuffdirty@ 300c9ae4     cg_main.obj
 0002:0000daf4       ??_C@_0BA@OFHKLEPA@smokePuffblack1@ 300c9af4     cg_main.obj
 0002:0000db04       ??_C@_0BA@MOFHOHDD@smokePuffblack2@ 300c9b04     cg_main.obj
 0002:0000db14       ??_C@_0BA@NHEMNGHC@smokePuffblack3@ 300c9b14     cg_main.obj
 0002:0000db24       ??_C@_0BA@JIANEALF@smokePuffblack4@ 300c9b24     cg_main.obj
 0002:0000db34       ??_C@_0BA@IBBGHBPE@smokePuffblack5@ 300c9b34     cg_main.obj
 0002:0000db44       ??_C@_0BB@JKBPHODK@viewBloodBlend?$CFi@ 300c9b44     cg_main.obj
 0002:0000db58       ??_C@_0P@HGLKEBJN@viewFlashBlood@ 300c9b58     cg_main.obj
 0002:0000db68       ??_C@_0BA@BIOAGEFG@viewFlashFire?$CFi@ 300c9b68     cg_main.obj
 0002:0000db78       ??_C@_0BB@LHMIJHPJ@smokePuffRagePro@ 300c9b78     cg_main.obj
 0002:0000db8c       ??_C@_0BB@FPJBCPAO@shotgunSmokePuff@ 300c9b8c     cg_main.obj
 0002:0000dba0       ??_C@_0L@LLCKKMKM@bloodTrail@ 300c9ba0     cg_main.obj
 0002:0000dbac       ??_C@_0BH@LCBFCAPC@gfx?1misc?1reticlesimple@ 300c9bac     cg_main.obj
 0002:0000dbc4       ??_C@_0BF@GPHHEHKC@gfx?1misc?1binocsimple@ 300c9bc4     cg_main.obj
 0002:0000dbdc       ??_C@_08MDDEKELM@snow_tri@ 300c9bdc     cg_main.obj
 0002:0000dbe8       ??_C@_0M@FPAPAJFL@oilParticle@ 300c9be8     cg_main.obj
 0002:0000dbf4       ??_C@_08EFPAKHKM@oilSlick@ 300c9bf4     cg_main.obj
 0002:0000dc00       ??_C@_0M@OBGACBNG@waterBubble@ 300c9c00     cg_main.obj
 0002:0000dc0c       ??_C@_0BA@LPLLBJPM@gfx?1misc?1tracer@ 300c9c0c     cg_main.obj
 0002:0000dc1c       ??_C@_0BC@KMPKAMCH@gfx?12d?1usableHint@ 300c9c1c     cg_main.obj
 0002:0000dc30       ??_C@_0BF@KOOHEFFB@gfx?12d?1notUsableHint@ 300c9c30     cg_main.obj
 0002:0000dc48       ??_C@_0BA@EIKOHFCG@gfx?12d?1doorHint@ 300c9c48     cg_main.obj
 0002:0000dc58       ??_C@_0BG@BIKBLLHK@gfx?12d?1doorRotateHint@ 300c9c58     cg_main.obj
 0002:0000dc70       ??_C@_0BC@OKGPBNNA@gfx?12d?1lockedhint@ 300c9c70     cg_main.obj
 0002:0000dc84       ??_C@_0BA@BJGCGPOJ@gfx?12d?1mg42Hint@ 300c9c84     cg_main.obj
 0002:0000dc94       ??_C@_0BF@EMEOEKMJ@gfx?12d?1breakableHint@ 300c9c94     cg_main.obj
 0002:0000dcac       ??_C@_0BB@LKNOAHKM@gfx?12d?1chairHint@ 300c9cac     cg_main.obj
 0002:0000dcc0       ??_C@_0BB@HEJOPOOH@gfx?12d?1alarmHint@ 300c9cc0     cg_main.obj
 0002:0000dcd4       ??_C@_0BC@BOANKHAB@gfx?12d?1healthHint@ 300c9cd4     cg_main.obj
 0002:0000dce8       ??_C@_0BE@FPFFIGAN@gfx?12d?1treasureHint@ 300c9ce8     cg_main.obj
 0002:0000dcfc       ??_C@_0BB@OBGNGHKN@gfx?12d?1knifeHint@ 300c9cfc     cg_main.obj
 0002:0000dd10       ??_C@_0BC@FNKJJMIE@gfx?12d?1ladderHint@ 300c9d10     cg_main.obj
 0002:0000dd24       ??_C@_0BC@CBIFHIOE@gfx?12d?1buttonHint@ 300c9d24     cg_main.obj
 0002:0000dd38       ??_C@_0BB@MLMDMFFO@gfx?12d?1waterHint@ 300c9d38     cg_main.obj
 0002:0000dd4c       ??_C@_0BD@EHHHHDEA@gfx?12d?1cautionHint@ 300c9d4c     cg_main.obj
 0002:0000dd60       ??_C@_0BC@PMMLPALM@gfx?12d?1dangerHint@ 300c9d60     cg_main.obj
 0002:0000dd74       ??_C@_0BC@GBKALKIL@gfx?12d?1secretHint@ 300c9d74     cg_main.obj
 0002:0000dd88       ??_C@_0BE@DGACMJCE@gfx?12d?1questionHint@ 300c9d88     cg_main.obj
 0002:0000dd9c       ??_C@_0BH@BAHDCKHL@gfx?12d?1exclamationHint@ 300c9d9c     cg_main.obj
 0002:0000ddb4       ??_C@_0BF@LDDHJENC@gfx?12d?1clipboardHint@ 300c9db4     cg_main.obj
 0002:0000ddcc       ??_C@_0BC@LLJHJIEB@gfx?12d?1weaponHint@ 300c9dcc     cg_main.obj
 0002:0000dde0       ??_C@_0BA@GIMLDHHI@gfx?12d?1ammoHint@ 300c9de0     cg_main.obj
 0002:0000ddf0       ??_C@_0BB@LDLKDPAL@gfx?12d?1armorHint@ 300c9df0     cg_main.obj
 0002:0000de04       ??_C@_0BD@KGKGMFD@gfx?12d?1powerupHint@ 300c9e04     cg_main.obj
 0002:0000de18       ??_C@_0BE@LNJCDFKJ@gfx?12d?1holdableHint@ 300c9e18     cg_main.obj
 0002:0000de2c       ??_C@_0BF@DOBKNOFD@gfx?12d?1inventoryHint@ 300c9e2c     cg_main.obj
 0002:0000de44       ??_C@_0BF@CPPPGOID@gfx?12d?1friendlycross@ 300c9e44     cg_main.obj
 0002:0000de5c       ??_C@_0BB@FMMBBMCA@gfx?12d?1buildHint@ 300c9e5c     cg_main.obj
 0002:0000de70       ??_C@_0BC@CEAFAOOH@gfx?12d?1disarmHint@ 300c9e70     cg_main.obj
 0002:0000de84       ??_C@_0BC@PJBEBIGF@gfx?12d?1reviveHint@ 300c9e84     cg_main.obj
 0002:0000de98       ??_C@_0BE@JFCHILCA@gfx?12d?1dynamiteHint@ 300c9e98     cg_main.obj
 0002:0000deac       ??_C@_0BA@HDEKHNIC@gfx?12d?1tankHint@ 300c9eac     cg_main.obj
 0002:0000debc       ??_C@_0BJ@EEOCGPKA@gfx?12d?1satchelchargeHint@ 300c9ebc     cg_main.obj
 0002:0000ded8       ??_C@_0BE@OALHMLIL@gfx?12d?1landmineHint@ 300c9ed8     cg_main.obj
 0002:0000deec       ??_C@_0BD@MOPMECCM@gfx?12d?1uniformHint@ 300c9eec     cg_main.obj
 0002:0000df00       ??_C@_0BI@OAAAKLKP@sprites?1waypoint_attack@ 300c9f00     cg_main.obj
 0002:0000df18       ??_C@_0BI@GALAIJBP@sprites?1waypoint_defend@ 300c9f18     cg_main.obj
 0002:0000df30       ??_C@_0BJ@KEEHMKDD@sprites?1waypoint_regroup@ 300c9f30     cg_main.obj
 0002:0000df4c       ??_C@_0BI@GNKOHODM@levelshots?1?$CFs_?$CFi_cc?4tga@ 300c9f4c     cg_main.obj
 0002:0000df64       ??_C@_0BK@GAAKEHBI@levelshots?1?$CFs_?$CFi_cc_trans@ 300c9f64     cg_main.obj
 0002:0000df80       ??_C@_0BM@CDMIGPHE@levelshots?1?$CFs_?$CFi_cc_automap@ 300c9f80     cg_main.obj
 0002:0000df9c       ??_C@_0BH@MKFMNFBH@levelshots?1?$CFs_cc_trans@ 300c9f9c     cg_main.obj
 0002:0000dfb4       ??_C@_0BJ@LKFBCLIF@levelshots?1?$CFs_cc_automap@ 300c9fb4     cg_main.obj
 0002:0000dfd0       ??_C@_0BI@KCPDIIMP@levelshots?1automap_mask@ 300c9fd0     cg_main.obj
 0002:0000dfe8       ??_C@_0BI@CLPMIOBJ@ui?1assets2?1maptrim_long@ 300c9fe8     cg_main.obj
 0002:0000e000       ??_C@_0BJ@IJDAAADP@ui?1assets2?1maptrim_long2@ 300ca000     cg_main.obj
 0002:0000e01c       ??_C@_0BM@FAEEBGFG@ui?1assets2?1maptrim_edge?4tga@ 300ca01c     cg_main.obj
 0002:0000e038       ??_C@_0BG@FKOONCBP@sprites?1landmine_axis@ 300ca038     cg_main.obj
 0002:0000e050       ??_C@_0BI@IFAJDIOG@sprites?1landmine_allied@ 300ca050     cg_main.obj
 0002:0000e068       ??_C@_0BG@PKAOLMKB@gfx?1limbo?1cm_flagaxis@ 300ca068     cg_main.obj
 0002:0000e080       ??_C@_0BI@FFEFFHGP@gfx?1limbo?1cm_flagallied@ 300ca080     cg_main.obj
 0002:0000e098       ??_C@_0BG@EJAKANNE@sprites?1construct?4tga@ 300ca098     cg_main.obj
 0002:0000e0b0       ??_C@_0BG@IDMCNPKN@gfx?1flags?1world_flags@ 300ca0b0     cg_main.obj
 0002:0000e0c8       ??_C@_0BE@OABMOFEM@sprites?1destroy?4tga@ 300ca0c8     cg_main.obj
 0002:0000e0dc       ??_C@_0BF@BMKDPAMG@gfx?12d?1numbers?1slash@ 300ca0dc     cg_main.obj
 0002:0000e0f4       ??_C@_0BE@JPJEBLB@gfx?12d?1compass2?4tga@ 300ca0f4     cg_main.obj
 0002:0000e108       ??_C@_0BD@DMCCOECI@gfx?12d?1compass?4tga@ 300ca108     cg_main.obj
 0002:0000e11c       ??_C@_0BC@NGBKOHJP@sprites?1buddy?4tga@ 300ca11c     cg_main.obj
 0002:0000e130       ??_C@_0BD@PPPBDMEH@gfx?12d?1crosshair?$CFc@ 300ca130     cg_main.obj
 0002:0000e144       ??_C@_0BH@DIFAAFML@gfx?12d?1crosshair?$CFc_alt@ 300ca144     cg_main.obj
 0002:0000e15c       ??_C@_0BE@LOHMNHDF@gfx?1limbo?1medals0?$CFi@ 300ca15c     cg_main.obj
 0002:0000e170       ??_C@_0BA@PJMLIFEA@gfx?12d?1backtile@ 300ca170     cg_main.obj
 0002:0000e180       ??_C@_0N@COAENKOL@icons?1noammo@ 300ca180     cg_main.obj
 0002:0000e190       ??_C@_0BE@MEJHIMJO@gfx?12d?1colorbar?4tga@ 300ca190     cg_main.obj
 0002:0000e1a4       ??_C@_09PKGMFINC@sprintbar@ 300ca1a4     cg_main.obj
 0002:0000e1b0       ??_C@_0N@DHLNDEGJ@AlliedHelmet@ 300ca1b0     cg_main.obj
 0002:0000e1c0       ??_C@_0L@LCDEJIA@AxisHelmet@ 300ca1c0     cg_main.obj
 0002:0000e1cc       ??_C@_09OPLGMNJM@?5?9?5models@ 300ca1cc     cg_main.obj
 0002:0000e1d8       ??_C@_0CD@LDBBEFLC@models?1weapons2?1shells?1m_shell?4@ 300ca1d8     cg_main.obj
 0002:0000e1fc       ??_C@_0CE@FPOMAJNG@models?1weapons2?1shells?1pf_shell@ 300ca1fc     cg_main.obj
 0002:0000e220       ??_C@_0CE@JDLEMBBG@models?1weapons2?1shells?1sm_shell@ 300ca220     cg_main.obj
 0002:0000e244       ??_C@_0CE@NDNEDAOM@models?1mapobjects?1debris?1brick1@ 300ca244     cg_main.obj
 0002:0000e268       ??_C@_0CE@FFEAECEC@models?1mapobjects?1debris?1brick2@ 300ca268     cg_main.obj
 0002:0000e28c       ??_C@_0CE@JOBMJBOH@models?1mapobjects?1debris?1brick3@ 300ca28c     cg_main.obj
 0002:0000e2b0       ??_C@_0CE@IDBJKBFP@models?1mapobjects?1debris?1brick4@ 300ca2b0     cg_main.obj
 0002:0000e2d4       ??_C@_0CE@EIEFHCPK@models?1mapobjects?1debris?1brick5@ 300ca2d4     cg_main.obj
 0002:0000e2f8       ??_C@_0CE@MONBAAFE@models?1mapobjects?1debris?1brick6@ 300ca2f8     cg_main.obj
 0002:0000e31c       ??_C@_0CF@LDMLCJEN@models?1mapobjects?1debris?1rubble@ 300ca31c     cg_main.obj
 0002:0000e344       ??_C@_0CF@DFFPFLOD@models?1mapobjects?1debris?1rubble@ 300ca344     cg_main.obj
 0002:0000e36c       ??_C@_0CF@POADIIEG@models?1mapobjects?1debris?1rubble@ 300ca36c     cg_main.obj
 0002:0000e394       ??_C@_0BL@HLCEMMJA@models?1gibs?1wood?1wood1?4md3@ 300ca394     cg_main.obj
 0002:0000e3b0       ??_C@_0BL@PNLALODO@models?1gibs?1wood?1wood2?4md3@ 300ca3b0     cg_main.obj
 0002:0000e3cc       ??_C@_0BL@DGOMGNJL@models?1gibs?1wood?1wood3?4md3@ 300ca3cc     cg_main.obj
 0002:0000e3e8       ??_C@_0BL@CLOJFNCD@models?1gibs?1wood?1wood4?4md3@ 300ca3e8     cg_main.obj
 0002:0000e404       ??_C@_0BL@OALFIOIG@models?1gibs?1wood?1wood5?4md3@ 300ca404     cg_main.obj
 0002:0000e420       ??_C@_0BL@GGCBPMCI@models?1gibs?1wood?1wood6?4md3@ 300ca420     cg_main.obj
 0002:0000e43c       ??_C@_0BK@HDAIHEFE@models?1shards?1fabric1?4md3@ 300ca43c     cg_main.obj
 0002:0000e458       ??_C@_0BK@PFJMAGPK@models?1shards?1fabric2?4md3@ 300ca458     cg_main.obj
 0002:0000e474       ??_C@_0BK@DOMANFFP@models?1shards?1fabric3?4md3@ 300ca474     cg_main.obj
 0002:0000e490       ??_C@_0P@MLNNMIBK@sprites?1shield@ 300ca490     cg_main.obj
 0002:0000e4a0       ??_C@_0O@KEBKJKIJ@sprites?1skull@ 300ca4a0     cg_main.obj
 0002:0000e4b0       ??_C@_0BF@GPJAGFPI@sprites?1medic_revive@ 300ca4b0     cg_main.obj
 0002:0000e4c8       ??_C@_0BA@FHKDOPHN@sprites?1destroy@ 300ca4c8     cg_main.obj
 0002:0000e4d8       ??_C@_0BC@KDFCCGCA@sprites?1voiceChat@ 300ca4d8     cg_main.obj
 0002:0000e4ec       ??_C@_0BB@NCNCDGDJ@sprites?1balloon3@ 300ca4ec     cg_main.obj
 0002:0000e500       ??_C@_0BC@FDKNCPIH@sprites?1objective@ 300ca500     cg_main.obj
 0002:0000e514       ??_C@_0P@JNFBEAMD@bloodExplosion@ 300ca514     cg_main.obj
 0002:0000e524       ??_C@_0BL@KJKOFMEH@models?1weaphits?1bullet?4md3@ 300ca524     cg_main.obj
 0002:0000e540       ??_C@_0M@HPFFKMJA@waterSplash@ 300ca540     cg_main.obj
 0002:0000e54c       ??_C@_0O@FPKBNHAB@sparkParticle@ 300ca54c     cg_main.obj
 0002:0000e55c       ??_C@_0BH@HMBAJDJB@flamethrowerFireStream@ 300ca55c     cg_main.obj
 0002:0000e574       ??_C@_0BH@EOIBEGJO@flamethrowerBlueStream@ 300ca574     cg_main.obj
 0002:0000e58c       ??_C@_0O@FCDIIOBC@entityOnFire1@ 300ca58c     cg_main.obj
 0002:0000e59c       ??_C@_0O@HJBFNNNB@entityOnFire2@ 300ca59c     cg_main.obj
 0002:0000e5ac       ??_C@_0O@NGKELLEO@viewFadeBlack@ 300ca5ac     cg_main.obj
 0002:0000e5bc       ??_C@_0BD@GJKMDIBP@sparkFlareParticle@ 300ca5bc     cg_main.obj
 0002:0000e5d0       ??_C@_09KHJKBKBD@spotLight@ 300ca5d0     cg_main.obj
 0002:0000e5dc       ??_C@_09GCCHBIJK@lightBeam@ 300ca5dc     cg_main.obj
 0002:0000e5e8       ??_C@_0BE@PMLIKACJ@bulletParticleTrail@ 300ca5e8     cg_main.obj
 0002:0000e5fc       ??_C@_0O@IOMJAIEG@smokeParticle@ 300ca5fc     cg_main.obj
 0002:0000e60c       ??_C@_0M@KFHLBKLH@dirt_splash@ 300ca60c     cg_main.obj
 0002:0000e618       ??_C@_0N@FNPEPNEB@water_splash@ 300ca618     cg_main.obj
 0002:0000e628       ??_C@_0BK@NNHAJCMJ@textures?1sfx?1construction@ 300ca628     cg_main.obj
 0002:0000e644       ??_C@_0BH@BKKEHKGK@sprites?1uniform_allied@ 300ca644     cg_main.obj
 0002:0000e65c       ??_C@_0BF@ELCOMEEG@sprites?1uniform_axis@ 300ca65c     cg_main.obj
 0002:0000e674       ??_C@_0CA@GGOMIGMP@textures?1sfx?1shoutcast_landmine@ 300ca674     cg_main.obj
 0002:0000e694       ??_C@_0BG@HCNGPDEH@gfx?1limbo?1filter_axis@ 300ca694     cg_main.obj
 0002:0000e6ac       ??_C@_0BI@LLACNHNM@gfx?1limbo?1filter_allied@ 300ca6ac     cg_main.obj
 0002:0000e6c4       ??_C@_0BH@KPGHCMIL@gfx?1limbo?1filter_spawn@ 300ca6c4     cg_main.obj
 0002:0000e6dc       ??_C@_0BE@BMAONEOE@gfx?1limbo?1filter_bo@ 300ca6dc     cg_main.obj
 0002:0000e6f0       ??_C@_0BM@MNCJNIFH@gfx?1limbo?1filter_healthammo@ 300ca6f0     cg_main.obj
 0002:0000e70c       ??_C@_0BO@IBNPLBGI@gfx?1limbo?1filter_construction@ 300ca70c     cg_main.obj
 0002:0000e72c       ??_C@_0BN@FAMJGALN@gfx?1limbo?1filter_destruction@ 300ca72c     cg_main.obj
 0002:0000e74c       ??_C@_0BL@MLEBDBNP@gfx?1limbo?1filter_objective@ 300ca74c     cg_main.obj
 0002:0000e768       ??_C@_0BJ@IDKNKKLD@gfx?1limbo?1filter_back_on@ 300ca768     cg_main.obj
 0002:0000e784       ??_C@_0BK@GPFPNCAF@gfx?1limbo?1filter_back_off@ 300ca784     cg_main.obj
 0002:0000e7a0       ??_C@_0BK@JNOCONOE@ui?1assets2?1stamp_complete@ 300ca7a0     cg_main.obj
 0002:0000e7bc       ??_C@_0BI@OJGLNDFB@ui?1assets2?1stamp_failed@ 300ca7bc     cg_main.obj
 0002:0000e7d4       ??_C@_0CC@ODBAIDOF@ui?1assets?1mp_player_highlight?4t@ 300ca7d4     cg_main.obj
 0002:0000e7f8       ??_C@_0BH@PHNDJKIA@gfx?1limbo?1cm_constaxis@ 300ca7f8     cg_main.obj
 0002:0000e810       ??_C@_0BJ@LNHMKKM@gfx?1limbo?1cm_constallied@ 300ca810     cg_main.obj
 0002:0000e82c       ??_C@_0BG@NLLNGAOP@gfx?1limbo?1cm_axisgren@ 300ca82c     cg_main.obj
 0002:0000e844       ??_C@_0BI@IKIABIPC@gfx?1limbo?1cm_alliedgren@ 300ca844     cg_main.obj
 0002:0000e85c       ??_C@_0BF@CPBLACBD@gfx?1limbo?1cm_satchel@ 300ca85c     cg_main.obj
 0002:0000e874       ??_C@_0BG@OFIBGAJD@gfx?1limbo?1cm_dynamite@ 300ca874     cg_main.obj
 0002:0000e88c       ??_C@_0BH@CEODHNFN@gfx?1limbo?1cm_churchill@ 300ca88c     cg_main.obj
 0002:0000e8a4       ??_C@_0BF@EMMHEOAL@gfx?1limbo?1cm_bo_axis@ 300ca8a4     cg_main.obj
 0002:0000e8bc       ??_C@_0BH@FCBOCGPF@gfx?1limbo?1cm_bo_allied@ 300ca8bc     cg_main.obj
 0002:0000e8d4       ??_C@_0BD@CECILBHI@gfx?1limbo?1mort_hit@ 300ca8d4     cg_main.obj
 0002:0000e8e8       ??_C@_0BG@PCFKPFDL@gfx?1limbo?1mort_target@ 300ca8e8     cg_main.obj
 0002:0000e900       ??_C@_0BL@ICJBCDDA@gfx?1limbo?1mort_targetarrow@ 300ca900     cg_main.obj
 0002:0000e91c       ??_C@_0BJ@CJLPDDD@gfx?1limbo?1ic_battlesense@ 300ca91c     cg_main.obj
 0002:0000e938       ??_C@_0BG@FABPMAIC@gfx?1limbo?1ic_engineer@ 300ca938     cg_main.obj
 0002:0000e950       ??_C@_0BD@BMGFDN@gfx?1limbo?1ic_medic@ 300ca950     cg_main.obj
 0002:0000e964       ??_C@_0BG@ICPONNNL@gfx?1limbo?1ic_fieldops@ 300ca964     cg_main.obj
 0002:0000e97c       ??_C@_0BH@LENHDBLL@gfx?1limbo?1ic_lightweap@ 300ca97c     cg_main.obj
 0002:0000e994       ??_C@_0BF@LCBKBFCF@gfx?1limbo?1ic_soldier@ 300ca994     cg_main.obj
 0002:0000e9ac       ??_C@_0BH@CPINKAOE@gfx?1limbo?1ic_covertops@ 300ca9ac     cg_main.obj
 0002:0000e9c4       ??_C@_0CO@OAJLNBHA@models?1multiplayer?1flagpole?1fla@ 300ca9c4     cg_main.obj
 0002:0000e9f4       ??_C@_0BJ@DAFJJGIB@textures?1props?1cable_m01@ 300ca9f4     cg_main.obj
 0002:0000ea10       ??_C@_0CF@DNMKLBMC@models?1multiplayer?1binocs?1binoc@ 300caa10     cg_main.obj
 0002:0000ea38       ??_C@_0CF@LDEJGIHE@models?1furniture?1barrel?1barrel_@ 300caa38     cg_main.obj
 0002:0000ea60       ??_C@_0CK@EHMPLIPM@models?1weapons2?1machinegun?1mg42@ 300caa60     cg_main.obj
 0002:0000ea8c       ??_C@_0BJ@LJDHLDFK@models?1shards?1glass1?4md3@ 300caa8c     cg_main.obj
 0002:0000eaa8       ??_C@_0BJ@DPKDMBPE@models?1shards?1glass2?4md3@ 300caaa8     cg_main.obj
 0002:0000eac4       ??_C@_0BI@JEMNJDME@models?1shards?1wood1?4md3@ 300caac4     cg_main.obj
 0002:0000eadc       ??_C@_0BI@BCFJOBGK@models?1shards?1wood2?4md3@ 300caadc     cg_main.obj
 0002:0000eaf4       ??_C@_0BJ@OONCBNFL@models?1shards?1metal1?4md3@ 300caaf4     cg_main.obj
 0002:0000eb10       ??_C@_0BJ@GIEGGPPF@models?1shards?1metal2?4md3@ 300cab10     cg_main.obj
 0002:0000eb2c       ??_C@_0CG@BNGNJNAJ@models?1mapobjects?1debris?1brick0@ 300cab2c     cg_main.obj
 0002:0000eb54       ??_C@_0CG@NGDBEOKM@models?1mapobjects?1debris?1brick0@ 300cab54     cg_main.obj
 0002:0000eb7c       ??_C@_0CG@FAKFDMAC@models?1mapobjects?1debris?1brick0@ 300cab7c     cg_main.obj
 0002:0000eba4       ??_C@_0CI@IECHFLLG@models?1mapobjects?1debris?1person@ 300caba4     cg_main.obj
 0002:0000ebcc       ??_C@_0L@EKMJCHLG@?5?9?5weapons@ 300cabcc     cg_main.obj
 0002:0000ebd8       ??_C@_08FNIFEKAD@?5?9?5items@ 300cabd8     cg_main.obj
 0002:0000ebe4       ??_C@_0BB@LIEJLDGP@grenadeExplosion@ 300cabe4     cg_main.obj
 0002:0000ebf8       ??_C@_0BA@NABNBOMN@rocketExplosion@ 300cabf8     cg_main.obj
 0002:0000ec08       ??_C@_0CB@IPGHFEFO@sound?1weapons?1mg42?1mg42_fire?4wa@ 300cac08     cg_main.obj
 0002:0000ec2c       ??_C@_0CA@MENEJJG@sound?1weapons?1mg42?1mg42_far?4wav@ 300cac2c     cg_main.obj
 0002:0000ec4c       ??_C@_0CB@IOLGMNOO@sound?1weapons?1mg42?1mg42_heat?4wa@ 300cac4c     cg_main.obj
 0002:0000ec70       ??_C@_0CJ@GOOBOBPE@sound?1weapons?1browning?1browning@ 300cac70     cg_main.obj
 0002:0000ec9c       ??_C@_0CI@IEGAPLNN@sound?1weapons?1browning?1browning@ 300cac9c     cg_main.obj
 0002:0000ecc4       ??_C@_0CJ@GPDAHIEE@sound?1weapons?1browning?1browning@ 300cacc4     cg_main.obj
 0002:0000ecf0       ??_C@_0CD@EJIMLHAJ@sound?1weapons?1landmine?1mine_on?4@ 300cacf0     cg_main.obj
 0002:0000ed14       ??_C@_0BG@FPMKOIGF@gfx?1damage?1bullet_mrk@ 300cad14     cg_main.obj
 0002:0000ed2c       ??_C@_0BI@HAJPOEDB@gfx?1damage?1burn_med_mrk@ 300cad2c     cg_main.obj
 0002:0000ed44       ??_C@_0P@OPIEBLEA@markShadowFoot@ 300cad44     cg_main.obj
 0002:0000ed54       ??_C@_0BA@HNHEIILE@markShadowTorso@ 300cad54     cg_main.obj
 0002:0000ed64       ??_C@_04KNLNBPHI@wake@     300cad64     cg_main.obj
 0002:0000ed6c       ??_C@_08GJMCHHBC@wakeAnim@ 300cad6c     cg_main.obj
 0002:0000ed78       ??_C@_0BF@MBAELFOJ@gfx?1damage?1metal_mrk@ 300cad78     cg_main.obj
 0002:0000ed90       ??_C@_0BE@BCCLMIGH@gfx?1damage?1wood_mrk@ 300cad90     cg_main.obj
 0002:0000eda4       ??_C@_0BF@EMBPJBJN@gfx?1damage?1glass_mrk@ 300cada4     cg_main.obj
 0002:0000edbc       ??_C@_0M@NOGECHJB@blood_dot?$CFi@ 300cadbc     cg_main.obj
 0002:0000edc8       ??_C@_0BB@EIKGNIKI@?5?9?5inline?5models@ 300cadc8     cg_main.obj
 0002:0000eddc       ??_C@_0DB@GEAKEHLE@CG_RegisterGraphics?3?5Too?5many?5i@ 300caddc     cg_main.obj
 0002:0000ee10       ??_C@_03JLINDLFM@?$CK?$CFi@ 300cae10     cg_main.obj
 0002:0000ee14       ??_C@_0BB@PDIMFLFM@?5?9?5server?5models@ 300cae14     cg_main.obj
 0002:0000ee28       ??_C@_0EA@KCNCANB@ERROR?3?5CG_RegisterGraphics?3?5fai@ 300cae28     cg_main.obj
 0002:0000ee68       ??_C@_0N@MCGDONKJ@?5?9?5particles@ 300cae68     cg_main.obj
 0002:0000ee78       ??_C@_0L@HGJKCAKC@?5?9?5classes@ 300cae78     cg_main.obj
 0002:0000ee84       ??_C@_0CM@IPMKKHEL@models?1mapobjects?1tanks_sd?1mg42@ 300cae84     cg_main.obj
 0002:0000eeb0       ??_C@_0CI@MPANABFO@models?1mapobjects?1tanks_sd?1mg42@ 300caeb0     cg_main.obj
 0002:0000eed8       ??_C@_0CE@JBINGABK@models?1mapobjects?1tanks_sd?1mg42@ 300caed8     cg_main.obj
 0002:0000eefc       ??_C@_0CM@LANBPGNK@models?1multiplayer?1browning?1thi@ 300caefc     cg_main.obj
 0002:0000ef28       ??_C@_0CM@FCCPKIGH@models?1multiplayer?1browning?1tan@ 300caf28     cg_main.obj
 0002:0000ef54       ??_C@_0BD@JEKHCPFK@sprites?1voiceMedic@ 300caf54     cg_main.obj
 0002:0000ef68       ??_C@_0BF@PLFIBJMC@gfx?1limbo?1medal_back@ 300caf68     cg_main.obj
 0002:0000ef80       ??_C@_0BG@MBDBMNHB@gfx?1limbo?1number_roll@ 300caf80     cg_main.obj
 0002:0000ef98       ??_C@_0BG@FBDPMDK@gfx?1limbo?1number_back@ 300caf98     cg_main.obj
 0002:0000efb0       ??_C@_0BF@LHHJAFHB@gfx?1limbo?1skill_roll@ 300cafb0     cg_main.obj
 0002:0000efc8       ??_C@_0BF@HDFLDEDK@gfx?1limbo?1skill_back@ 300cafc8     cg_main.obj
 0002:0000efe0       ??_C@_0BG@GGCPBJHG@gfx?1limbo?1redlight_on@ 300cafe0     cg_main.obj
 0002:0000eff8       ??_C@_0BI@NEBFKBHO@gfx?1limbo?1redlight_on02@ 300caff8     cg_main.obj
 0002:0000f010       ??_C@_0BH@IELEGGIJ@gfx?1limbo?1redlight_off@ 300cb010     cg_main.obj
 0002:0000f028       ??_C@_0BH@DJLHEJAE@gfx?1limbo?1but_weap_off@ 300cb028     cg_main.obj
 0002:0000f040       ??_C@_0BG@NIPCIIIG@gfx?1limbo?1but_weap_on@ 300cb040     cg_main.obj
 0002:0000f058       ??_C@_0BE@EKFLJDDE@gfx?1limbo?1weap_card@ 300cb058     cg_main.obj
 0002:0000f06c       ??_C@_0BF@CCIHLEPP@gfx?1limbo?1butsur_hor@ 300cb06c     cg_main.obj
 0002:0000f084       ??_C@_0BG@NGBOBNEM@gfx?1limbo?1butsur_vert@ 300cb084     cg_main.obj
 0002:0000f09c       ??_C@_0BG@KBIOBPAB@gfx?1limbo?1butsur_corn@ 300cb09c     cg_main.obj
 0002:0000f0b4       ??_C@_0BF@OGLBPOLK@gfx?1limbo?1outofstock@ 300cb0b4     cg_main.obj
 0002:0000f0cc       ??_C@_0BI@EFPEMOHO@gfx?1limbo?1skill_back_on@ 300cb0cc     cg_main.obj
 0002:0000f0e4       ??_C@_0BJ@IKEMDFGM@gfx?1limbo?1skill_back_off@ 300cb0e4     cg_main.obj
 0002:0000f100       ??_C@_0BM@GKMIJODK@gfx?1limbo?1skill_4pieces_off@ 300cb100     cg_main.obj
 0002:0000f11c       ??_C@_0BL@BELGIGHE@gfx?1limbo?1skill_4pieces_on@ 300cb11c     cg_main.obj
 0002:0000f138       ??_C@_0BJ@FBJONHEP@gfx?1limbo?1skill_engineer@ 300cb138     cg_main.obj
 0002:0000f154       ??_C@_0BI@OIHMNOGE@gfx?1limbo?1skill_soldier@ 300cb154     cg_main.obj
 0002:0000f16c       ??_C@_0BH@OPOBPOJD@gfx?1limbo?1skill_covops@ 300cb16c     cg_main.obj
 0002:0000f184       ??_C@_0BJ@IDHPMKBG@gfx?1limbo?1skill_fieldops@ 300cb184     cg_main.obj
 0002:0000f1a0       ??_C@_0BG@BCCKECCA@gfx?1limbo?1skill_medic@ 300cb1a0     cg_main.obj
 0002:0000f1b8       ??_C@_0BG@MOANNMFG@gfx?1limbo?1but_team_on@ 300cb1b8     cg_main.obj
 0002:0000f1d0       ??_C@_0BH@LPHCGEIE@gfx?1limbo?1but_team_off@ 300cb1d0     cg_main.obj
 0002:0000f1e8       ??_C@_0BK@OLBBFCCL@gfx?1limbo?1but_team_allied@ 300cb1e8     cg_main.obj
 0002:0000f204       ??_C@_0BI@OKNCMGJI@gfx?1limbo?1but_team_axis@ 300cb204     cg_main.obj
 0002:0000f21c       ??_C@_0BI@HGJOMBKA@gfx?1limbo?1but_team_spec@ 300cb21c     cg_main.obj
 0002:0000f234       ??_C@_0BD@JLMGNICA@gfx?1limbo?1cc_blend@ 300cb234     cg_main.obj
 0002:0000f248       ??_C@_0BF@NDPKPMGB@gfx?1limbo?1weap_blend@ 300cb248     cg_main.obj
 0002:0000f260       ??_C@_0BI@PNFOLIPG@gfx?1limbo?1number_border@ 300cb260     cg_main.obj
 0002:0000f278       ??_C@_0BB@CFFEDHGP@gfx?1hud?1ic_power@ 300cb278     cg_main.obj
 0002:0000f28c       ??_C@_0BD@ONMGPOPB@gfx?1hud?1ic_stamina@ 300cb28c     cg_main.obj
 0002:0000f2a0       ??_C@_0BC@BDIDGJIE@gfx?1hud?1ic_health@ 300cb2a0     cg_main.obj
 0002:0000f2b4       ??_C@_0BH@JLIMEIOI@gfx?1limbo?1weaponcard01@ 300cb2b4     cg_main.obj
 0002:0000f2cc       ??_C@_0BH@LAKBBLCL@gfx?1limbo?1weaponcard02@ 300cb2cc     cg_main.obj
 0002:0000f2e4       ??_C@_0BL@KGOJAJAD@gfx?1limbo?1weap_dnarrow?4tga@ 300cb2e4     cg_main.obj
 0002:0000f300       ??_C@_0BO@KEKMDGNF@gfx?1limbo?1objective_back_axis@ 300cb300     cg_main.obj
 0002:0000f320       ??_C@_0CA@BDHLNPAB@gfx?1limbo?1objective_back_allied@ 300cb320     cg_main.obj
 0002:0000f340       ??_C@_0BJ@CDLAMHPF@gfx?1limbo?1objective_back@ 300cb340     cg_main.obj
 0002:0000f35c       ??_C@_0BG@EKLPKGDN@gfx?1limbo?1but_play_on@ 300cb35c     cg_main.obj
 0002:0000f374       ??_C@_0BH@GFJGGOCO@gfx?1limbo?1but_play_off@ 300cb374     cg_main.obj
 0002:0000f38c       ??_C@_0BG@KHBLHAHG@gfx?1limbo?1but_stop_on@ 300cb38c     cg_main.obj
 0002:0000f3a4       ??_C@_0BH@IEHFFCOA@gfx?1limbo?1but_stop_off@ 300cb3a4     cg_main.obj
 0002:0000f3bc       ??_C@_0BE@PJBDIBF@gfx?1limbo?1spectator@ 300cb3bc     cg_main.obj
 0002:0000f3d0       ??_C@_0BG@KOBAGKDG@ui?1assets?1radio_tower@ 300cb3d0     cg_main.obj
 0002:0000f3e8       ??_C@_0BE@NNADOHBK@ui?1assets?13_cursor3@ 300cb3e8     cg_main.obj
 0002:0000f3fc       ??_C@_0CN@CJKFADN@models?1players?1hud?1damagedskins@ 300cb3fc     cg_main.obj
 0002:0000f42c       ??_C@_0CN@DDHCEKKA@models?1players?1hud?1damagedskins@ 300cb42c     cg_main.obj
 0002:0000f45c       ??_C@_0CN@JFAFEBBE@models?1players?1hud?1damagedskins@ 300cb45c     cg_main.obj
 0002:0000f48c       ??_C@_0CN@FAKCHPJK@models?1players?1hud?1damagedskins@ 300cb48c     cg_main.obj
 0002:0000f4bc       ??_C@_0BO@LEOMCOJG@icons?1iconw_browning_1_select@ 300cb4bc     cg_main.obj
 0002:0000f4dc       ??_C@_0BE@MOMMOOIL@gfx?1limbo?1flag_axis@ 300cb4dc     cg_main.obj
 0002:0000f4f0       ??_C@_0BG@LPELJPFN@gfx?1limbo?1flag_allied@ 300cb4f0     cg_main.obj
 0002:0000f508       ??_C@_0L@GLPNNMED@gfx?12d?1net@ 300cb508     cg_main.obj
 0002:0000f514       ??_C@_0BL@PAJDIJAE@textures?1sfx?1transgunWhite@ 300cb514     cg_main.obj
 0002:0000f530       ??_C@_0BJ@MOIGJBKI@textures?1sfx?1transgunRed@ 300cb530     cg_main.obj
 0002:0000f54c       ??_C@_0BL@GNNDKLII@textures?1sfx?1transgunGreen@ 300cb54c     cg_main.obj
 0002:0000f568       ??_C@_0BK@MAEFCDOG@textures?1sfx?1transgunBlue@ 300cb568     cg_main.obj
 0002:0000f584       ??_C@_0BM@FPKBBEFC@gfx?1hud?1fireteam?1fireteam?$CFi@ 300cb584     cg_main.obj
 0002:0000f5a0       ??_C@_0BD@JBHGNBNP@?5?9?5game?5media?5done@ 300cb5a0     cg_main.obj
 0002:0000f5b4       ??_C@_0BP@KAAOENNK@CG_ConfigString?3?5bad?5index?3?5?$CFi@ 300cb5b4     cg_main.obj
 0002:0000f5d4       ??_C@_04EFPADHIC@font@     300cb5d4     cg_main.obj
 0002:0000f5dc       ??_C@_0M@KMLBJNNP@gradientbar@ 300cb5dc     cg_main.obj
 0002:0000f5e8       ??_C@_0P@HOFNPEDB@menuEnterSound@ 300cb5e8     cg_main.obj
 0002:0000f5f8       ??_C@_0O@CCIDDBMD@menuExitSound@ 300cb5f8     cg_main.obj
 0002:0000f608       ??_C@_0P@IGAMHAPB@itemFocusSound@ 300cb608     cg_main.obj
 0002:0000f618       ??_C@_0O@JDBLIAHI@menuBuzzSound@ 300cb618     cg_main.obj
 0002:0000f628       ??_C@_06CHDIMBDP@cursor@   300cb628     cg_main.obj
 0002:0000f630       ??_C@_09DPBPOIDH@fadeClamp@ 300cb630     cg_main.obj
 0002:0000f63c       ??_C@_09LGBLEGN@fadeCycle@ 300cb63c     cg_main.obj
 0002:0000f648       ??_C@_0L@JDDHILPC@fadeAmount@ 300cb648     cg_main.obj
 0002:0000f654       ??_C@_07OPNIPHMJ@shadowX@  300cb654     cg_main.obj
 0002:0000f65c       ??_C@_07PGMDMGII@shadowY@  300cb65c     cg_main.obj
 0002:0000f664       ??_C@_0M@JPJLLJDB@shadowColor@ 300cb664     cg_main.obj
 0002:0000f670       ??_C@_0BA@HHBGDHLB@ui?1testhud?4menu@ 300cb670     cg_main.obj
 0002:0000f680       ??_C@_0P@JJKHBDCP@assetGlobalDef@ 300cb680     cg_main.obj
 0002:0000f690       ??_C@_07MCIOFCJF@menudef@  300cb690     cg_main.obj
 0002:0000f698       ??_C@_0CK@EJKAPAFF@?$FO3menu?5file?5not?5found?3?5?$CFs?0?5usin@ 300cb698     cg_main.obj
 0002:0000f6c4       ??_C@_0L@MOJBPIBA@ui?1hud?4txt@ 300cb6c4     cg_main.obj
 0002:0000f6d0       ??_C@_0EA@NOKNMOHD@?$FO1default?5menu?5file?5not?5found?3?5@ 300cb6d0     cg_main.obj
 0002:0000f710       ??_C@_0DD@JILOANNP@?$FO1menu?5file?5too?5large?3?5?$CFs?5is?5?$CFi@ 300cb710     cg_main.obj
 0002:0000f744       ??_C@_08GJJFPOLP@loadmenu@ 300cb744     cg_main.obj
 0002:0000f750       ??_C@_0CG@GMHEABBC@UI?5menu?5load?5time?5?$DN?5?$CFd?5milli?5se@ 300cb750     cg_main.obj
 0002:0000f778       ??_C@_03NOAKOCEN@?$CF4i@   300cb778     cg_main.obj
 0002:0000f77c       ??_C@_0L@FJAFPCBC@connecting@ 300cb77c     cg_main.obj
 0002:0000f788       ??_C@_0BL@LDKEDAHM@ui?1assets?1gradientbar2?4tga@ 300cb788     cg_main.obj
 0002:0000f7a4       ??_C@_0BB@OMABGHIG@menu?1art?1fx_base@ 300cb7a4     cg_main.obj
 0002:0000f7b8       ??_C@_0BA@NNOEOMD@menu?1art?1fx_red@ 300cb7b8     cg_main.obj
 0002:0000f7c8       ??_C@_0BA@BCAGEDMK@menu?1art?1fx_yel@ 300cb7c8     cg_main.obj
 0002:0000f7d8       ??_C@_0BA@IJJPLEBB@menu?1art?1fx_grn@ 300cb7d8     cg_main.obj
 0002:0000f7e8       ??_C@_0BB@ECKDFOKE@menu?1art?1fx_teal@ 300cb7e8     cg_main.obj
 0002:0000f7fc       ??_C@_0BB@BKOGMDOJ@menu?1art?1fx_blue@ 300cb7fc     cg_main.obj
 0002:0000f810       ??_C@_0BB@LIJKJPJD@menu?1art?1fx_cyan@ 300cb810     cg_main.obj
 0002:0000f824       ??_C@_0BC@GAPGDHHF@menu?1art?1fx_white@ 300cb824     cg_main.obj
 0002:0000f838       ??_C@_0BI@KPCDEFNA@ui?1assets?1scrollbar?4tga@ 300cb838     cg_main.obj
 0002:0000f850       ??_C@_0CE@NANBDJEF@ui?1assets?1scrollbar_arrow_dwn_a@ 300cb850     cg_main.obj
 0002:0000f874       ??_C@_0CD@DMKJOOMK@ui?1assets?1scrollbar_arrow_up_a?4@ 300cb874     cg_main.obj
 0002:0000f898       ??_C@_0CD@GGHBFGAG@ui?1assets?1scrollbar_arrow_left?4@ 300cb898     cg_main.obj
 0002:0000f8bc       ??_C@_0CE@LPPDECNG@ui?1assets?1scrollbar_arrow_right@ 300cb8bc     cg_main.obj
 0002:0000f8e0       ??_C@_0BO@POOFAODB@ui?1assets?1scrollbar_thumb?4tga@ 300cb8e0     cg_main.obj
 0002:0000f900       ??_C@_0BG@JHGOBLH@ui?1assets?1slider2?4tga@ 300cb900     cg_main.obj
 0002:0000f918       ??_C@_0BL@BKEMOAEL@ui?1assets?1sliderbutt_1?4tga@ 300cb918     cg_main.obj
 0002:0000f934       ??_C@_0BA@NHGEOFCN@gfx?12d?1hudchars@ 300cb934     cg_main.obj
 0002:0000f944       ??_C@_0BI@JNLIGCIJ@menu?1art?1font1_prop?4tga@ 300cb944     cg_main.obj
 0002:0000f95c       ??_C@_0BM@PPJDNIIP@menu?1art?1font1_prop_glo?4tga@ 300cb95c     cg_main.obj
 0002:0000f978       ??_C@_0BI@EFKAEII@menu?1art?1font2_prop?4tga@ 300cb978     cg_main.obj
 0002:0000f990       ??_C@_0M@KMANJOPM@autoexec_?$CFs@ 300cb990     cg_main.obj
 0002:0000f99c       ??_C@_0BB@BHIIEMFI@autoexec_default@ 300cb99c     cg_main.obj
 0002:0000f9b0       ??_C@_0BA@EMBNJJHJ@Enemy?5Territory@ 300cb9b0     cg_main.obj
 0002:0000f9c0       ??_C@_0CF@BKJOONEF@Client?1Server?5game?5mismatch?3?5?8?$CF@ 300cb9c0     cg_main.obj
 0002:0000f9e8       ??_C@_0O@IKDCOHPA@collision?5map@ 300cb9e8     cg_main.obj
 0002:0000f9f8       ??_C@_06OHLGPBPO@sounds@   300cb9f8     cg_main.obj
 0002:0000fa00       ??_C@_08EIINAAAI@graphics@ 300cba00     cg_main.obj
 0002:0000fa0c       ??_C@_0M@OGCLGJNB@flamechunks@ 300cba0c     cg_main.obj
 0002:0000fa18       ??_C@_07HKJFGNHJ@clients@  300cba18     cg_main.obj
 0002:0000fa20       ??_C@_0BC@DAKGNCDN@?$FO2Loaded?5HUD?3?5?$CFs?6@ 300cba20     cg_main.obj
 0002:0000fa34       ??_C@_0CI@LOEEADFA@?$FO2No?5HUD?5specified?0?5default?5HUD@ 300cba34     cg_main.obj
 0002:0000fa5c       ??_C@_0CB@NMPEEAPM@?$FO1ERROR?3?5unable?5to?5load?5any?5HUD@ 300cba5c     cg_main.obj
 0002:0000fa80       ??_C@_06EDCEMKKP@?$CFs?4cfg@ 300cba80     cg_main.obj
 0002:0000fa88       ??_C@_0N@HOKLHCDP@exec?5?$CFs?4cfg?6@ 300cba88     cg_main.obj
 0002:0000fa98       __real@407e000000000000    300cba98     cg_main.obj
 0002:0000faa0       __real@4084000000000000    300cbaa0     cg_main.obj
 0002:0000fab0       __xmm@00000002000000020000000200000002 300cbab0     cg_main.obj
 0002:0000fac0       ??_C@_0BG@BJEIGKLP@?$FO1file?5not?5found?3?5?$CFs?6@ 300cbac0     cg_missionbriefing.obj
 0002:0000fad8       ??_C@_0CE@JLCOIDNB@?$FO1unexpected?5token?5?8?$CFs?8?5inside?3@ 300cbad8     cg_missionbriefing.obj
 0002:0000fafc       ??_C@_09PJCCCILH@shortname@ 300cbafc     cg_missionbriefing.obj
 0002:0000fb08       ??_C@_0CF@HOPIBHEP@?$FO1unexpected?5end?5of?5file?5inside@ 300cbb08     cg_missionbriefing.obj
 0002:0000fb30       ??_C@_04CJGEDOF@next@      300cbb30     cg_missionbriefing.obj
 0002:0000fb38       ??_C@_05NGOMGBBD@image@    300cbb38     cg_missionbriefing.obj
 0002:0000fb40       ??_C@_0M@PPJNHBMP@description@ 300cbb40     cg_missionbriefing.obj
 0002:0000fb4c       ??_C@_04ILAGGJBN@maps@     300cbb4c     cg_missionbriefing.obj
 0002:0000fb54       ??_C@_0CL@EJLMOGOO@?$FO1too?5many?5maps?5for?5a?5campaign?5@ 300cbb54     cg_missionbriefing.obj
 0002:0000fb80       ??_C@_05CIBCEEFB@maptc@    300cbb80     cg_missionbriefing.obj
 0002:0000fb88       ??_C@_0L@GJJFINGI@objectives@ 300cbb88     cg_missionbriefing.obj
 0002:0000fb94       ??_C@_04GPMDFGEJ@type@     300cbb94     cg_missionbriefing.obj
 0002:0000fb9c       ??_C@_08JJAPLNHH@longname@ 300cbb9c     cg_missionbriefing.obj
 0002:0000fba8       ??_C@_03HBNNNHNM@map@      300cbba8     cg_missionbriefing.obj
 0002:0000fbac       ??_C@_09OACHOJPC@Timelimit@ 300cbbac     cg_missionbriefing.obj
 0002:0000fbb8       ??_C@_0BA@LHGEJANH@AxisRespawnTime@ 300cbbb8     cg_missionbriefing.obj
 0002:0000fbc8       ??_C@_0BC@IPILKBDN@AlliedRespawnTime@ 300cbbc8     cg_missionbriefing.obj
 0002:0000fbdc       ??_C@_0M@MNBCHEID@lmsbriefing@ 300cbbdc     cg_missionbriefing.obj
 0002:0000fbe8       ??_C@_08PLKIGCGP@briefing@ 300cbbe8     cg_missionbriefing.obj
 0002:0000fbf4       ??_C@_0O@BCGNL@alliedwintext@ 300cbbf4     cg_missionbriefing.obj
 0002:0000fc04       ??_C@_0M@MLOEBFK@axiswintext@ 300cbc04     cg_missionbriefing.obj
 0002:0000fc10       ??_C@_0O@ENEJOCJO@mapposition_x@ 300cbc10     cg_missionbriefing.obj
 0002:0000fc20       ??_C@_0O@FEFCNDNP@mapposition_y@ 300cbc20     cg_missionbriefing.obj
 0002:0000fc30       ??_C@_09IBJHOELC@?4campaign@ 300cbc30     cg_missionbriefing.obj
 0002:0000fc3c       ??_C@_07OMEBBDEO@scripts@  300cbc3c     cg_missionbriefing.obj
 0002:0000fc44       ??_C@_0DN@JJEKNFMG@?$FO3Warning?3?5number?5of?5campaigns?5@ 300cbc44     cg_missionbriefing.obj
 0002:0000fc84       ??_C@_08IDJEBFOJ@scripts?1@ 300cbc84     cg_missionbriefing.obj
 0002:0000fc90       ??_C@_02DOECAPGL@?$FO?$DP@ 300cbc90     cg_multiview.obj
 0002:0000fc94       ??_C@_02GIBIKION@?$FO9@    300cbc94     cg_multiview.obj
 0002:0000fc98       ??_C@_02NNLGNGKA@?$FO4@    300cbc98     cg_multiview.obj
 0002:0000fc9c       ??_C@_02CHFJDOCK@?$FO?$DO@ 300cbc9c     cg_multiview.obj
 0002:0000fca0       ??_C@_02BFGPFMKI@?$FO?$DM@ 300cbca0     cg_multiview.obj
 0002:0000fca4       ??_C@_02JCPHEAGH@?$FO3@    300cbca4     cg_multiview.obj
 0002:0000fca8       ??_C@_02MHEGNOJ@?$FO?$DN@  300cbca8     cg_multiview.obj
 0002:0000fcac       ??_C@_09KIBENMPH@mvadd?5?$CFd?6@ 300cbcac     cg_multiview.obj
 0002:0000fcb8       ??_C@_09KKNAFLEK@mvdel?5?$CFd?6@ 300cbcb8     cg_multiview.obj
 0002:0000fcc4       ??_C@_07BIBNJPCK@mvnone?6@ 300cbcc4     cg_multiview.obj
 0002:0000fccc       ??_C@_06DLAJCPPA@mvall?6@  300cbccc     cg_multiview.obj
 0002:0000fcd4       ??_C@_03EBFGNJEC@?$FO1S@   300cbcd4     cg_multiview.obj
 0002:0000fcd8       ??_C@_03JBJKJKCP@?$FO7M@   300cbcd8     cg_multiview.obj
 0002:0000fcdc       ??_C@_03FKMHMEEJ@?$FO5E@   300cbcdc     cg_multiview.obj
 0002:0000fce0       ??_C@_03HEKFIBAP@?$FO2F@   300cbce0     cg_multiview.obj
 0002:0000fce4       ??_C@_03IBABPHN@?$FO3C@    300cbce4     cg_multiview.obj
 0002:0000fce8       ??_C@_06KHGINCMP@?$CFs?$FO7?$CFd@ 300cbce8     cg_multiview.obj
 0002:0000fcf0       ??_C@_09NJAEOMFO@?$CFd?$FO1?1?$FO7?$CFd@ 300cbcf0     cg_multiview.obj
 0002:0000fcfc       ??_C@_09GBEDAMDA@?$FO2S?$FO7?$CFd?$CF?$CF@ 300cbcfc     cg_multiview.obj
 0002:0000fd08       ??_C@_09CEHFABNO@?$FO1C?$FO7?$CFd?$CF?$CF@ 300cbd08     cg_multiview.obj
 0002:0000fd14       ??_C@_0L@DOMPNDDD@?$FO3W?3?$FO7?$CFd?$CF?$CF@ 300cbd14     cg_multiview.obj
 0002:0000fd20       ??_C@_07KOEKEINJ@?$CFs?$CFs?$CF2d@ 300cbd20     cg_multiview.obj
 0002:0000fd28       ??_C@_05BGLMJAJH@?$CFs?$CF2d@ 300cbd28     cg_multiview.obj
 0002:0000fd30       ??_C@_0BH@IDGNCCEO@ui?1assets?1ger_flag?4tga@ 300cbd30     cg_multiview.obj
 0002:0000fd48       ??_C@_0BH@IDAHNLAJ@ui?1assets?1usa_flag?4tga@ 300cbd48     cg_multiview.obj
 0002:0000fd60       __real@41500000            300cbd60     cg_multiview.obj
 0002:0000fd64       __real@41e80000            300cbd64     cg_multiview.obj
 0002:0000fd68       __real@424c0000            300cbd68     cg_multiview.obj
 0002:0000fd6c       __real@425c0000            300cbd6c     cg_multiview.obj
 0002:0000fd70       __real@43120000            300cbd70     cg_multiview.obj
 0002:0000fd74       __real@43310000            300cbd74     cg_multiview.obj
 0002:0000fd78       __real@43320000            300cbd78     cg_multiview.obj
 0002:0000fd7c       __real@433c0000            300cbd7c     cg_multiview.obj
 0002:0000fd80       __real@43550000            300cbd80     cg_multiview.obj
 0002:0000fd84       __real@43620000            300cbd84     cg_multiview.obj
 0002:0000fd88       __real@436a0000            300cbd88     cg_multiview.obj
 0002:0000fd8c       __real@436f0000            300cbd8c     cg_multiview.obj
 0002:0000fd90       __real@43720000            300cbd90     cg_multiview.obj
 0002:0000fd94       __real@43890000            300cbd94     cg_multiview.obj
 0002:0000fd98       __real@439f8000            300cbd98     cg_multiview.obj
 0002:0000fd9c       __real@43ae0000            300cbd9c     cg_multiview.obj
 0002:0000fda0       __real@43be0000            300cbda0     cg_multiview.obj
 0002:0000fda4       __real@43cb0000            300cbda4     cg_multiview.obj
 0002:0000fda8       __real@43e20000            300cbda8     cg_multiview.obj
 0002:0000fdac       __real@440c0000            300cbdac     cg_multiview.obj
 0002:0000fdb0       __real@448e2c29            300cbdb0     cg_multiview.obj
 0002:0000fdb4       ??_C@_0BE@HPGFAKLO@cl_bypassMouseInput@ 300cbdb4     cg_newDraw.obj
 0002:0000fdc8       ??_C@_0BE@POFFIAFP@cl_bypassmouseinput@ 300cbdc8     cg_newDraw.obj
 0002:0000fde0       __xmm@3e4ccccd00000000000000003f800000 300cbde0     cg_newDraw.obj
 0002:0000fdf0       __xmm@3f00000000000000000000003f800000 300cbdf0     cg_newDraw.obj
 0002:0000fe00       __xmm@3f000000000000003f80000000000000 300cbe00     cg_newDraw.obj
 0002:0000fe10       ??_C@_01KMDKNFGN@?1@       300cbe10     cg_osfile.obj
 0002:0000fe14       ??_C@_0CP@OPBAPJGL@CG_WipeDirectory?3?5failed?5to?5ope@ 300cbe14     cg_osfile.obj
 0002:0000fe44       ??_C@_02DJGKEECL@?4?4@     300cbe44     cg_osfile.obj
 0002:0000fe48       ??_C@_0DB@MAECDHAE@CG_WriteDataToFile?3?5failed?5to?5o@ 300cbe48     cg_osfile.obj
 0002:0000fe7c       ??_C@_0DK@GODBOPBI@CG_WriteDataToFile?3?5failed?5to?5w@ 300cbe7c     cg_osfile.obj
 0002:0000feb8       ??_C@_0DD@FEHHHLDL@CG_WriteDataToFile?3?5faile?5to?5cl@ 300cbeb8     cg_osfile.obj
 0002:0000feec       ??_C@_0DC@NJPAMKHM@CG_ReadDataFromFile?3?5failed?5to?5@ 300cbeec     cg_osfile.obj
 0002:0000ff20       ??_C@_0EE@LMPHNGJK@CG_ReadDataFromFile?3?5failed?5to?5@ 300cbf20     cg_osfile.obj
 0002:0000ff64       ??_C@_0DE@HAJNBPNG@CG_ReadDataFromFile?3?5faile?5to?5c@ 300cbf64     cg_osfile.obj
 0002:0000ff98       ??_C@_07KKEPOJHD@twiltb2@  300cbf98     cg_particles.obj
 0002:0000ffa0       ??_C@_0BA@GIBCAHCF@blacksmokeanimc@ 300cbfa0     cg_particles.obj
 0002:0000ffb0       ??_C@_04MDMPPDAB@?$CFs?$CFi@ 300cbfb0     cg_particles.obj
 0002:0000ffb8       ??_C@_0CI@CKGHJCDF@CG_ParticleSnowFlurry?5pshader?5?$DN@ 300cbfb8     cg_particles.obj
 0002:0000ffe0       ??_C@_0CC@DIFPPKPM@CG_ParticleSnow?5pshader?5?$DN?$DN?5ZERO@ 300cbfe0     cg_particles.obj
 0002:00010004       ??_C@_0BL@MLDGCJII@CG_ParticleSmoke?5?$DN?$DN?5ZERO?$CB?6@ 300cc004     cg_particles.obj
 0002:00010020       ??_C@_0DE@LHPJKLJP@CG_ParticleExplosion?3?5unknown?5a@ 300cc020     cg_particles.obj
 0002:00010054       ??_C@_0CN@HAOPCKBM@CG_ParticleImpactSmokePuff?5psha@ 300cc054     cg_particles.obj
 0002:00010084       ??_C@_0CE@FDMOADGI@CG_Particle_Bleed?5pshader?5?$DN?$DN?5ZE@ 300cc084     cg_particles.obj
 0002:000100a8       ??_C@_0CC@KJEJNONH@CG_Particle_OilParticle?5?$DN?$DN?5ZERO@ 300cc0a8     cg_particles.obj
 0002:000100cc       ??_C@_0BP@LFCJGJJN@CG_Particle_OilSlick?5?$DN?$DN?5ZERO?$CB?6@ 300cc0cc     cg_particles.obj
 0002:000100ec       ??_C@_0BL@DDKPPMGF@CG_OilSlickRevove?5NULL?5id?6@ 300cc0ec     cg_particles.obj
 0002:00010108       __real@38d1b717            300cc108     cg_particles.obj
 0002:0001010c       __real@3e428f5c            300cc10c     cg_particles.obj
 0002:00010110       __real@3e6147ae            300cc110     cg_particles.obj
 0002:00010114       __real@3e6b851f            300cc114     cg_particles.obj
 0002:00010118       __real@3e8f5c29            300cc118     cg_particles.obj
 0002:0001011c       __real@3ed70a3d            300cc11c     cg_particles.obj
 0002:00010120       __real@3f7ff972            300cc120     cg_particles.obj
 0002:00010128       __real@3fe199999999999a    300cc128     cg_particles.obj
 0002:00010130       __real@3ff4000000000000    300cc130     cg_particles.obj
 0002:00010138       __real@3ff6a09e60000000    300cc138     cg_particles.obj
 0002:00010140       __real@4018000000000000    300cc140     cg_particles.obj
 0002:00010148       __real@402e000000000000    300cc148     cg_particles.obj
 0002:00010150       __real@4050000000000000    300cc150     cg_particles.obj
 0002:00010158       __real@40ab580000000000    300cc158     cg_particles.obj
 0002:00010160       __real@49800000            300cc160     cg_particles.obj
 0002:00010164       ??_C@_05JJPOFMKE@MP?540@   300cc164     cg_players.obj
 0002:0001016c       ??_C@_08DJCCPJKA@THOMPSON@ 300cc16c     cg_players.obj
 0002:00010178       ??_C@_0M@ONMDACPO@PANZERFAUST@ 300cc178     cg_players.obj
 0002:00010184       ??_C@_0N@KFGGOGKN@FLAMETHROWER@ 300cc184     cg_players.obj
 0002:00010194       ??_C@_09HNMPLGFI@M1?5GARAND@ 300cc194     cg_players.obj
 0002:000101a0       ??_C@_0M@IADHGNGN@MOBILE?5MG42@ 300cc1a0     cg_players.obj
 0002:000101ac       ??_C@_06EGCIFAPO@MORTAR@   300cc1ac     cg_players.obj
 0002:000101b4       ??_C@_05DOELMEIJ@LUGER@    300cc1b4     cg_players.obj
 0002:000101bc       ??_C@_0N@KAMKFDKP@AKIMBO?5COLTS@ 300cc1bc     cg_players.obj
 0002:000101cc       ??_C@_0O@BNONEAHF@AKIMBO?5LUGERS@ 300cc1cc     cg_players.obj
 0002:000101dc       ??_C@_01EFFIKLCJ@n@        300cc1dc     cg_players.obj
 0002:000101e0       ??_C@_05ODMCMJAJ@skill@    300cc1e0     cg_players.obj
 0002:000101e8       ??_C@_01PFHFFBPC@t@        300cc1e8     cg_players.obj
 0002:000101ec       ??_C@_02PKDCMMN@lc@        300cc1ec     cg_players.obj
 0002:000101f0       ??_C@_02CKCDDIBB@tv@       300cc1f0     cg_players.obj
 0002:000101f4       ??_C@_02BINJMIIA@sc@       300cc1f4     cg_players.obj
 0002:000101f8       ??_C@_01INIBCBCB@f@        300cc1f8     cg_players.obj
 0002:000101fc       ??_C@_02OHALLCDL@ch@       300cc1fc     cg_players.obj
 0002:00010200       ??_C@_01LKDEMHDF@s@        300cc200     cg_players.obj
 0002:00010204       ??_C@_02LEBOADDI@dn@       300cc204     cg_players.obj
 0002:00010208       ??_C@_02FCGJFOGF@dr@       300cc208     cg_players.obj
 0002:0001020c       ??_C@_02CBANPLJI@lw@       300cc20c     cg_players.obj
 0002:00010210       ??_C@_02DGHHBPNF@sw@       300cc210     cg_players.obj
 0002:00010214       ??_C@_02BHMOPGG@ct@        300cc214     cg_players.obj
 0002:00010218       ??_C@_0BF@INJBIDGO@Promoted?5to?5rank?5?$CFs?$CB@ 300cc218     cg_players.obj
 0002:00010230       ??_C@_0CA@HLBANGKJ@Increased?5?$CFs?5skill?5to?5level?5?$CFi?$CB@ 300cc230     cg_players.obj
 0002:00010250       ??_C@_0N@LACPBCAO@skrwrd?5?$CFi?5?$CFi@ 300cc250     cg_players.obj
 0002:00010260       ??_C@_0BP@OOFAKGNN@You?5have?5been?5rewarded?5with?5?$CFs@ 300cc260     cg_players.obj
 0002:00010280       ??_C@_09NKLPMEMA@voteFlags@ 300cc280     cg_players.obj
 0002:0001028c       ??_C@_0BA@JEMBFLOI@cg_ui_voteFlags@ 300cc28c     cg_players.obj
 0002:0001029c       ??_C@_0DK@OGBEOFFN@?$FO3?$CK?$CK?$CK?5You?5have?5been?5stripped?5of@ 300cc29c     cg_players.obj
 0002:000102d8       ??_C@_04CLKJCJJE@rcon@     300cc2d8     cg_players.obj
 0002:000102e0       ??_C@_07LFPJDPHN@referee@  300cc2e0     cg_players.obj
 0002:000102e8       ??_C@_0DA@ILOOHCKI@?$FO2?$CK?$CK?$CK?5You?5have?5been?5authorized?5@ 300cc2e8     cg_players.obj
 0002:00010318       ??_C@_0DL@JODFKAOI@Type?3?5?$FO3ref?$FO7?5?$CIby?5itself?$CJ?5for?5a@ 300cc318     cg_players.obj
 0002:00010354       ??_C@_0DD@MKKOIFIN@CG_SetLerpFrameAnimation?3?5Bad?5a@ 300cc354     cg_players.obj
 0002:00010388       ??_C@_0O@PANPLFGH@Anim?3?5?$CFi?0?5?$CFs?6@ 300cc388     cg_players.obj
 0002:00010398       ??_C@_0BF@IBAKKNBL@Clamp?5lf?9?$DOframeTime?6@ 300cc398     cg_players.obj
 0002:000103b0       ??_C@_0DH@BOCJJPIN@CG_SetLerpFrameAnimationRate?3?5B@ 300cc3b0     cg_players.obj
 0002:000103e8       ??_C@_06HLPIKOFJ@strafe@   300cc3e8     cg_players.obj
 0002:000103f0       ??_C@_0L@MKEFNAGA@?$CI?$CFf?5?$CFf?5?$CFf?$CJ@ 300cc3f0     cg_players.obj
 0002:000103fc       ??_C@_0L@FGMMEJDC@tag_weapon@ 300cc3fc     cg_players.obj
 0002:00010408       ??_C@_0L@DFCFAAMB@tag_bright@ 300cc408     cg_players.obj
 0002:00010414       ??_C@_09LFHDCPDM@tag_bleft@ 300cc414     cg_players.obj
 0002:00010420       ??_C@_09BJAHCGKI@tag_ubelt@ 300cc420     cg_players.obj
 0002:0001042c       ??_C@_08LHMBGCLK@tag_back@ 300cc42c     cg_players.obj
 0002:00010438       ??_C@_0M@CFPBMJLI@tag_weapon2@ 300cc438     cg_players.obj
 0002:00010444       ??_C@_0BN@FKDGBGEH@?$CFi?5ResetPlayerEntity?5yaw?$DN?$CFi?6@ 300cc444     cg_players.obj
 0002:00010464       ??_C@_0DL@KGJAOBHN@Bad?5animation?5number?5?$CICG_SetHud@ 300cc464     cg_players.obj
 0002:000104a0       __real@3f60000000000000    300cc4a0     cg_players.obj
 0002:000104a8       __real@3fd38c3560000000    300cc4a8     cg_players.obj
 0002:000104b0       __real@3ff199999999999a    300cc4b0     cg_players.obj
 0002:000104b8       __real@3ff999999999999a    300cc4b8     cg_players.obj
 0002:000104c0       __real@4049333340000000    300cc4c0     cg_players.obj
 0002:000104c8       __real@4080000000000000    300cc4c8     cg_players.obj
 0002:000104d0       __real@4097700000000000    300cc4d0     cg_players.obj
 0002:000104d8       __real@41f80000            300cc4d8     cg_players.obj
 0002:000104dc       __real@48100000            300cc4dc     cg_players.obj
 0002:000104e0       __real@49100000            300cc4e0     cg_players.obj
 0002:000104e4       ??_C@_06KEIHOBEK@?9zoom?6@ 300cc4e4     cg_playerstate.obj
 0002:000104ec       ??_C@_0CC@NIDOAJN@WARNING?3?5changed?5predicted?5even@ 300cc4ec     cg_playerstate.obj
 0002:00010510       __real@46e29000            300cc510     cg_playerstate.obj
 0002:00010514       __real@46ea6000            300cc514     cg_playerstate.obj
 0002:00010518       ??_C@_0BB@DKPBLCIE@gfx?1hud?1pm_death@ 300cc518     cg_popupmessages.obj
 0002:0001052c       ??_C@_0BH@NHNPLCMI@gfx?1hud?1pm_constallied@ 300cc52c     cg_popupmessages.obj
 0002:00010544       ??_C@_0BF@DJOGHBGN@gfx?1hud?1pm_constaxis@ 300cc544     cg_popupmessages.obj
 0002:0001055c       ??_C@_0BG@NDKEHION@gfx?1hud?1pm_mineallied@ 300cc55c     cg_popupmessages.obj
 0002:00010574       ??_C@_0BE@NPDEIPIN@gfx?1hud?1pm_mineaxis@ 300cc574     cg_popupmessages.obj
 0002:00010588       ??_C@_0BI@MHMKODJM@gfx?1hud?1keyboardkey_old@ 300cc588     cg_popupmessages.obj
 0002:000105a0       ??_C@_0BI@JLLMCFFD@Invalid?5popup?5type?3?5?$CFd?6@ 300cc5a0     cg_popupmessages.obj
 0002:000105b8       ??_C@_0P@CFLIEBPD@Planted?5at?5?$CFs?4@ 300cc5b8     cg_popupmessages.obj
 0002:000105c8       ??_C@_0P@GMDCBOLG@Defused?5at?5?$CFs?4@ 300cc5c8     cg_popupmessages.obj
 0002:000105d8       ??_C@_0BJ@MBADKBCO@?$CFs?5has?5been?5constructed?4@ 300cc5d8     cg_popupmessages.obj
 0002:000105f4       ??_C@_0BF@EMBIPLNP@?$CFs?5has?5been?5damaged?4@ 300cc5f4     cg_popupmessages.obj
 0002:0001060c       ??_C@_0BH@HBLMMOFK@?$CFs?5has?5been?5destroyed?4@ 300cc60c     cg_popupmessages.obj
 0002:00010624       ??_C@_05DNDNCJEB@?5?$CI?$CFs?$CJ@ 300cc624     cg_popupmessages.obj
 0002:0001062c       ??_C@_0BG@MKPGECFE@Spotted?5by?5?$CFs?$FO7?5at?5?$CFs@ 300cc62c     cg_popupmessages.obj
 0002:00010644       ??_C@_0BD@GDOKCEHA@?$CFs?5have?5stolen?5?$CFs?$CB@ 300cc644     cg_popupmessages.obj
 0002:00010658       ??_C@_0BF@DPBECCHP@?$CFs?5have?5returned?5?$CFs?$CB@ 300cc658     cg_popupmessages.obj
 0002:00010670       ??_C@_09KKBCBLAJ@Axis?5team@ 300cc670     cg_popupmessages.obj
 0002:0001067c       ??_C@_0M@DHILCDCN@Allied?5team@ 300cc67c     cg_popupmessages.obj
 0002:00010688       ??_C@_0L@CMACAMIL@Spectators@ 300cc688     cg_popupmessages.obj
 0002:00010694       ??_C@_0BK@CDEPIBJL@?$CFs?$FO7?5has?5joined?5the?5?$CFs?$FO7?$CB@ 300cc694     cg_popupmessages.obj
 0002:000106b0       ??_C@_0BC@PCIHDBAN@?$CFs?$FO7?5disconnected@ 300cc6b0     cg_popupmessages.obj
 0002:000106c4       ??_C@_0BJ@DFHEAGEP@axis_hq_dynamite_planted@ 300cc6c4     cg_popupmessages.obj
 0002:000106e0       ??_C@_0BL@OCDGBJA@allies_hq_dynamite_planted@ 300cc6e0     cg_popupmessages.obj
 0002:000106fc       ??_C@_0BJ@MPPPNCNP@axis_hq_dynamite_defused@ 300cc6fc     cg_popupmessages.obj
 0002:00010718       ??_C@_0BL@PEKILFAA@allies_hq_dynamite_defused@ 300cc718     cg_popupmessages.obj
 0002:00010734       ??_C@_0BI@INOHOADK@allies_hq_mines_spotted@ 300cc734     cg_popupmessages.obj
 0002:0001074c       ??_C@_0BG@CNCIHAFG@axis_hq_mines_spotted@ 300cc74c     cg_popupmessages.obj
 0002:00010764       ??_C@_0BI@FCNEKPFO@axis_hq_objective_taken@ 300cc764     cg_popupmessages.obj
 0002:0001077c       ??_C@_0BK@GLJDLIHO@allies_hq_objective_taken@ 300cc77c     cg_popupmessages.obj
 0002:00010798       ??_C@_0BJ@LPGIANGM@axis_hq_objective_secure@ 300cc798     cg_popupmessages.obj
 0002:000107b4       ??_C@_0BL@IEDPGKLD@allies_hq_objective_secure@ 300cc7b4     cg_popupmessages.obj
 0002:000107d0       __real@441f0000            300cc7d0     cg_popupmessages.obj
 0002:000107d4       ??_C@_0BB@LKJLPELH@You?5are?5near?5?$CFs?6@ 300cc7d4     cg_predict.obj
 0002:000107e8       ??_C@_0CB@FKOHFCOP@Backup?3?5?$CFx?5?5Server?3?5?$CFx?5Diff?3?5?$CFx@ 300cc7e8     cg_predict.obj
 0002:0001080c       ??_C@_0BH@IFFJNEKI@Backup?3?5?$CFd?5Server?3?5?$CFd?6@ 300cc80c     cg_predict.obj
 0002:00010824       ??_C@_0CE@JCAHPAJ@exceeded?5PACKET_BACKUP?5on?5comma@ 300cc824     cg_predict.obj
 0002:00010848       ??_C@_02NCPIBIBE@33@       300cc848     cg_predict.obj
 0002:0001084c       ??_C@_02PPBOIJDM@60@       300cc84c     cg_predict.obj
 0002:00010850       ??_C@_03OOGDEJFF@333@      300cc850     cg_predict.obj
 0002:00010854       ??_C@_0BE@KHANFHAN@errorcode?5?$CFd?5at?5?$CFd?6@ 300cc854     cg_predict.obj
 0002:00010868       ??_C@_0BE@DPKKIGLP@PredictionTeleport?6@ 300cc868     cg_predict.obj
 0002:0001087c       ??_C@_0BC@GIKLPGML@prediction?5error?6@ 300cc87c     cg_predict.obj
 0002:00010890       ??_C@_0BF@BBGFLFIG@Prediction?5miss?3?5?$CFf?6@ 300cc890     cg_predict.obj
 0002:000108a8       ??_C@_0BN@HNLMAFPF@Double?5prediction?5decay?3?5?$CFf?6@ 300cc8a8     cg_predict.obj
 0002:000108c8       ??_C@_0BC@LIGBKPGP@saved?5state?5miss?6@ 300cc8c8     cg_predict.obj
 0002:000108dc       ??_C@_0DC@DJAKLBHP@cg?4time?3?5?$CFd?0?5numPredicted?3?5?$CFd?0?5@ 300cc8dc     cg_predict.obj
 0002:00010910       ??_C@_0L@NKHFPHNI@?$FL?$CFi?5?3?5?$CFi?$FN?5@ 300cc910     cg_predict.obj
 0002:0001091c       ??_C@_0L@DOJHFFNN@not?5moved?6@ 300cc91c     cg_predict.obj
 0002:00010928       __real@3c23d70b            300cc928     cg_predict.obj
 0002:0001092c       __real@43a35ce2            300cc92c     cg_predict.obj
 0002:00010930       ??_C@_03HMPENFNK@uci@      300cc930     cg_scoreboard.obj
 0002:00010934       ??_C@_0CI@PGBHLCAK@ui?1assets?1portraits?1allies_win_@ 300cc934     cg_scoreboard.obj
 0002:0001095c       ??_C@_0CE@PJJKNIA@ui?1assets?1portraits?1text_allies@ 300cc95c     cg_scoreboard.obj
 0002:00010980       ??_C@_0CG@JGJBNKJK@ui?1assets?1portraits?1axis_win_fl@ 300cc980     cg_scoreboard.obj
 0002:000109a8       ??_C@_0CC@HMLNDHKI@ui?1assets?1portraits?1text_axis?4t@ 300cc9a8     cg_scoreboard.obj
 0002:000109cc       ??_C@_0CB@BBBMIPHN@ui?1assets?1portraits?1text_win?4tg@ 300cc9cc     cg_scoreboard.obj
 0002:000109f0       ??_C@_06LLIEIDDF@WARMUP@   300cc9f0     cg_scoreboard.obj
 0002:000109f8       ??_C@_0O@CAPCMBJM@MISSION?5TIME?3@ 300cc9f8     cg_scoreboard.obj
 0002:00010a08       ??_C@_0N@CBLEOBI@SUDDEN?5DEATH@ 300cca08     cg_scoreboard.obj
 0002:00010a18       ??_C@_0BA@NDCKCABB@?$CFs?5?5?5?$CF2?40f?3?$CFi?$CFi@ 300cca18     cg_scoreboard.obj
 0002:00010a28       ??_C@_0BA@JLOPALAB@REINFORCE?5TIME?3@ 300cca28     cg_scoreboard.obj
 0002:00010a38       ??_C@_0O@KEIODBOP@?$CFs?5?$CF2?40f?3?$CFi?$CFi@ 300cca38     cg_scoreboard.obj
 0002:00010a48       ??_C@_0BA@FMLAACLM@STOPWATCH?5ROUND@ 300cca48     cg_scoreboard.obj
 0002:00010a58       ??_C@_05PKDFAPGJ@SCORE@    300cca58     cg_scoreboard.obj
 0002:00010a60       ??_C@_05MHBKONGD@ROUND@    300cca60     cg_scoreboard.obj
 0002:00010a68       ??_C@_0BA@EIKKDCAI@?$CFs?5?$CFi?5?5?$CFs?5?$CFi?9?$CFi@ 300cca68     cg_scoreboard.obj
 0002:00010a78       ??_C@_0N@JLCLOMJK@MAP?5?$CFi?5of?5?$CFi@ 300cca78     cg_scoreboard.obj
 0002:00010a88       ??_C@_05CIFNHDCN@?$FO?$CFc?$CFc@ 300cca88     cg_scoreboard.obj
 0002:00010a90       ??_C@_0N@BLEAGIGJ@?$FO3CONNECTING@ 300cca90     cg_scoreboard.obj
 0002:00010aa0       ??_C@_08LCLECKCK@?$FO3ZOMBIE@ 300ccaa0     cg_scoreboard.obj
 0002:00010aac       ??_C@_0M@LHELHGFL@?$FO5TV?$FO7?$HM?$FO3?$CFs@ 300ccaac     cg_scoreboard.obj
 0002:00010ab8       ??_C@_0M@JBKPBEAJ@?$FO3SPECTATOR@ 300ccab8     cg_scoreboard.obj
 0002:00010ac4       ??_C@_0O@KNPGKHIE@?$FO3SHOUTCASTER@ 300ccac4     cg_scoreboard.obj
 0002:00010ad4       ??_C@_04GFJLOHHD@?$CF?43f@ 300ccad4     cg_scoreboard.obj
 0002:00010adc       ??_C@_03NLEFPEMI@?$CF3i@   300ccadc     cg_scoreboard.obj
 0002:00010ae0       ??_C@_06OJCHHANH@?5?$FO3BOT@ 300ccae0     cg_scoreboard.obj
 0002:00010ae8       ??_C@_03NKIHJOPP@?$CF2i@   300ccae8     cg_scoreboard.obj
 0002:00010aec       ??_C@_02BINJDKOC@?5?9@     300ccaec     cg_scoreboard.obj
 0002:00010af0       ??_C@_0BI@GFDBJJBJ@CLOCK?5IS?5NOW?5SET?5TO?5?$CFs?$CB@ 300ccaf0     cg_scoreboard.obj
 0002:00010b08       ??_C@_03IPHEBOAM@PRW@      300ccb08     cg_scoreboard.obj
 0002:00010b0c       ??_C@_03DFKKHEAD@K?1D@     300ccb0c     cg_scoreboard.obj
 0002:00010b10       ??_C@_0BA@IEAPIPGJ@?$CFs?5?$FL?$CFd?$FN?5?$CI?$CFd?5?$CFs?$CJ@ 300ccb10     cg_scoreboard.obj
 0002:00010b20       ??_C@_0M@ONKJPFDE@FIRST?5BLOOD@ 300ccb20     cg_scoreboard.obj
 0002:00010b2c       ??_C@_07KOEOALPP@?$CFs?5?$FO3?$CFs@ 300ccb2c     cg_scoreboard.obj
 0002:00010b34       ??_C@_0BE@PBONKIMD@?$CFs?5?$FL?$CF?41f?$CF?$CF?$FN?5?$CI?$CFd?5?$CFs?$CJ@ 300ccb34     cg_scoreboard.obj
 0002:00010b48       ??_C@_05EKAMNAII@Class@    300ccb48     cg_scoreboard.obj
 0002:00010b50       ??_C@_04CPBFGEOK@Ping@     300ccb50     cg_scoreboard.obj
 0002:00010b58       __real@3b000000            300ccb58     cg_scoreboard.obj
 0002:00010b5c       __real@42600000            300ccb5c     cg_scoreboard.obj
 0002:00010b60       __real@43060000            300ccb60     cg_scoreboard.obj
 0002:00010b64       __real@430a0000            300ccb64     cg_scoreboard.obj
 0002:00010b68       ??_C@_0BP@JLMHHKMC@forcecvar?3?5MAX_FORCECVARS?5hit?6@ 300ccb68     cg_servercmds.obj
 0002:00010b88       ??_C@_0BB@NPKFOFLO@DC?3?5?$CFd?5?$CFd?5?$CFd?5?$CFs?6@ 300ccb88     cg_servercmds.obj
 0002:00010b9c       ??_C@_08HCPAIKAO@gamename@ 300ccb9c     cg_servercmds.obj
 0002:00010ba8       ??_C@_0M@DBOOKDBI@mod_version@ 300ccba8     cg_servercmds.obj
 0002:00010bb4       ??_C@_04PBLGEGDO@0?45?4@   300ccbb4     cg_servercmds.obj
 0002:00010bbc       ??_C@_09KPHKOKCC@timelimit@ 300ccbbc     cg_servercmds.obj
 0002:00010bc8       ??_C@_0O@OCOCOONB@sv_maxclients@ 300ccbc8     cg_servercmds.obj
 0002:00010bd8       ??_C@_0M@DKNJHPLK@maps?1?$CFs?4bsp@ 300ccbd8     cg_servercmds.obj
 0002:00010be4       ??_C@_0P@INFPEBNI@g_redlimbotime@ 300ccbe4     cg_servercmds.obj
 0002:00010bf4       ??_C@_0BA@OOPKLNHH@g_bluelimbotime@ 300ccbf4     cg_servercmds.obj
 0002:00010c04       ??_C@_0BB@LFAIGICE@g_minGameClients@ 300ccc04     cg_servercmds.obj
 0002:00010c18       ??_C@_0BH@PLPNFPAH@g_characterModsEnabled@ 300ccc18     cg_servercmds.obj
 0002:00010c30       ??_C@_02BMCALKD@?5?0@      300ccc30     cg_servercmds.obj
 0002:00010c34       ??_C@_0CJ@LEFDMFIN@?$FO3client?3?5detected?5etpub?5server@ 300ccc34     cg_servercmds.obj
 0002:00010c60       ??_C@_06OOLBANNA@g_misc@   300ccc60     cg_servercmds.obj
 0002:00010c68       ??_C@_0BD@JIOAMDFK@g_doubleJumpHeight@ 300ccc68     cg_servercmds.obj
 0002:00010c7c       ??_C@_0BC@BDELLNKF@g_staminaRecharge@ 300ccc7c     cg_servercmds.obj
 0002:00010c90       ??_C@_0BA@BPDPLIHI@g_panzerLevelUp@ 300ccc90     cg_servercmds.obj
 0002:00010ca0       ??_C@_09OCNKOKJG@g_weapons@ 300ccca0     cg_servercmds.obj
 0002:00010cac       ??_C@_09LLEKAJDM@g_coverts@ 300cccac     cg_servercmds.obj
 0002:00010cb8       ??_C@_08HLLFGDNC@g_medics@ 300cccb8     cg_servercmds.obj
 0002:00010cc4       ??_C@_0BC@GELKJMCJ@g_throwableKnives@ 300cccc4     cg_servercmds.obj
 0002:00010cd8       ??_C@_0P@CBMMOAIG@g_playerRating@ 300cccd8     cg_servercmds.obj
 0002:00010ce8       ??_C@_0N@PLJLJICJ@g_killRating@ 300ccce8     cg_servercmds.obj
 0002:00010cf8       ??_C@_04PNHGJEHE@mapX@     300cccf8     cg_servercmds.obj
 0002:00010d00       ??_C@_04OEGNKFDF@mapY@     300ccd00     cg_servercmds.obj
 0002:00010d08       ??_C@_0BA@DHLCMHAL@team_maxPanzers@ 300ccd08     cg_servercmds.obj
 0002:00010d18       ??_C@_0BA@MEHFHDHK@team_maxMortars@ 300ccd18     cg_servercmds.obj
 0002:00010d28       ??_C@_0BA@MPCHGHCA@team_maxFlamers@ 300ccd28     cg_servercmds.obj
 0002:00010d38       ??_C@_0O@MFLIEEPK@team_maxMG42s@ 300ccd38     cg_servercmds.obj
 0002:00010d48       ??_C@_0BG@IBPMEGCA@team_maxGrenLaunchers@ 300ccd48     cg_servercmds.obj
 0002:00010d60       ??_C@_02LMHINHBC@HB@       300ccd60     cg_servercmds.obj
 0002:00010d64       ??_C@_0P@IEOFAMLI@g_friendlyFire@ 300ccd64     cg_servercmds.obj
 0002:00010d74       ??_C@_0N@BAHFJPGB@20?550?590?5140@ 300ccd74     cg_servercmds.obj
 0002:00010d84       ??_C@_0O@IBOLFDIB@skill_soldier@ 300ccd84     cg_servercmds.obj
 0002:00010d94       ??_C@_0M@DJFNEGGO@skill_medic@ 300ccd94     cg_servercmds.obj
 0002:00010da0       ??_C@_0P@IBJHFGDF@skill_engineer@ 300ccda0     cg_servercmds.obj
 0002:00010db0       ??_C@_0P@FDHGELGM@skill_fieldops@ 300ccdb0     cg_servercmds.obj
 0002:00010dc0       ??_C@_0BA@HKFJAOFN@skill_covertops@ 300ccdc0     cg_servercmds.obj
 0002:00010dd0       ??_C@_0BC@GPCDNPJ@skill_battlesense@ 300ccdd0     cg_servercmds.obj
 0002:00010de4       ??_C@_0BD@EJEKDIKK@skill_lightweapons@ 300ccde4     cg_servercmds.obj
 0002:00010df8       ??_C@_0CK@JCLCJGND@?$FO3All?5players?5ready?$CB?$FO7?6Match?5st@ 300ccdf8     cg_servercmds.obj
 0002:00010e24       ??_C@_0CJ@IAMNKBNC@?$FO3All?5players?5ready?$CB?$FO7?6Match?5st@ 300cce24     cg_servercmds.obj
 0002:00010e50       ??_C@_03MMMINCEH@cia@      300cce50     cg_servercmds.obj
 0002:00010e54       ??_C@_03FHMIHLFP@cix@      300cce54     cg_servercmds.obj
 0002:00010e58       ??_C@_01FMEDJKGI@o@        300cce58     cg_servercmds.obj
 0002:00010e5c       ??_C@_01KGKMHCOC@e@        300cce5c     cg_servercmds.obj
 0002:00010e60       ??_C@_01FJMABOPO@x@        300cce60     cg_servercmds.obj
 0002:00010e64       ??_C@_01EANLCPLP@y@        300cce64     cg_servercmds.obj
 0002:00010e68       ??_C@_01GLPGHMHM@z@        300cce68     cg_servercmds.obj
 0002:00010e6c       ??_C@_0P@FFABOEHE@g_currentRound@ 300cce6c     cg_servercmds.obj
 0002:00010e7c       ??_C@_0BA@MODEPICF@g_nextTimeLimit@ 300cce7c     cg_servercmds.obj
 0002:00010e8c       ??_C@_09LPDKDNCH@gamestate@ 300cce8c     cg_servercmds.obj
 0002:00010e98       ??_C@_0BC@OFBJJPJA@g_currentCampaign@ 300cce98     cg_servercmds.obj
 0002:00010eac       ??_C@_0BF@GAPFNOAB@g_currentCampaignMap@ 300cceac     cg_servercmds.obj
 0002:00010ec4       ??_C@_09EBFCHLNH@?$FO1FIGHT?$CB?6@ 300ccec4     cg_servercmds.obj
 0002:00010ed0       ??_C@_0BA@FFAHKGG@numspawntargets@ 300cced0     cg_servercmds.obj
 0002:00010ee0       ??_C@_09DHNEGLIK@Auto?5Pick@ 300ccee0     cg_servercmds.obj
 0002:00010eec       ??_C@_0L@DMCMOILK@spawn_targ@ 300cceec     cg_servercmds.obj
 0002:00010ef8       ??_C@_01JLIPDDHJ@?3@       300ccef8     cg_servercmds.obj
 0002:00010efc       ??_C@_07FHDIKKBP@axs_sld@  300ccefc     cg_servercmds.obj
 0002:00010f04       ??_C@_07NKHKCAOB@ald_sld@  300ccf04     cg_servercmds.obj
 0002:00010f0c       ??_C@_07KGKMENMM@axs_mdc@  300ccf0c     cg_servercmds.obj
 0002:00010f14       ??_C@_07CLOOMHDC@ald_mdc@  300ccf14     cg_servercmds.obj
 0002:00010f1c       ??_C@_07KODCFPB@axs_eng@   300ccf1c     cg_servercmds.obj
 0002:00010f24       ??_C@_07IHKBKPAP@ald_eng@  300ccf24     cg_servercmds.obj
 0002:00010f2c       ??_C@_07BGAECLOJ@axs_lnt@  300ccf2c     cg_servercmds.obj
 0002:00010f34       ??_C@_07JLEGKBBH@ald_lnt@  300ccf34     cg_servercmds.obj
 0002:00010f3c       ??_C@_07PFGEACON@axs_cvo@  300ccf3c     cg_servercmds.obj
 0002:00010f44       ??_C@_07HICGIIBD@ald_cvo@  300ccf44     cg_servercmds.obj
 0002:00010f50       ??_C@_0EE@MDGLANHB@ERROR?3?5CG_ConfigStringModified?3@ 300ccf50     cg_servercmds.obj
 0002:00010f94       ??_C@_0P@HFBEHELF@CG_MapRestart?6@ 300ccf94     cg_servercmds.obj
 0002:00010fa4       ??_C@_0CB@LCNFPPPE@?$FO1voice?5chat?5file?5not?5found?3?5?$CFs@ 300ccfa4     cg_servercmds.obj
 0002:00010fc8       ??_C@_0DJ@DIHCICBL@?$FO1voice?5chat?5file?5too?5large?3?5?$CFs@ 300ccfc8     cg_servercmds.obj
 0002:00011004       ??_C@_06GJLDEJIL@female@   300cd004     cg_servercmds.obj
 0002:0001100c       ??_C@_04ICKCIGNO@male@     300cd00c     cg_servercmds.obj
 0002:00011014       ??_C@_06GHFJMDBL@neuter@   300cd014     cg_servercmds.obj
 0002:0001101c       ??_C@_0DE@LFCGMCMO@?$FO1expected?5gender?5not?5found?5in?5@ 300cd01c     cg_servercmds.obj
 0002:00011050       ??_C@_0CO@OOFJHLNN@?$FO1expected?5?$HL?5found?5?$CFs?5in?5voice?5@ 300cd050     cg_servercmds.obj
 0002:00011080       ??_C@_0BL@NJEEKLLI@scripts?1wm_axis_chat?4voice@ 300cd080     cg_servercmds.obj
 0002:0001109c       ??_C@_0BN@BGBDIELK@scripts?1wm_allies_chat?4voice@ 300cd09c     cg_servercmds.obj
 0002:000110bc       ??_C@_0BN@NIPMNCMN@voice?5chat?5memory?5size?5?$DN?5?$CFd?6@ 300cd0bc     cg_servercmds.obj
 0002:000110dc       ??_C@_0BP@KFFODNFD@voice?5chat?5file?5not?5found?3?5?$CFs?6@ 300cd0dc     cg_servercmds.obj
 0002:000110fc       ??_C@_0BC@DHKAAGFO@?$FLskipnotify?$FN?3?5?$CFs?6@ 300cd0fc     cg_servercmds.obj
 0002:00011110       ??_C@_0BJ@BMCHMAFL@?$CI?$CFs?$CFc?$CFc?$CJ?$CFc?$CFc?$CI?$CFs?$CJ?3?5?$CFc?$CFc?$CFs@ 300cd110     cg_servercmds.obj
 0002:0001112c       ??_C@_0BJ@MBMMKNGP@?$DM?$CFs?$CFc?$CFc?$DO?$CFc?$CFc?$DM?$CFs?$DO?3?5?$CFc?$CFc?$CFs@ 300cd12c     cg_servercmds.obj
 0002:00011148       ??_C@_0P@HCEMCFBJ@?$CFs?$CFc?$CFc?3?5?$CFc?$CFc?$CFs@ 300cd148     cg_servercmds.obj
 0002:00011158       ??_C@_0M@MPCEANBE@kill_insult@ 300cd158     cg_servercmds.obj
 0002:00011164       ??_C@_05CPCHEFAA@taunt@    300cd164     cg_servercmds.obj
 0002:0001116c       ??_C@_0N@EPKIJPHK@death_insult@ 300cd16c     cg_servercmds.obj
 0002:0001117c       ??_C@_0O@ILEOHMJK@kill_gauntlet@ 300cd17c     cg_servercmds.obj
 0002:0001118c       ??_C@_06GEFAPDPP@praise@   300cd18c     cg_servercmds.obj
 0002:00011194       ??_C@_05FKKPBOEC@?$FLlon?$FN@ 300cd194     cg_servercmds.obj
 0002:0001119c       ??_C@_05FELMEPPK@?$FLlof?$FN@ 300cd19c     cg_servercmds.obj
 0002:000111a4       ??_C@_0BN@EIBMAJEK@?$CF?912s?5?$CF5?41f?5?$CF4d?1?$CF?94d?5?$CF5d?5?5?$CFs@ 300cd1a4     cg_servercmds.obj
 0002:000111c4       ??_C@_07EFKFEGCG@?$CF?912s?5?5@ 300cd1c4     cg_servercmds.obj
 0002:000111cc       ??_C@_0BA@GADPLLLA@?$CF5?41f?5?$CF4d?1?$CF?94d?5@ 300cd1cc     cg_servercmds.obj
 0002:000111dc       ??_C@_0BB@FHAPCDKO@?5?5?5?5?5?5?5?5?5?5?5?5?5?5?5?5@ 300cd1dc     cg_servercmds.obj
 0002:000111f0       ??_C@_04EFNLAIFG@?5?$CF9d@ 300cd1f0     cg_servercmds.obj
 0002:000111f8       ??_C@_0M@MCGGGMJH@?$CFs?$CF5d?5?$CF6d?$CFs@ 300cd1f8     cg_servercmds.obj
 0002:00011204       ??_C@_0CK@NLNFIBOA@Damage?5Given?3?5?$CF?96d?5?5Team?5Damage@ 300cd204     cg_servercmds.obj
 0002:00011230       ??_C@_0CK@NAEBEINL@Damage?5Recvd?3?5?$CF?96d?5?5Team?5Damage@ 300cd230     cg_servercmds.obj
 0002:0001125c       ??_C@_0BB@PIGAPJDM@Damage?5Recvd?3?5?$CFd@ 300cd25c     cg_servercmds.obj
 0002:00011270       ??_C@_08BOEOJPFG@?$CF?913s?5?$CFd@ 300cd270     cg_servercmds.obj
 0002:0001127c       ??_C@_08CAJOJKFH@?$CF4d?1?$CF?94d@ 300cd27c     cg_servercmds.obj
 0002:00011288       ??_C@_03EBJOKFHF@?5?$CFd@  300cd288     cg_servercmds.obj
 0002:0001128c       ??_C@_0BE@DCNFCNJO@?$CF?915s?5?$CF3d?5?$CF?915s?5?$CF6d@ 300cd28c     cg_servercmds.obj
 0002:000112a0       ??_C@_0BA@NGOPDHJK@?$CF?915s?5?$CF3d?5?$CF?915s@ 300cd2a0     cg_servercmds.obj
 0002:000112b0       ??_C@_0CP@GDGEENOO@?$FO7Overall?5stats?5for?3?5?$FO3?$CFs?5?$FO7?$CI?$FO2@ 300cd2b0     cg_servercmds.obj
 0002:000112e0       ??_C@_0DD@MAPELJFA@Weapon?5?5?5?5?5Acrcy?5Hits?1Atts?5Kill@ 300cd2e0     cg_servercmds.obj
 0002:00011314       ??_C@_0DD@POLPKMBJ@?9?9?9?9?9?9?9?9?9?9?9?9?9?9?9?9?9?9?9?9?9?9?9?9?9?9?9?9?9?9?9@ 300cd314     cg_servercmds.obj
 0002:00011348       ??_C@_0CH@EOMPGDKD@Weapon?5?5?5?5?5Acrcy?5Hits?1Atts?5Kll?5@ 300cd348     cg_servercmds.obj
 0002:00011370       ??_C@_01EEMJAFIK@?6@       300cd370     cg_servercmds.obj
 0002:00011374       ??_C@_0BN@CGNKOEGN@?$FO3No?5weapon?5info?5available?4?6@ 300cd374     cg_servercmds.obj
 0002:00011394       ??_C@_08OHFALEJJ@?$FO3?$CF?99s?3?5@ 300cd394     cg_servercmds.obj
 0002:000113a0       ??_C@_0BE@ECNNIDIA@?$FO7?$CF5?41f?5?$FO5?$CF4d?1?$CF?94d?5@ 300cd3a0     cg_servercmds.obj
 0002:000113b4       ??_C@_06MAOMJNHM@?5?$FO3?$CF9d@ 300cd3b4     cg_servercmds.obj
 0002:000113bc       ??_C@_0BB@FFDNHPJH@?$CFs?$FO2?$CF5d?5?$FO1?$CF6d?$CFs?6@ 300cd3bc     cg_servercmds.obj
 0002:000113d0       ??_C@_06MMLJHCJN@?5?$FO3?$CF2d@ 300cd3d0     cg_servercmds.obj
 0002:000113d8       ??_C@_0BB@OKMNELME@?$CFs?$FO2?$CF3d?5?$FO1?$CF3d?$CFs?6@ 300cd3d8     cg_servercmds.obj
 0002:000113ec       ??_C@_02PHMGELLB@?6?6@     300cd3ec     cg_servercmds.obj
 0002:000113f0       ??_C@_0DE@OFAMKGKP@?6?$FO3Damage?5Given?3?5?$FO7?$CF?96d?5?5?$FO3Team@ 300cd3f0     cg_servercmds.obj
 0002:00011424       ??_C@_0DD@HMKNCIKA@?$FO3Damage?5Recvd?3?5?$FO7?$CF?96d?5?5?$FO3Team?5@ 300cd424     cg_servercmds.obj
 0002:00011458       ??_C@_0BG@DBPDDBHP@?$FO3Damage?5Recvd?3?5?$FO7?$CFd?6@ 300cd458     cg_servercmds.obj
 0002:00011470       ??_C@_03EGHOKNNL@?6?6?6@   300cd470     cg_servercmds.obj
 0002:00011474       ??_C@_0BH@CGIIIGNI@?6?$FO2Rank?3?5?$FO7?$CFs?5?$CI?$CFd?5XP?$CJ?6@ 300cd474     cg_servercmds.obj
 0002:0001148c       ??_C@_08LFGDNIGO@?5?5Medals@ 300cd48c     cg_servercmds.obj
 0002:00011498       ??_C@_0BP@JECOMPGA@Skills?5?5?5?5?5?5?5?5?5Level?1Points?$CFs?6@ 300cd498     cg_servercmds.obj
 0002:000114b8       ??_C@_08GGNFKEJM@?9?9?9?9?9?9?9?9@ 300cd4b8     cg_servercmds.obj
 0002:000114c4       ??_C@_0BP@LHJFKCEL@?9?9?9?9?9?9?9?9?9?9?9?9?9?9?9?9?9?9?9?9?9?9?9?9?9?9?9?$CFs?6@ 300cd4c4     cg_servercmds.obj
 0002:000114e4       ??_C@_0BH@EHDCEAMH@?$FO3No?5skills?5acquired?$CB?6@ 300cd4e4     cg_servercmds.obj
 0002:000114fc       ??_C@_0L@MCNIHCHF@?$CFd?5?$CI?$CFd?1?$CFd?$CJ@ 300cd4fc     cg_servercmds.obj
 0002:00011508       ??_C@_07DONLOGLK@?$CFd?5?$CI?$CFd?$CJ@ 300cd508     cg_servercmds.obj
 0002:00011510       ??_C@_0BG@KHIIFNGB@?$CF?914s?5?$FO3?$CF?912s?5?5?$FO2?$CF6d?6@ 300cd510     cg_servercmds.obj
 0002:00011528       ??_C@_0P@PBPDCLEL@?$CF?914s?5?$FO3?$CF?912s?6@ 300cd528     cg_servercmds.obj
 0002:00011538       ??_C@_03FGFCOCMD@top@      300cd538     cg_servercmds.obj
 0002:0001153c       ??_C@_06PMMPCIPB@bottom@   300cd53c     cg_servercmds.obj
 0002:00011544       ??_C@_0CI@LELDAIDC@?$FO3No?5qualifying?5?$CFsshot?5info?5ava@ 300cd544     cg_servercmds.obj
 0002:0001156c       ??_C@_04HAJKDHN@BEST@      300cd56c     cg_servercmds.obj
 0002:00011574       ??_C@_05FEDMGGBL@WORST@    300cd574     cg_servercmds.obj
 0002:0001157c       ??_C@_0BI@HMKGBNFF@?$FO2?$CFs?5Match?5Accuracies?3?6@ 300cd57c     cg_servercmds.obj
 0002:00011594       ??_C@_0CG@OKONKMIN@?6?$FO3WP?5?5?5Acrcy?5Hits?1Atts?5Kills?5D@ 300cd594     cg_servercmds.obj
 0002:000115bc       ??_C@_0DP@MDDHKDMD@?9?9?9?9?9?9?9?9?9?9?9?9?9?9?9?9?9?9?9?9?9?9?9?9?9?9?9?9?9?9?9@ 300cd5bc     cg_servercmds.obj
 0002:000115fc       ??_C@_0CA@NKFMDELC@?$FO3WP?5?5?5Acrcy?5Hits?1Atts?5Kll?5Dth?6@ 300cd5fc     cg_servercmds.obj
 0002:0001161c       ??_C@_0CK@JEDFIAIE@?$FO3?$CFs?5?$FO7?$CF5?41f?5?$FO5?$CF4d?1?$CF?94d?5?$FO2?$CF5d?5?$FO@ 300cd61c     cg_servercmds.obj
 0002:00011648       ??_C@_0CK@PMFIBBDJ@?$FO3?$CFs?5?$FO7?$CF5?41f?5?$FO5?$CF4d?1?$CF?94d?5?$FO2?$CF3d?5?$FO@ 300cd648     cg_servercmds.obj
 0002:00011674       ??_C@_07NFANNNEC@UNKNOWN@  300cd674     cg_servercmds.obj
 0002:0001167c       ??_C@_0BN@JMLPADNG@Weapon?5accuracies?5for?3?5?$FO3?$CFs?6@ 300cd67c     cg_servercmds.obj
 0002:0001169c       ??_C@_0CB@BOANCFHA@?6?$FO3?5?5Acc?5Hits?1Atts?5Kills?5Deaths@ 300cd69c     cg_servercmds.obj
 0002:000116c0       ??_C@_0DM@LEMGKOFF@?9?9?9?9?9?9?9?9?9?9?9?9?9?9?9?9?9?9?9?9?9?9?9?9?9?9?9?9?9?9?9@ 300cd6c0     cg_servercmds.obj
 0002:000116fc       ??_C@_0CG@MAJBCCHL@NO?5QUALIFYING?5WEAPON?5INFO?5AVAIL@ 300cd6fc     cg_servercmds.obj
 0002:00011724       ??_C@_0CF@HOAEHKLD@?$CFs?$CF5?41f?5?$FO5?$CF4d?1?$CF?94d?5?$FO2?$CF5d?5?$FO1?$CF6d?5@ 300cd724     cg_servercmds.obj
 0002:0001174c       ??_C@_0DA@KHDDACC@?6Stats?5recorded?3?5?$CF02d?3?$CF02d?3?$CF02d@ 300cd74c     cg_servercmds.obj
 0002:0001177c       ??_C@_0CB@CDOGGCGA@?6?$FO3?$DO?$DO?$DO?5Stats?5recorded?5to?3?5?$FO7?$CFs?6@ 300cd77c     cg_servercmds.obj
 0002:000117a0       ??_C@_03NBOPHIOC@Map@      300cd7a0     cg_servercmds.obj
 0002:000117a4       ??_C@_0BB@FEJDKKLJ@?$FO3?$DO?$DO?$DO?5?$CFs?3?5?$FO2?$CFs?6?6@ 300cd7a4     cg_servercmds.obj
 0002:000117b8       ??_C@_0CE@PGLOCCOK@stats?1?$CFd?4?$CF02d?4?$CF02d?1?$CF02d?$CF02d?$CF02d@ 300cd7b8     cg_servercmds.obj
 0002:000117dc       ??_C@_0BJ@PJLJBNNH@Could?5not?5create?5logfile@ 300cd7dc     cg_servercmds.obj
 0002:000117f8       ??_C@_0BA@LJJIAO@?6?$FO3?$DO?$DO?$DO?5?$CFs?3?5?$CFs?6?6@ 300cd7f8     cg_servercmds.obj
 0002:00011808       ??_C@_05DPGKEEHN@tinfo@    300cd808     cg_servercmds.obj
 0002:00011810       ??_C@_03DCOGGMBL@sc0@      300cd810     cg_servercmds.obj
 0002:00011814       ??_C@_03CLPNFNFK@sc1@      300cd814     cg_servercmds.obj
 0002:00011818       ??_C@_02EJEGFFMJ@pr@       300cd818     cg_servercmds.obj
 0002:0001181c       ??_C@_02FJDFBJFI@kr@       300cd81c     cg_servercmds.obj
 0002:00011820       ??_C@_0M@KDLGNPNE@WeaponStats@ 300cd820     cg_servercmds.obj
 0002:0001182c       ??_C@_09MHDDABLF@skrwrdtxt@ 300cd82c     cg_servercmds.obj
 0002:00011838       ??_C@_02GENCEAFF@bp@       300cd838     cg_servercmds.obj
 0002:0001183c       ??_C@_02GFBACKGC@cp@       300cd83c     cg_servercmds.obj
 0002:00011840       ??_C@_0BC@PCPIANPD@?$CK?$CK?$CK?5?$FO3INFO?3?5?$FO5?$CFs?6@ 300cd840     cg_servercmds.obj
 0002:00011854       ??_C@_0O@BFHKEOPD@reqforcespawn@ 300cd854     cg_servercmds.obj
 0002:00011864       ??_C@_04FCAEBAIH@sdbg@     300cd864     cg_servercmds.obj
 0002:0001186c       ??_C@_02EODNHJKB@cs@       300cd86c     cg_servercmds.obj
 0002:00011870       ??_C@_05IJDJACGD@print@    300cd870     cg_servercmds.obj
 0002:00011878       ??_C@_06PAHHCLCM@entnfo@   300cd878     cg_servercmds.obj
 0002:00011880       ??_C@_04BLJLMHHG@chat@     300cd880     cg_servercmds.obj
 0002:00011888       ??_C@_05PMMINOBP@tchat@    300cd888     cg_servercmds.obj
 0002:00011890       ??_C@_05LBAAHPBE@vchat@    300cd890     cg_servercmds.obj
 0002:00011898       ??_C@_06FPNOEFND@vtchat@   300cd898     cg_servercmds.obj
 0002:000118a0       ??_C@_06IKFBKEFF@vbchat@   300cd8a0     cg_servercmds.obj
 0002:000118a8       ??_C@_09JGKJHAED@complaint@ 300cd8a8     cg_servercmds.obj
 0002:000118b4       ??_C@_0M@NBIMEKNE@map_restart@ 300cd8b4     cg_servercmds.obj
 0002:000118c0       ??_C@_02FFBCHCAN@ws@       300cd8c0     cg_servercmds.obj
 0002:000118c4       ??_C@_03HNPPOMCG@wws@      300cd8c4     cg_servercmds.obj
 0002:000118c8       ??_C@_06HJBGBBFF@gstats@   300cd8c8     cg_servercmds.obj
 0002:000118d0       ??_C@_06BKMGCEGP@astats@   300cd8d0     cg_servercmds.obj
 0002:000118d8       ??_C@_07IKNMLDMI@astatsb@  300cd8d8     cg_servercmds.obj
 0002:000118e0       ??_C@_06CLCODOPC@bstats@   300cd8e0     cg_servercmds.obj
 0002:000118e8       ??_C@_07EFDLECL@bstatsb@   300cd8e8     cg_servercmds.obj
 0002:000118f0       ??_C@_07HFPFKGGM@wbstats@  300cd8f0     cg_servercmds.obj
 0002:000118f8       ??_C@_03EKCBBMBE@rws@      300cd8f8     cg_servercmds.obj
 0002:000118fc       ??_C@_0N@LBPLOHIM@portalcampos@ 300cd8fc     cg_servercmds.obj
 0002:0001190c       ??_C@_08IPFMGFJB@startCam@ 300cd90c     cg_servercmds.obj
 0002:00011918       ??_C@_0BB@BBHDABAB@SetInitialCamera@ 300cd918     cg_servercmds.obj
 0002:0001192c       ??_C@_07LALCFMLD@stopCam@  300cd92c     cg_servercmds.obj
 0002:00011934       ??_C@_0M@FHOOHMML@rockandroll@ 300cd934     cg_servercmds.obj
 0002:00011940       ??_C@_0M@MBDKLJIJ@application@ 300cd940     cg_servercmds.obj
 0002:0001194c       ??_C@_0L@BFNEMPNH@invitation@ 300cd94c     cg_servercmds.obj
 0002:00011958       ??_C@_0M@NPFINNPP@proposition@ 300cd958     cg_servercmds.obj
 0002:00011964       ??_C@_03FKCILLOF@aft@      300cd964     cg_servercmds.obj
 0002:00011968       ??_C@_04JOOKAGCI@aftc@     300cd968     cg_servercmds.obj
 0002:00011970       ??_C@_04EPCILNGB@aftj@     300cd970     cg_servercmds.obj
 0002:00011978       ??_C@_0M@BLBAMFDN@remapShader@ 300cd978     cg_servercmds.obj
 0002:00011984       ??_C@_08JLKPCCMC@mu_start@ 300cd984     cg_servercmds.obj
 0002:00011990       ??_C@_07KNHBBLIO@mu_play@  300cd990     cg_servercmds.obj
 0002:00011998       ??_C@_0M@EEJILCDB@onetimeonly@ 300cd998     cg_servercmds.obj
 0002:000119a4       ??_C@_07KECAIIGN@mu_stop@  300cd9a4     cg_servercmds.obj
 0002:000119ac       ??_C@_07FAAHDOMH@mu_fade@  300cd9ac     cg_servercmds.obj
 0002:000119b4       ??_C@_08FFCEJKIJ@snd_fade@ 300cd9b4     cg_servercmds.obj
 0002:000119c0       ??_C@_0L@FHADBMPK@ftCommands@ 300cd9c0     cg_servercmds.obj
 0002:000119cc       ??_C@_0L@FODFCMP@addToBuild@ 300cd9cc     cg_servercmds.obj
 0002:000119d8       ??_C@_0M@FNLAEBLD@spawnserver@ 300cd9d8     cg_servercmds.obj
 0002:000119e4       ??_C@_0BE@FKJCALKC@?$FO3Server?5Restarting@ 300cd9e4     cg_servercmds.obj
 0002:000119f8       ??_C@_09ILJOLLAJ@forcecvar@ 300cd9f8     cg_servercmds.obj
 0002:00011a04       ??_C@_02BLAHNHF@dc@        300cda04     cg_servercmds.obj
 0002:00011a08       ??_C@_0CB@KPHIIGNM@Unknown?5client?5game?5command?3?5?$CFs@ 300cda08     cg_servercmds.obj
 0002:00011a30       __real@3feff7ced916872b    300cda30     cg_servercmds.obj
 0002:00011a38       __real@3d4ccccd            300cda38     cg_shoutcaster.obj
 0002:00011a3c       __real@43700000            300cda3c     cg_shoutcaster.obj
 0002:00011a40       ??_C@_09BOIBCPC@r_oldMode@ 300cda40     cg_snapshot.obj
 0002:00011a4c       ??_C@_0CE@BCLPNDDL@CG_TransitionSnapshot?3?5NULL?5cg?4@ 300cda4c     cg_snapshot.obj
 0002:00011a70       ??_C@_0CI@JDFDPIEH@CG_TransitionSnapshot?3?5NULL?5cg?4@ 300cda70     cg_snapshot.obj
 0002:00011a98       ??_C@_0EF@CKIGFPMC@?$FLskipnotify?$FNWARNING?3?5CG_ReadNex@ 300cda98     cg_snapshot.obj
 0002:00011ae0       ??_C@_0CO@FFJEMNFE@CG_ProcessSnapshots?3?5n?5?$DM?5cg?4lat@ 300cdae0     cg_snapshot.obj
 0002:00011b10       ??_C@_0DA@GODLLJKJ@CG_ProcessSnapshots?3?5Server?5tim@ 300cdb10     cg_snapshot.obj
 0002:00011b40       ??_C@_0CF@EPBFNJFD@CG_ProcessSnapshots?3?5cg?4snap?5?$DN?$DN@ 300cdb40     cg_snapshot.obj
 0002:00011b68       ??_C@_0DI@NCDIEGIG@CG_ProcessSnapshots?3?5cg?4nextSna@ 300cdb68     cg_snapshot.obj
 0002:00011ba0       ??_C@_06JBIFONG@Noise?3@   300cdba0     cg_sound.obj
 0002:00011ba8       ??_C@_0M@FEMKDKIP@Targetname?3@ 300cdba8     cg_sound.obj
 0002:00011bb4       ??_C@_07PPOOCMMM@Looped?3@ 300cdbb4     cg_sound.obj
 0002:00011bbc       ??_C@_09DDJCDPP@no?$AAon?$AAoff@ 300cdbbc     cg_sound.obj
 0002:00011bc8       ??_C@_0L@CNGLAPLA@Broadcast?3@ 300cdbc8     cg_sound.obj
 0002:00011bd4       ??_C@_0BA@IOEGDCCK@no?$AAglobal?$AAnopvs@ 300cdbd4     cg_sound.obj
 0002:00011be4       ??_C@_05MLJLJOJC@Wait?3@   300cdbe4     cg_sound.obj
 0002:00011bec       ??_C@_07PILAENIE@Random?3@ 300cdbec     cg_sound.obj
 0002:00011bf4       ??_C@_07JIJHLOCJ@Volume?3@ 300cdbf4     cg_sound.obj
 0002:00011bfc       ??_C@_06PODHNFME@Range?3@  300cdbfc     cg_sound.obj
 0002:00011c04       ??_C@_02PNHBFOHM@Ok@       300cdc04     cg_sound.obj
 0002:00011c08       ??_C@_06FMBNCPDL@Cancel@   300cdc08     cg_sound.obj
 0002:00011c10       ??_C@_06JBKGCNBB@Delete@   300cdc10     cg_sound.obj
 0002:00011c18       ??_C@_0DE@MIEEBPCL@Unable?5to?5locate?5a?5valid?5sound?5@ 300cdc18     cg_sound.obj
 0002:00011c50       ??_C@_0ED@ECCDJHLJ@?$FO3WARNING?3?5CG_SoundPlaySoundScr@ 300cdc50     cg_sound.obj
 0002:00011c94       ??_C@_0CI@LPJBOIIE@no?5concluding?5?8?$HN?8?5in?5sound?5?$CFs?0?5@ 300cdc94     cg_sound.obj
 0002:00011cbc       ??_C@_0CP@HNMIHDON@?8?$HL?8?5found?5but?5not?5expected?0?5aft@ 300cdcbc     cg_sound.obj
 0002:00011cf0       ??_C@_0ED@BJJKAICM@MAX_SOUND_SCRIPT_SOUNDS?5exceede@ 300cdcf0     cg_sound.obj
 0002:00011d34       ??_C@_0CI@IKFIENLF@?8?$HN?8?5unexpected?5after?5sound?5?$CFs?0?5@ 300cdd34     cg_sound.obj
 0002:00011d5c       ??_C@_0DN@PPDMHNHH@MAX_SOUND_SCRIPTS?5exceeded?4?6Red@ 300cdd5c     cg_sound.obj
 0002:00011d9c       ??_C@_0CJ@KNEKDDMJ@?8?$CFs?8?5unexpected?5after?5sound?5?$CFs?0@ 300cdd9c     cg_sound.obj
 0002:00011dc8       ??_C@_07MFOHDNMP@channel@  300cddc8     cg_sound.obj
 0002:00011dd0       ??_C@_05IDKHKMLA@local@    300cddd0     cg_sound.obj
 0002:00011dd8       ??_C@_09JAFDDHI@announcer@ 300cddd8     cg_sound.obj
 0002:00011de4       ??_C@_04IEJGKNJ@body@      300cdde4     cg_sound.obj
 0002:00011dec       ??_C@_05JMBBACAO@voice@    300cddec     cg_sound.obj
 0002:00011df4       ??_C@_04NHONDGDE@item@     300cddf4     cg_sound.obj
 0002:00011dfc       ??_C@_04HAPDLBFF@auto@     300cddfc     cg_sound.obj
 0002:00011e04       ??_C@_09BHGOACKE@streaming@ 300cde04     cg_sound.obj
 0002:00011e10       ??_C@_07EOMMFHON@looping@  300cde10     cg_sound.obj
 0002:00011e18       ??_C@_0CE@PNBDICJL@Too?5many?5sounds?5for?5soundscript@ 300cde18     cg_sound.obj
 0002:00011e3c       ??_C@_0BL@NCGKKDPD@sound?1scripts?1filelist?4txt@ 300cde3c     cg_sound.obj
 0002:00011e58       ??_C@_0EL@IOEHKPLE@?$FO1WARNING?3?5no?5sound?5files?5found@ 300cde58     cg_sound.obj
 0002:00011ea4       ??_C@_0DB@CIDFADDE@?$CFs?5is?5too?5big?0?5make?5it?5smaller?5@ 300cdea4     cg_sound.obj
 0002:00011ed8       ??_C@_09BFPGABBG@?$CFs?4sounds@ 300cded8     cg_sound.obj
 0002:00011ee4       ??_C@_0CB@JAHPHFGF@?$FO1WARNING?3?5no?5sound?5files?5found@ 300cdee4     cg_sound.obj
 0002:00011f08       ??_C@_0BB@CMGKPEDA@sound?1scripts?1?$CFs@ 300cdf08     cg_sound.obj
 0002:00011f1c       ??_C@_0BB@NGOCHMHE@?4?4?4loading?5?8?$CFs?8?6@ 300cdf1c     cg_sound.obj
 0002:00011f30       ??_C@_0BB@OEPBHON@Couldn?8t?5load?5?$CFs@ 300cdf30     cg_sound.obj
 0002:00011f44       ??_C@_0DH@EHIFJBOB@?6?4?4?4?4?4?4?4?4?4?4?4?4?4?4?4?4?4?4?4?4?4?4?4?4?4?6Init@ 300cdf44     cg_sound.obj
 0002:00011f7c       ??_C@_06GAOLIIF@done?4?6@  300cdf7c     cg_sound.obj
 0002:00011f84       ??_C@_0DJ@KEBBPCNP@?$FO1ERROR?3?5failed?5to?5save?5speaker@ 300cdf84     cg_sound.obj
 0002:00011fc0       ??_C@_0BA@CPDGJLDP@speakerScript?6?$HL@ 300cdfc0     cg_sound.obj
 0002:00011fd0       ??_C@_0O@ENELJIKO@?7?7noise?5?$CC?$CFs?$CC?6@ 300cdfd0     cg_sound.obj
 0002:00011fe0       ??_C@_0BJ@EEODNAAK@?7?7origin?5?$CF?42f?5?$CF?42f?5?$CF?42f?6@ 300cdfe0     cg_sound.obj
 0002:00011ffc       ??_C@_0BD@MNIMIJOH@?7?7targetname?5?$CC?$CFs?$CC?6@ 300cdffc     cg_sound.obj
 0002:00012010       ??_C@_0P@HNODEBIE@?7?7looped?5?$CC?$CFs?$CC?6@ 300ce010     cg_sound.obj
 0002:00012020       ??_C@_0BC@BBGBLHIG@?7?7broadcast?5?$CC?$CFs?$CC?6@ 300ce020     cg_sound.obj
 0002:00012034       ??_C@_0L@POPKHLKJ@?7?7wait?5?$CFi?6@ 300ce034     cg_sound.obj
 0002:00012040       ??_C@_0N@JAIMLBKK@?7?7random?5?$CFi?6@ 300ce040     cg_sound.obj
 0002:00012050       ??_C@_0N@NLLHHIOM@?7?7volume?5?$CFi?6@ 300ce050     cg_sound.obj
 0002:00012060       ??_C@_0M@ODOHMLOA@?7?7range?5?$CFi?6@ 300ce060     cg_sound.obj
 0002:0001206c       ??_C@_0CF@EKDEOEBG@?6?7speakerDef?5?$HL?6?$CFs?$CFs?$CFs?$CFs?$CFs?$CFs?$CFs?$CFs@ 300ce06c     cg_sound.obj
 0002:00012094       ??_C@_0CK@CJDPNJGE@Saved?5?$CFi?5speakers?5to?5?8sound?1map@ 300ce094     cg_sound.obj
 0002:000120c0       ??_C@_0BL@PHLLNHDL@Speaker?5at?5?$CF?42f?5?$CF?42f?5?$CF?42f?6@ 300ce0c0     cg_sound.obj
 0002:000120dc       ??_C@_0L@OCDDAEFO@noise?3?5?$CFs?6@ 300ce0dc     cg_sound.obj
 0002:000120e8       ??_C@_0BA@CMJPFJPE@targetname?3?5?$CFs?6@ 300ce0e8     cg_sound.obj
 0002:000120f8       ??_C@_0M@CHHEKKG@looped?3?5?$CFs?6@ 300ce0f8     cg_sound.obj
 0002:00012104       ??_C@_0P@KHEIJHKL@broadcast?3?5?$CFs?6@ 300ce104     cg_sound.obj
 0002:00012114       ??_C@_09NKFOJPMB@wait?3?5?$CFi?6@ 300ce114     cg_sound.obj
 0002:00012120       ??_C@_0M@LOCPFILM@random?3?5?$CFi?6@ 300ce120     cg_sound.obj
 0002:0001212c       ??_C@_0M@CBNLIHNA@volume?3?5?$CFi?6@ 300ce12c     cg_sound.obj
 0002:00012138       ??_C@_0L@NFDHBGFP@range?3?5?$CFi?6@ 300ce138     cg_sound.obj
 0002:00012144       ??_C@_0BD@LIHNMEBN@?$CFs?$CFs?$CFs?$CFs?$CFs?$CFs?$CFs?$CFs?$CFs@ 300ce144     cg_sound.obj
 0002:00012158       ??_C@_01FCMHBHNC@V@        300ce158     cg_sound.obj
 0002:0001215c       ??_C@_0BK@DJFFIPIK@Speaker?5at?5?$CF?42f?5?$CF?42f?5?$CF?42f@ 300ce15c     cg_sound.obj
 0002:00012178       ??_C@_0EB@OMADHECB@Current?5amount?5of?5speakers?5in?5m@ 300ce178     cg_sound.obj
 0002:000121bc       ??_C@_0M@HJFPDILC@dumpspeaker@ 300ce1bc     cg_sound.obj
 0002:000121c8       ??_C@_06ENDIBGDN@?5or?5?$CFs@ 300ce1c8     cg_sound.obj
 0002:000121d0       ??_C@_0BJ@HJMNDHKE@Create?5new?5speaker?3?5?$CFs?$CFs@ 300ce1d0     cg_sound.obj
 0002:000121ec       ??_C@_0O@DBDKGMKD@modifyspeaker@ 300ce1ec     cg_sound.obj
 0002:000121fc       ??_C@_0BM@GLEBGLMD@Modify?5target?5speaker?3?5?$CFs?$CFs@ 300ce1fc     cg_sound.obj
 0002:00012218       ??_C@_0M@OMFJHMME@undospeaker@ 300ce218     cg_sound.obj
 0002:00012224       ??_C@_06LEMKAMD@remove@    300ce224     cg_sound.obj
 0002:0001222c       ??_C@_06OJGLKMAC@modify@   300ce22c     cg_sound.obj
 0002:00012234       ??_C@_0BG@OCINBHCM@Undo?5?$CFs?5speaker?3?5?$CFs?$CFs@ 300ce234     cg_sound.obj
 0002:0001224c       ??_C@_0BP@PADKIJJB@Activating?5Speaker?5Edit?5mode?4?6@ 300ce24c     cg_sound.obj
 0002:0001226c       ??_C@_0BB@CMAANFNK@gfx?1misc?1speaker@ 300ce26c     cg_sound.obj
 0002:00012280       ??_C@_0BE@KGLFGJPE@gfx?1misc?1speaker_gs@ 300ce280     cg_sound.obj
 0002:00012294       ??_C@_0CC@NGPIFBGI@De?9activating?5Speaker?5Edit?5mode@ 300ce294     cg_sound.obj
 0002:000122b8       ??_C@_0EJ@IGCFCEJ@?$FO3UNDO?3?5restoring?5deleted?5speak@ 300ce2b8     cg_sound.obj
 0002:00012304       ??_C@_0DD@LGONFHKF@UNDO?3?5restored?5deleted?5speaker?5@ 300ce304     cg_sound.obj
 0002:00012338       ??_C@_0EB@MOLHEPKI@UNDO?3?5restoring?5modified?5settin@ 300ce338     cg_sound.obj
 0002:0001237c       __real@41080000            300ce37c     cg_sound.obj
 0002:00012380       __real@43dd0000            300ce380     cg_sound.obj
 0002:00012384       __real@c3700000            300ce384     cg_sound.obj
 0002:00012388       __real@c3a00000            300ce388     cg_sound.obj
 0002:0001238c       ??_C@_0O@KNFCCLBN@path_corner_2@ 300ce38c     cg_spawn.obj
 0002:0001239c       ??_C@_0BH@NCIIEBNE@info_train_spline_main@ 300ce39c     cg_spawn.obj
 0002:000123b4       ??_C@_0BK@LJJEPODN@info_train_spline_control@ 300ce3b4     cg_spawn.obj
 0002:000123d0       ??_C@_0BH@BLFALKFD@trigger_objective_info@ 300ce3d0     cg_spawn.obj
 0002:000123e8       ??_C@_0P@HBHINBCE@misc_gamemodel@ 300ce3e8     cg_spawn.obj
 0002:000123f8       ??_C@_0CL@LKEAINCN@CG_SpawnString?$CI?$CJ?5called?5while?5n@ 300ce3f8     cg_spawn.obj
 0002:00012424       ??_C@_08OEKJENGB@?$CFf?5?$CFf?5?$CFf@ 300ce424     cg_spawn.obj
 0002:00012430       ??_C@_05KCDNKPCA@?$CFf?5?$CFf@ 300ce430     cg_spawn.obj
 0002:00012438       ??_C@_0L@OPPGOKFJ@?$CI?$CFi?5?$CFi?5?$CFi?$CJ@ 300ce438     cg_spawn.obj
 0002:00012444       ??_C@_05JMKGPOEH@0?50?50@  300ce444     cg_spawn.obj
 0002:0001244c       ??_C@_0CI@BDNOPLEI@path_corner_2?5with?5no?5targetnam@ 300ce44c     cg_spawn.obj
 0002:00012474       ??_C@_0BK@MPFBDCKP@Maximum?5path_corners?5hit?6@ 300ce474     cg_spawn.obj
 0002:00012490       ??_C@_0CH@OFJDAKGH@info_train_spline_main?5with?5no?5@ 300ce490     cg_spawn.obj
 0002:000124b8       ??_C@_0DB@OPPOHHLH@info_train_spline_main?5with?5no?5@ 300ce4b8     cg_spawn.obj
 0002:000124ec       ??_C@_06JJLAMBGK@target@   300ce4ec     cg_spawn.obj
 0002:000124f4       ??_C@_03JBJLGPFL@end@      300ce4f4     cg_spawn.obj
 0002:000124f8       ??_C@_05FAGFPHJG@start@    300ce4f8     cg_spawn.obj
 0002:00012500       ??_C@_07MMBOFDEG@control@  300ce500     cg_spawn.obj
 0002:00012508       ??_C@_09NOPIHADG@control?$CFi@ 300ce508     cg_spawn.obj
 0002:00012514       ??_C@_0L@FJFPJEHG@scriptname@ 300ce514     cg_spawn.obj
 0002:00012520       ??_C@_0L@HLIKNEFC@spawnflags@ 300ce520     cg_spawn.obj
 0002:0001252c       ??_C@_0CA@HPALNOBC@?$FO1MAX_STATIC_GAMEMODELS?$CI?$CFi?$CJ?5hit@ 300ce52c     cg_spawn.obj
 0002:0001254c       ??_C@_05NCCFOPHA@model@    300ce54c     cg_spawn.obj
 0002:00012554       ??_C@_06GNEAMJOC@angles@   300ce554     cg_spawn.obj
 0002:0001255c       ??_C@_05FECBCJJD@angle@    300ce55c     cg_spawn.obj
 0002:00012564       ??_C@_05PGFNHLMG@1?51?51@  300ce564     cg_spawn.obj
 0002:0001256c       ??_C@_0P@OMAFFCFF@modelscale_vec@ 300ce56c     cg_spawn.obj
 0002:0001257c       ??_C@_0L@HDLPNNAF@modelscale@ 300ce57c     cg_spawn.obj
 0002:00012588       ??_C@_0BD@EDKEKOMM@?$FO1No?5Text?5Supplied@ 300ce588     cg_spawn.obj
 0002:0001259c       ??_C@_0L@JOFGKMBF@infoAllied@ 300ce59c     cg_spawn.obj
 0002:000125a8       ??_C@_08LFJPIJGH@infoAxis@ 300ce5a8     cg_spawn.obj
 0002:000125b4       ??_C@_07CLBNBEAH@notteam@  300ce5b4     cg_spawn.obj
 0002:000125bc       ??_C@_09CNJINBGN@classname@ 300ce5bc     cg_spawn.obj
 0002:000125c8       ??_C@_0CE@KFIMGHLL@CG_AddSpawnVarToken?3?5MAX_SPAWN_@ 300ce5c8     cg_spawn.obj
 0002:000125ec       ??_C@_0CN@LHOGJKHF@CG_ParseSpawnVars?3?5found?5?$CFs?5whe@ 300ce5ec     cg_spawn.obj
 0002:0001261c       ??_C@_0CN@KDIJEMJC@CG_ParseSpawnVars?3?5EOF?5without?5@ 300ce61c     cg_spawn.obj
 0002:0001264c       ??_C@_0CO@LBIGDOPL@CG_ParseSpawnVars?3?5closing?5brac@ 300ce64c     cg_spawn.obj
 0002:0001267c       ??_C@_0CC@FFKCCAOL@CG_ParseSpawnVars?3?5MAX_SPAWN_VA@ 300ce67c     cg_spawn.obj
 0002:000126a0       ??_C@_0L@BIFLFHPF@worldspawn@ 300ce6a0     cg_spawn.obj
 0002:000126ac       ??_C@_0DD@EBBCPGHA@SP_worldspawn?3?5The?5first?5entity@ 300ce6ac     cg_spawn.obj
 0002:000126e0       ??_C@_08ENNMNBDI@?9128?5128@ 300ce6e0     cg_spawn.obj
 0002:000126ec       ??_C@_0O@PFKBFMMK@mapcoordsmins@ 300ce6ec     cg_spawn.obj
 0002:000126fc       ??_C@_08DKMCHMLH@128?5?9128@ 300ce6fc     cg_spawn.obj
 0002:00012708       ??_C@_0O@CILOKLOH@mapcoordsmaxs@ 300ce708     cg_spawn.obj
 0002:00012718       ??_C@_08GJPBIIC@cclayers@  300ce718     cg_spawn.obj
 0002:00012724       ??_C@_0O@KOBCMPIM@cclayerceil?$CFi@ 300ce724     cg_spawn.obj
 0002:00012734       ??_C@_0L@GCIACJPL@atmosphere@ 300ce734     cg_spawn.obj
 0002:00012740       ??_C@_0BB@CHIKPOGO@axis_hq_5minutes@ 300ce740     cg_spawn.obj
 0002:00012754       ??_C@_0BF@MPICIPOA@fiveMinuteSound_axis@ 300ce754     cg_spawn.obj
 0002:0001276c       ??_C@_0BD@GMDFMIHL@allies_hq_5minutes@ 300ce76c     cg_spawn.obj
 0002:00012780       ??_C@_0BH@DPHHNLB@fiveMinuteSound_allied@ 300ce780     cg_spawn.obj
 0002:00012798       ??_C@_0BB@EDOLJDKH@axis_hq_2minutes@ 300ce798     cg_spawn.obj
 0002:000127ac       ??_C@_0BE@IHLHFEFG@twoMinuteSound_axis@ 300ce7ac     cg_spawn.obj
 0002:000127c0       ??_C@_0BD@IFEKFLC@allies_hq_2minutes@ 300ce7c0     cg_spawn.obj
 0002:000127d4       ??_C@_0BG@KAGJDHOG@twoMinuteSound_allied@ 300ce7d4     cg_spawn.obj
 0002:000127ec       ??_C@_0BC@MDJHDGAK@axis_hq_30seconds@ 300ce7ec     cg_spawn.obj
 0002:00012800       ??_C@_0BH@HFNLPNIH@thirtySecondSound_axis@ 300ce800     cg_spawn.obj
 0002:00012818       ??_C@_0BE@KOABGNNH@allies_hq_30seconds@ 300ce818     cg_spawn.obj
 0002:0001282c       ??_C@_0BJ@JHEACKJI@thirtySecondSound_allied@ 300ce82c     cg_spawn.obj
 0002:00012848       ??_C@_0BL@PHJAPJLP@ParseEntities?3?5no?5entities@ 300ce848     cg_spawn.obj
 0002:00012864       ??_C@_0BE@GIFDIDPO@gfx?1hud?1ranks?1rank1@ 300ce864     cg_statsranksmedals.obj
 0002:00012878       ??_C@_0BD@GMOOECLC@helmet?1ranks?1rank1@ 300ce878     cg_statsranksmedals.obj
 0002:0001288c       ??_C@_0BE@EDHONADN@gfx?1hud?1ranks?1rank2@ 300ce88c     cg_statsranksmedals.obj
 0002:000128a0       ??_C@_0BD@EHMDBBHB@helmet?1ranks?1rank2@ 300ce8a0     cg_statsranksmedals.obj
 0002:000128b4       ??_C@_0BE@FKGFOBHM@gfx?1hud?1ranks?1rank3@ 300ce8b4     cg_statsranksmedals.obj
 0002:000128c8       ??_C@_0BD@FONICADA@helmet?1ranks?1rank3@ 300ce8c8     cg_statsranksmedals.obj
 0002:000128dc       ??_C@_0BE@BFCEHHLL@gfx?1hud?1ranks?1rank4@ 300ce8dc     cg_statsranksmedals.obj
 0002:000128f0       ??_C@_0BD@BBJJLGPH@helmet?1ranks?1rank4@ 300ce8f0     cg_statsranksmedals.obj
 0002:00012904       ??_C@_0BE@MDPEGPK@gfx?1hud?1ranks?1rank5@ 300ce904     cg_statsranksmedals.obj
 0002:00012918       ??_C@_0BD@IICIHLG@helmet?1ranks?1rank5@ 300ce918     cg_statsranksmedals.obj
 0002:0001292c       ??_C@_0BE@CHBCBFDJ@gfx?1hud?1ranks?1rank6@ 300ce92c     cg_statsranksmedals.obj
 0002:00012940       ??_C@_0BD@CDKPNEHF@helmet?1ranks?1rank6@ 300ce940     cg_statsranksmedals.obj
 0002:00012954       ??_C@_0BE@DOAJCEHI@gfx?1hud?1ranks?1rank7@ 300ce954     cg_statsranksmedals.obj
 0002:00012968       ??_C@_0BD@DKLEOFDE@helmet?1ranks?1rank7@ 300ce968     cg_statsranksmedals.obj
 0002:0001297c       ??_C@_0BE@LJJBDILH@gfx?1hud?1ranks?1rank8@ 300ce97c     cg_statsranksmedals.obj
 0002:00012990       ??_C@_0BD@LNCMPJPL@helmet?1ranks?1rank8@ 300ce990     cg_statsranksmedals.obj
 0002:000129a4       ??_C@_0BE@KAIKAJPG@gfx?1hud?1ranks?1rank9@ 300ce9a4     cg_statsranksmedals.obj
 0002:000129b8       ??_C@_0BD@KEDHMILK@helmet?1ranks?1rank9@ 300ce9b8     cg_statsranksmedals.obj
 0002:000129cc       ??_C@_0BF@IFCLLKGL@gfx?1hud?1ranks?1rank10@ 300ce9cc     cg_statsranksmedals.obj
 0002:000129e4       ??_C@_0BE@PKEFAKBB@helmet?1ranks?1rank10@ 300ce9e4     cg_statsranksmedals.obj
 0002:000129f8       ??_C@_0BF@JMDAILCK@gfx?1hud?1ranks?1rank11@ 300ce9f8     cg_statsranksmedals.obj
 0002:00012a10       ??_C@_0BE@ODFODLFA@helmet?1ranks?1rank11@ 300cea10     cg_statsranksmedals.obj
 0002:00012a28       __real@3fd999999999999a    300cea28     cg_trails.obj
 0002:00012a44       ??_C@_07BEAPAIHM@NO_GUID@  300cea44     cg_uid.obj
 0002:00012a4c       ??_C@_0BI@MIFGIJGB@www?4etkey?4org?1etkey?4php@ 300cea4c     cg_uid.obj
 0002:00012a64       ??_C@_07EEBDLOIC@cl_guid@  300cea64     cg_uid.obj
 0002:00012a6c       ??_C@_0BJ@BPDMGPGE@Searching?5etkey?5file?4?4?4?6@ 300cea6c     cg_uid.obj
 0002:00012a88       ??_C@_0O@CALIICDC@?1etmain?1etkey@ 300cea88     cg_uid.obj
 0002:00012a98       ??_C@_05EGJADNMM@etkey@    300cea98     cg_uid.obj
 0002:00012aa0       ??_C@_0M@DPNKMMOG@USERPROFILE@ 300ceaa0     cg_uid.obj
 0002:00012aac       ??_C@_0CG@PPNJLKNI@?$CFs?2AppData?2Local?2PunkBuster?2ET?2@ 300ceaac     cg_uid.obj
 0002:00012ad4       ??_C@_02GMLFBBN@wb@        300cead4     cg_uid.obj
 0002:00012ad8       ??_C@_0BL@NPFHEMMH@Downloading?5etkey?5file?4?4?4?6@ 300cead8     cg_uid.obj
 0002:00012af4       ??_C@_0CD@JJMKMJOF@ETkey?5file?5found?0?5loadind?5GUID?4@ 300ceaf4     cg_uid.obj
 0002:00012b18       ??_C@_0FH@EDIMABHA@You?5need?5an?5etkey?4?4?4?5Automatic?5@ 300ceb18     cg_uid.obj
 0002:00012b70       ??_C@_0BI@FPBIKGFN@Actual?5client?5guid?5?$CFs?5?6@ 300ceb70     cg_uid.obj
 0002:00012b88       ??_C@_0BG@GCFGCMGP@Can?8t?5register?5model?6@ 300ceb88     cg_view.obj
 0002:00012ba0       ??_C@_09FLAEHDCJ@frame?5?$CFi?6@ 300ceba0     cg_view.obj
 0002:00012bac       ??_C@_08JKENKHJN@skin?5?$CFi?6@ 300cebac     cg_view.obj
 0002:00012bb8       ??_C@_0P@PEILODOP@cg_recoilPitch@ 300cebb8     cg_view.obj
 0002:00012bc8       ??_C@_0BJ@OHJGIHPN@setCameraOrigin?5?$CFf?5?$CFf?5?$CFf@ 300cebc8     cg_view.obj
 0002:00012be4       ??_C@_0DD@NHGEKDAF@CG_ParseSkyBox?3?5error?5parsing?5s@ 300cebe4     cg_view.obj
 0002:00012c18       ??_C@_0EC@HOGIMGFO@CG_ParseSkyBox?3?5error?5parsing?5s@ 300cec18     cg_view.obj
 0002:00012c60       ??_C@_0EE@BEKLHJKK@CG_DrawSkyBoxPortal?3?5error?5pars@ 300cec60     cg_view.obj
 0002:00012ca8       ??_C@_0EE@KMBHBOMP@CG_DrawSkyBoxPortal?3?5error?5pars@ 300ceca8     cg_view.obj
 0002:00012cf0       ??_C@_0EE@LOKCLBCB@CG_DrawSkyBoxPortal?3?5error?5pars@ 300cecf0     cg_view.obj
 0002:00012d34       ??_C@_0CB@JHDNLMFC@Invalid?5TAGCONNECT?5configstring@ 300ced34     cg_view.obj
 0002:00012d58       ??_C@_0BO@BBLJCKOG@Invalid?5TAGCONNECT?5entitynum?6@ 300ced58     cg_view.obj
 0002:00012d78       ??_C@_0BO@MFGNAEAO@Invalid?5TAGCONNECT?5tagparent?6@ 300ced78     cg_view.obj
 0002:00012d98       ??_C@_0BO@MLPHFFPN@server?5forcing?5cvar?5?$CFs?5to?5?$CFs?6@ 300ced98     cg_view.obj
 0002:00012db8       ??_C@_0BD@PLOBIDP@cg?4clientFrame?3?$CFi?6@ 300cedb8     cg_view.obj
 0002:00012dd0       __real@3faeb851eb851eb8    300cedd0     cg_view.obj
 0002:00012dd8       __real@3fbeb851e0000000    300cedd8     cg_view.obj
 0002:00012de0       __real@3fc0a3d700000000    300cede0     cg_view.obj
 0002:00012de8       __real@3fceb851e0000000    300cede8     cg_view.obj
 0002:00012df0       __real@3fe6666660000000    300cedf0     cg_view.obj
 0002:00012df8       __real@3feb333333333333    300cedf8     cg_view.obj
 0002:00012e00       __real@401399999999999a    300cee00     cg_view.obj
 0002:00012e08       __real@42080000            300cee08     cg_view.obj
 0002:00012e0c       __real@43200000            300cee0c     cg_view.obj
 0002:00012e10       __real@43e10000            300cee10     cg_view.obj
 0002:00012e18       __real@c04ca5dc00000000    300cee18     cg_view.obj
 0002:00012e20       __real@c2480000            300cee20     cg_view.obj
 0002:00012e30       __xmm@80000000000000008000000000000000 300cee30     cg_view.obj
 0002:00012e40       ??_C@_06LPMAPJFB@newfmt@   300cee40     cg_weapons.obj
 0002:00012e48       ??_C@_0CI@BGBFKJG@unknown?5token?5in?5weapon?5cfg?5?8?$CFs@ 300cee48     cg_weapons.obj
 0002:00012e70       ??_C@_0CI@LCCPAJPK@Error?5parsing?5weapon?5animation?5@ 300cee70     cg_weapons.obj
 0002:00012e98       ??_C@_0BE@GEPGKGAA@expected?5part?5index@ 300cee98     cg_weapons.obj
 0002:00012eac       ??_C@_0BJ@NOHDAKII@part?5index?5out?5of?5bounds@ 300ceeac     cg_weapons.obj
 0002:00012ec8       ??_C@_03FJEPELFP@tag@      300ceec8     cg_weapons.obj
 0002:00012ecc       ??_C@_0BC@CHFAMKHB@expected?5tag?5name@ 300ceecc     cg_weapons.obj
 0002:00012ee0       ??_C@_0BI@GMIJHIDJ@expected?5model?5filename@ 300ceee0     cg_weapons.obj
 0002:00012ef8       ??_C@_08JBCPPBFF@axisSkin@ 300ceef8     cg_weapons.obj
 0002:00012f04       ??_C@_0L@NOANHHKE@alliedSkin@ 300cef04     cg_weapons.obj
 0002:00012f10       ??_C@_04FPLDHIIH@part@     300cef10     cg_weapons.obj
 0002:00012f18       ??_C@_0L@KNOIEDJK@flashModel@ 300cef18     cg_weapons.obj
 0002:00012f24       ??_C@_0BN@NFNGPFOA@expected?5flashModel?5filename@ 300cef24     cg_weapons.obj
 0002:00012f44       ??_C@_0L@MDIKMJIB@weaponLink@ 300cef44     cg_weapons.obj
 0002:00012f50       ??_C@_0BD@LPGIHMCO@expected?5mod?5index@ 300cef50     cg_weapons.obj
 0002:00012f64       ??_C@_0BI@EPHBFKOB@mod?5index?5out?5of?5bounds@ 300cef64     cg_weapons.obj
 0002:00012f7c       ??_C@_0L@GGCOKEIB@standModel@ 300cef7c     cg_weapons.obj
 0002:00012f88       ??_C@_0BN@KGLEEBPC@expected?5standModel?5filename@ 300cef88     cg_weapons.obj
 0002:00012fa8       ??_C@_0BC@LDAIDPJN@droppedAnglesHack@ 300cefa8     cg_weapons.obj
 0002:00012fbc       ??_C@_0M@PMHDELBG@pickupModel@ 300cefbc     cg_weapons.obj
 0002:00012fc8       ??_C@_0BO@FANMADCH@expected?5pickupModel?5filename@ 300cefc8     cg_weapons.obj
 0002:00012fe8       ??_C@_0M@OJIGHNOO@pickupSound@ 300cefe8     cg_weapons.obj
 0002:00012ff4       ??_C@_0BO@FLANLOAJ@expected?5pickupSound?5filename@ 300ceff4     cg_weapons.obj
 0002:00013014       ??_C@_0N@HPOBFGHC@weaponConfig@ 300cf014     cg_weapons.obj
 0002:00013024       ??_C@_0BP@ODLCKKMA@expected?5weaponConfig?5filename@ 300cf024     cg_weapons.obj
 0002:00013044       ??_C@_0L@MGHONMPL@handsModel@ 300cf044     cg_weapons.obj
 0002:00013050       ??_C@_0BN@IGEFHKMF@expected?5handsModel?5filename@ 300cf050     cg_weapons.obj
 0002:00013070       ??_C@_0BB@JPDHPCLA@flashDlightColor@ 300cf070     cg_weapons.obj
 0002:00013084       ??_C@_0CD@PHNBKCEG@expected?5flashDlightColor?5as?5r?5@ 300cf084     cg_weapons.obj
 0002:000130a8       ??_C@_0L@LIBNHFGC@flashSound@ 300cf0a8     cg_weapons.obj
 0002:000130b4       ??_C@_0BN@NOAHEIMO@expected?5flashSound?5filename@ 300cf0b4     cg_weapons.obj
 0002:000130d4       ??_C@_0DK@BICOMHE@?$FO3WARNING?3?5only?5up?5to?54?5flashSo@ 300cf0d4     cg_weapons.obj
 0002:00013110       ??_C@_0P@GJKKCAMK@flashEchoSound@ 300cf110     cg_weapons.obj
 0002:00013120       ??_C@_0CB@DDAIABIA@expected?5flashEchoSound?5filenam@ 300cf120     cg_weapons.obj
 0002:00013144       ??_C@_0DO@MNONAAKJ@?$FO3WARNING?3?5only?5up?5to?54?5flashEc@ 300cf144     cg_weapons.obj
 0002:00013184       ??_C@_0O@GMBDDDKI@lastShotSound@ 300cf184     cg_weapons.obj
 0002:00013194       ??_C@_0CA@ODDGMPMA@expected?5lastShotSound?5filename@ 300cf194     cg_weapons.obj
 0002:000131b4       ??_C@_0DM@DKFHGPHP@?$FO3WARNING?3?5only?5up?5to?54?5lastSho@ 300cf1b4     cg_weapons.obj
 0002:000131f0       ??_C@_0L@ONPAEGKJ@readySound@ 300cf1f0     cg_weapons.obj
 0002:000131fc       ??_C@_0BN@NBODNPFG@expected?5readySound?5filename@ 300cf1fc     cg_weapons.obj
 0002:0001321c       ??_C@_0M@GPJBHIJP@firingSound@ 300cf21c     cg_weapons.obj
 0002:00013228       ??_C@_0BO@JOKFDCHO@expected?5firingSound?5filename@ 300cf228     cg_weapons.obj
 0002:00013248       ??_C@_0O@KGEALIAE@overheatSound@ 300cf248     cg_weapons.obj
 0002:00013258       ??_C@_0CA@ENLJOJEM@expected?5overheatSound?5filename@ 300cf258     cg_weapons.obj
 0002:00013278       ??_C@_0M@MICAPMDL@reloadSound@ 300cf278     cg_weapons.obj
 0002:00013284       ??_C@_0BO@HCIHAPPM@expected?5reloadSound?5filename@ 300cf284     cg_weapons.obj
 0002:000132a4       ??_C@_0BA@IKGPAPKD@reloadFastSound@ 300cf2a4     cg_weapons.obj
 0002:000132b4       ??_C@_0CC@EALJKIAJ@expected?5reloadFastSound?5filena@ 300cf2b4     cg_weapons.obj
 0002:000132d8       ??_C@_0M@BGBGIANG@spinupSound@ 300cf2d8     cg_weapons.obj
 0002:000132e4       ??_C@_0BO@KBIGAAKI@expected?5spinupSound?5filename@ 300cf2e4     cg_weapons.obj
 0002:00013304       ??_C@_0O@BNGMEACJ@spindownSound@ 300cf304     cg_weapons.obj
 0002:00013314       ??_C@_0CA@GKJJDDBJ@expected?5spindownSound?5filename@ 300cf314     cg_weapons.obj
 0002:00013334       ??_C@_0M@OICGLHLP@switchSound@ 300cf334     cg_weapons.obj
 0002:00013340       ??_C@_0BO@FJLFLAAI@expected?5switchSound?5filename@ 300cf340     cg_weapons.obj
 0002:00013360       ??_C@_0L@BIGCDIOH@weaponIcon@ 300cf360     cg_weapons.obj
 0002:0001336c       ??_C@_0BN@EDGBGLNO@expected?5weaponIcon?5filename@ 300cf36c     cg_weapons.obj
 0002:0001338c       ??_C@_0BD@MEMIOJFB@weaponSelectedIcon@ 300cf38c     cg_weapons.obj
 0002:000133a0       ??_C@_0CF@NBIFNKCM@expected?5weaponSelectedIcon?5fil@ 300cf3a0     cg_weapons.obj
 0002:000133c8       ??_C@_0N@EDKPAKPO@missileModel@ 300cf3c8     cg_weapons.obj
 0002:000133d8       ??_C@_0BP@GNGHGOA@expected?5missileModel?5filename@ 300cf3d8     cg_weapons.obj
 0002:000133f8       ??_C@_0BC@LFICONFA@missileAlliedSkin@ 300cf3f8     cg_weapons.obj
 0002:0001340c       ??_C@_0BA@FEOAKKNJ@missileAxisSkin@ 300cf40c     cg_weapons.obj
 0002:0001341c       ??_C@_0N@FGFKDMAG@missileSound@ 300cf41c     cg_weapons.obj
 0002:0001342c       ??_C@_0BP@NAHMLMO@expected?5missileSound?5filename@ 300cf42c     cg_weapons.obj
 0002:0001344c       ??_C@_0BB@CDNLBMFD@missileTrailFunc@ 300cf44c     cg_weapons.obj
 0002:00013460       ??_C@_0BK@BNJBJNDA@expected?5missileTrailFunc@ 300cf460     cg_weapons.obj
 0002:0001347c       ??_C@_0N@MJEHNKJE@GrenadeTrail@ 300cf47c     cg_weapons.obj
 0002:0001348c       ??_C@_0M@OKFFNIDM@RocketTrail@ 300cf48c     cg_weapons.obj
 0002:00013498       ??_C@_0P@GJKLHGIK@PyroSmokeTrail@ 300cf498     cg_weapons.obj
 0002:000134a8       ??_C@_0O@CHJNIHGL@DynamiteTrail@ 300cf4a8     cg_weapons.obj
 0002:000134b8       ??_C@_0O@FHIJFPHI@missileDlight@ 300cf4b8     cg_weapons.obj
 0002:000134c8       ??_C@_0BN@NHEEJGKO@expected?5missileDlight?5value@ 300cf4c8     cg_weapons.obj
 0002:000134e8       ??_C@_0BD@PMAOBIOK@missileDlightColor@ 300cf4e8     cg_weapons.obj
 0002:000134fc       ??_C@_0CF@IOFIODGN@expected?5missileDlightColor?5as?5@ 300cf4fc     cg_weapons.obj
 0002:00013524       ??_C@_0P@IKDCKODN@ejectBrassFunc@ 300cf524     cg_weapons.obj
 0002:00013534       ??_C@_0BI@MICJOPMO@expected?5ejectBrassFunc@ 300cf534     cg_weapons.obj
 0002:0001354c       ??_C@_0BF@IJNNPEGO@MachineGunEjectBrass@ 300cf54c     cg_weapons.obj
 0002:00013564       ??_C@_0BG@KBEGIOOE@PanzerFaustEjectBrass@ 300cf564     cg_weapons.obj
 0002:0001357c       ??_C@_08FJFMODFJ@modModel@ 300cf57c     cg_weapons.obj
 0002:00013588       ??_C@_0M@ECNFGMKN@firstPerson@ 300cf588     cg_weapons.obj
 0002:00013594       ??_C@_0M@NHPGJPHJ@thirdPerson@ 300cf594     cg_weapons.obj
 0002:000135a0       ??_C@_09FIFAMDKO@weaponDef@ 300cf5a0     cg_weapons.obj
 0002:000135ac       ??_C@_0BF@BGKLADOF@expected?5?8weaponDef?8@ 300cf5ac     cg_weapons.obj
 0002:000135c4       ??_C@_06DGDLPBAN@client@   300cf5c4     cg_weapons.obj
 0002:000135cc       ??_C@_0L@LOPBBGE@knife?4weap@ 300cf5cc     cg_weapons.obj
 0002:000135d8       ??_C@_0L@BJKOAAMJ@luger?4weap@ 300cf5d8     cg_weapons.obj
 0002:000135e4       ??_C@_09CGJKKAAK@colt?4weap@ 300cf5e4     cg_weapons.obj
 0002:000135f0       ??_C@_09HNKNKEAA@mp40?4weap@ 300cf5f0     cg_weapons.obj
 0002:000135fc       ??_C@_0O@LJFCODHN@thompson?4weap@ 300cf5fc     cg_weapons.obj
 0002:0001360c       ??_C@_09PDEACFOF@sten?4weap@ 300cf60c     cg_weapons.obj
 0002:00013618       ??_C@_0N@HPGGKLAE@grenade?4weap@ 300cf618     cg_weapons.obj
 0002:00013628       ??_C@_0P@JNODMFGB@pineapple?4weap@ 300cf628     cg_weapons.obj
 0002:00013638       ??_C@_0BB@JDDLMOOE@panzerfaust?4weap@ 300cf638     cg_weapons.obj
 0002:0001364c       ??_C@_0BC@PMAEPCG@flamethrower?4weap@ 300cf64c     cg_weapons.obj
 0002:00013660       ??_C@_0O@HFJKHFCO@ammopack?4weap@ 300cf660     cg_weapons.obj
 0002:00013670       ??_C@_0BA@LADDDKOP@smoketrail?4weap@ 300cf670     cg_weapons.obj
 0002:00013680       ??_C@_0N@JPKKNFIO@medpack?4weap@ 300cf680     cg_weapons.obj
 0002:00013690       ??_C@_0M@OONLIMNI@pliers?4weap@ 300cf690     cg_weapons.obj
 0002:0001369c       ??_C@_0BB@DONIJMK@smokemarker?4weap@ 300cf69c     cg_weapons.obj
 0002:000136b0       ??_C@_0O@OPKGMFNG@dynamite?4weap@ 300cf6b0     cg_weapons.obj
 0002:000136c0       ??_C@_0BA@DPLJOFPE@adrenaline?4weap@ 300cf6c0     cg_weapons.obj
 0002:000136d0       ??_C@_0N@EOGNMBEF@syringe?4weap@ 300cf6d0     cg_weapons.obj
 0002:000136e0       ??_C@_0M@LIEMPDKL@binocs?4weap@ 300cf6e0     cg_weapons.obj
 0002:000136ec       ??_C@_0L@BKHFPPFI@kar98?4weap@ 300cf6ec     cg_weapons.obj
 0002:000136f8       ??_C@_0L@JGLONLMB@gpg40?4weap@ 300cf6f8     cg_weapons.obj
 0002:00013704       ??_C@_0P@FMBFNNHK@m1_garand?4weap@ 300cf704     cg_weapons.obj
 0002:00013714       ??_C@_07KAHBIJGJ@m7?4weap@ 300cf714     cg_weapons.obj
 0002:0001371c       ??_C@_0BB@DCNFDBNM@m1_garand_s?4weap@ 300cf71c     cg_weapons.obj
 0002:00013730       ??_C@_09NKHDGBGG@fg42?4weap@ 300cf730     cg_weapons.obj
 0002:0001373c       ??_C@_0O@KONHCPPG@landmine?4weap@ 300cf73c     cg_weapons.obj
 0002:0001374c       ??_C@_0N@BPEJDLOJ@satchel?4weap@ 300cf74c     cg_weapons.obj
 0002:0001375c       ??_C@_0BB@IBHOFEIJ@satchel_det?4weap@ 300cf75c     cg_weapons.obj
 0002:00013770       ??_C@_0BC@HGKDHHBJ@smokegrenade?4weap@ 300cf770     cg_weapons.obj
 0002:00013784       ??_C@_09CCJDJKJB@mg42?4weap@ 300cf784     cg_weapons.obj
 0002:00013790       ??_C@_0BE@BGHKPBCE@silenced_luger?4weap@ 300cf790     cg_weapons.obj
 0002:000137a4       ??_C@_0BD@PCJCHJED@silenced_colt?4weap@ 300cf7a4     cg_weapons.obj
 0002:000137b8       ??_C@_08EDEKJBCJ@k43?4weap@ 300cf7b8     cg_weapons.obj
 0002:000137c4       ??_C@_0M@NFDIBHJK@mortar?4weap@ 300cf7c4     cg_weapons.obj
 0002:000137d0       ??_C@_0BA@EMJHKINO@mortar_set?4weap@ 300cf7d0     cg_weapons.obj
 0002:000137e0       ??_C@_0BC@ILBBHGOJ@akimbo_luger?4weap@ 300cf7e0     cg_weapons.obj
 0002:000137f4       ??_C@_0BL@HICHGDJB@akimbo_silenced_luger?4weap@ 300cf7f4     cg_weapons.obj
 0002:00013810       ??_C@_0BB@ELGCBLMG@akimbo_colt?4weap@ 300cf810     cg_weapons.obj
 0002:00013824       ??_C@_0BK@MEAGCLNE@akimbo_silenced_colt?4weap@ 300cf824     cg_weapons.obj
 0002:00013840       ??_C@_0P@GMCIPHCG@mapmortar?4weap@ 300cf840     cg_weapons.obj
 0002:00013850       ??_C@_0FD@FDJPFKJG@?$FO1WARNING?3?5trying?5to?5register?5w@ 300cf850     cg_weapons.obj
 0002:000138a4       ??_C@_0L@KAFABLEP@weapons?1?$CFs@ 300cf8a4     cg_weapons.obj
 0002:000138b0       ??_C@_0DL@FJCNCHNC@?$FO1WARNING?3?5failed?5to?5register?5m@ 300cf8b0     cg_weapons.obj
 0002:000138ec       ??_C@_0CE@KDNLMPDJ@Bad?5animation?5number?5?$CICG_SWLFA?$CJ@ 300cf8ec     cg_weapons.obj
 0002:00013910       ??_C@_0P@MCJIIECE@Weap?5Anim?3?5?$CFd?6@ 300cf910     cg_weapons.obj
 0002:00013920       ??_C@_0CJ@LJJLOAOP@oldframe?3?5?$CFd?5?5?5frame?3?5?$CFd?5?5?5back@ 300cf920     cg_weapons.obj
 0002:0001394c       ??_C@_0BP@HFBMKKEG@returning?5due?5to?3?5?$CBgun?4hModel?6@ 300cf94c     cg_weapons.obj
 0002:0001396c       ??_C@_0DM@FPFEPIJD@returning?5due?5to?3?5?$CBps?5?$CG?$CG?5cg?4sna@ 300cf96c     cg_weapons.obj
 0002:000139a8       ??_C@_0L@GMHOCPNK@tag_brass2@ 300cf9a8     cg_weapons.obj
 0002:000139b4       ??_C@_09LAGNGGNE@tag_brass@ 300cf9b4     cg_weapons.obj
 0002:000139c0       ??_C@_0L@GLCHPPOE@tag_rlight@ 300cf9c0     cg_weapons.obj
 0002:000139cc       ??_C@_0L@FOMBEMIN@tag_glight@ 300cf9cc     cg_weapons.obj
 0002:000139d8       ??_C@_0L@GPMDJBLF@tag_needle@ 300cf9d8     cg_weapons.obj
 0002:000139e4       ??_C@_0M@CAAEGCDN@tag_barrel4@ 300cf9e4     cg_weapons.obj
 0002:000139f0       ??_C@_0M@DJBPFDHM@tag_barrel5@ 300cf9f0     cg_weapons.obj
 0002:000139fc       ??_C@_09NLGGHFGF@tag_scope@ 300cf9fc     cg_weapons.obj
 0002:00013a08       ??_C@_0L@NAHDKHND@tag_scope2@ 300cfa08     cg_weapons.obj
 0002:00013a14       ??_C@_07JDOMAANK@tag_prj@  300cfa14     cg_weapons.obj
 0002:00013a1c       ??_C@_09FPEHCODP@tag_bipod@ 300cfa1c     cg_weapons.obj
 0002:00013a28       ??_C@_0L@LBJOCELD@tag_flash2@ 300cfa28     cg_weapons.obj
 0002:00013a34       ??_C@_06MHFHNEHA@?$CLzoom?6@ 300cfa34     cg_weapons.obj
 0002:00013a3c       ??_C@_0O@MGNJBIJO@Mounted?5MG42?6@ 300cfa3c     cg_weapons.obj
 0002:00013a4c       ??_C@_0BB@GAMCMGHE@cg_drawCrossHair@ 300cfa4c     cg_weapons.obj
 0002:00013a60       ??_C@_0M@BLFBFNKI@throwknife?6@ 300cfa60     cg_weapons.obj
 0002:00013a6c       ??_C@_0M@BDJEMDFI@adrenother?6@ 300cfa6c     cg_weapons.obj
 0002:00013a78       ??_C@_0BN@BNOIMLAA@cmd?5vsay_team?5FireInTheHole?6@ 300cfa78     cg_weapons.obj
 0002:00013a98       ??_C@_08HMFGDGCN@?$CLreload?6@ 300cfa98     cg_weapons.obj
 0002:00013aa4       ??_C@_08PEMEPKH@?9reload?6@ 300cfaa4     cg_weapons.obj
 0002:00013ab0       ??_C@_0DK@KPAOPAAM@?$FO3Int?3?5time?3?5?$CFd?0?5j?3?5?$CFd?0?5k?3?5?$CFd?0?5@ 300cfab0     cg_weapons.obj
 0002:00013af0       ??_C@_0EH@JOFMMEPF@?$FO5frac?3?5?$CF0?44f?0?5origin1?3?5?$CF0?42f?5?$CF@ 300cfaf0     cg_weapons.obj
 0002:00013b38       ??_C@_0DK@LEFDLAEL@?$FO3Ext?3?5time?3?5?$CFd?0?5j?3?5?$CFd?0?5k?3?5?$CFd?0?5@ 300cfb38     cg_weapons.obj
 0002:00013b74       ??_C@_0CN@NBNBAPF@CG_FireWeapon?3?5ent?9?$DOweapon?5?$DO?$DN?5W@ 300cfb74     cg_weapons.obj
 0002:00013ba4       __real@3b83126f            300cfba4     cg_weapons.obj
 0002:00013ba8       __real@3fe4cccccccccccd    300cfba8     cg_weapons.obj
 0002:00013bb0       __real@4041800000000000    300cfbb0     cg_weapons.obj
 0002:00013bb8       __real@4072c00000000000    300cfbb8     cg_weapons.obj
 0002:00013bc0       __real@41b00000            300cfbc0     cg_weapons.obj
 0002:00013bc4       __real@42280000            300cfbc4     cg_weapons.obj
 0002:00013bc8       __real@42820000            300cfbc8     cg_weapons.obj
 0002:00013bcc       __real@42dc0000            300cfbcc     cg_weapons.obj
 0002:00013bd0       __real@43020000            300cfbd0     cg_weapons.obj
 0002:00013bd4       __real@43c00000            300cfbd4     cg_weapons.obj
 0002:00013bd8       __real@44160000            300cfbd8     cg_weapons.obj
 0002:00013bdc       __real@45bb8000            300cfbdc     cg_weapons.obj
 0002:00013be0       __real@46723000            300cfbe0     cg_weapons.obj
 0002:00013be4       __real@4a742400            300cfbe4     cg_weapons.obj
 0002:00013be8       __real@4a746284            300cfbe8     cg_weapons.obj
 0002:00013bec       __real@be800000            300cfbec     cg_weapons.obj
 0002:00013bf0       __real@becccccd            300cfbf0     cg_weapons.obj
 0002:00013bf8       __real@bfc999999999999a    300cfbf8     cg_weapons.obj
 0002:00013c00       __real@bfe999999999999a    300cfc00     cg_weapons.obj
 0002:00013c08       __real@c0800000            300cfc08     cg_weapons.obj
 0002:00013c0c       __real@c1200000            300cfc0c     cg_weapons.obj
 0002:00013c10       __real@c1c00000            300cfc10     cg_weapons.obj
 0002:00013c14       __real@c3c80000            300cfc14     cg_weapons.obj
 0002:00013c18       __real@c43b8000            300cfc18     cg_weapons.obj
 0002:00013c1c       __real@c4bb8000            300cfc1c     cg_weapons.obj
 0002:00013c20       __xmm@42a00000bf8000000000000000000000 300cfc20     cg_weapons.obj
 0002:00013c30       ??_C@_0BJ@EICLCLGC@?$FO3Record?5AVI?5?$EA?5?$FO7?$CFd?$FO2fps@ 300cfc30     cg_window.obj
 0002:00013c4c       ??_C@_0BF@ECPHHJPL@?$FO1Stop?5AVI?5Recording@ 300cfc4c     cg_window.obj
 0002:00013c64       ??_C@_0BE@CHIBPGOK@?$FO3TimeScale?3?5?$FO7?$CF?41f@ 300cfc64     cg_window.obj
 0002:00013c78       __real@42de0000            300cfc78     cg_window.obj
 0002:00013c7c       __real@43ef0000            300cfc7c     cg_window.obj
 0002:00013c80       __real@4417c000            300cfc80     cg_window.obj
 0002:00013c84       __real@441f8000            300cfc84     cg_window.obj
 0002:00013c90       __xmm@3f0000003e8000003eb333333f000000 300cfc90     cg_window.obj
 0002:00013ca0       __xmm@3f0000003e99999a3ee666663e99999a 300cfca0     cg_window.obj
 0002:00013cb0       __real@3c8efa35            300cfcb0     q_math.obj
 0002:00013cb8       __real@4066c16c16c16c17    300cfcb8     q_math.obj
 0002:00013cc0       __real@c2b40000            300cfcc0     q_math.obj
 0002:00013cc4       ??_C@_0BI@KPLEBEJF@ERROR?3?5?$CFs?0?5line?5?$CFd?3?5?$CFs?6@ 300cfcc4     q_shared.obj
 0002:00013cdc       ??_C@_0BK@DJMKDJBL@WARNING?3?5?$CFs?0?5line?5?$CFd?3?5?$CFs?6@ 300cfcdc     q_shared.obj
 0002:00013cf8       ??_C@_0BF@BFEJCABG@MatchToken?3?5?$CFs?5?$CB?$DN?5?$CFs@ 300cfcf8     q_shared.obj
 0002:00013d10       ??_C@_01ODHLEDKK@?$CI@     300cfd10     q_shared.obj
 0002:00013d14       ??_C@_01PKGAHCOL@?$CJ@     300cfd14     q_shared.obj
 0002:00013d18       ??_C@_0BI@BMEIBPEH@Missing?5?$HL?5in?5info?5file?6@ 300cfd18     q_shared.obj
 0002:00013d30       ??_C@_0BE@IKMJLADL@Max?5infos?5exceeded?6@ 300cfd30     q_shared.obj
 0002:00013d44       ??_C@_0BN@HAJDHEGK@Unexpected?5end?5of?5info?5file?6@ 300cfd44     q_shared.obj
 0002:00013d64       ??_C@_06CBHGEMFM@?$DMNULL?$DO@ 300cfd64     q_shared.obj
 0002:00013d6c       ??_C@_0BF@BJHHBLMD@Q_strncpyz?3?5NULL?5src@ 300cfd6c     q_shared.obj
 0002:00013d84       ??_C@_0BJ@OLBOPICM@Q_strncpyz?3?5destsize?5?$DM?51@ 300cfd84     q_shared.obj
 0002:00013da0       ??_C@_0BN@EFOOAHFL@Q_strcat?3?5already?5overflowed@ 300cfda0     q_shared.obj
 0002:00013dc0       ??_C@_0CK@KHOBLOFO@Com_sprintf?3?5overflow?5of?5?$CFi?5byt@ 300cfdc0     q_shared.obj
 0002:00013dec       ??_C@_0CN@PKGLJABL@Attempted?5to?5overrun?5string?5in?5@ 300cfdec     q_shared.obj
 0002:00013e1c       ??_C@_0DA@LIKJOKD@Info_ValueForKey?3?5oversize?5info@ 300cfe1c     q_shared.obj
 0002:00013e4c       ??_C@_0CO@NGKHNBPI@Info_RemoveKey?3?5oversize?5infost@ 300cfe4c     q_shared.obj
 0002:00013e7c       ??_C@_0DC@BGMENEHG@Info_RemoveKey_Big?3?5oversize?5in@ 300cfe7c     q_shared.obj
 0002:00013eb0       ??_C@_0DI@KKKLKNPO@Info_SetValueForKey?3?5oversize?5i@ 300cfeb0     q_shared.obj
 0002:00013ee8       ??_C@_0CD@JIDDAEOO@Can?8t?5use?5keys?5or?5values?5with?5a@ 300cfee8     q_shared.obj
 0002:00013f0c       ??_C@_0CL@JCFAGLFD@Can?8t?5use?5keys?5or?5values?5with?5a@ 300cff0c     q_shared.obj
 0002:00013f38       ??_C@_0CD@MGFMEBLE@Can?8t?5use?5keys?5or?5values?5with?5a@ 300cff38     q_shared.obj
 0002:00013f5c       ??_C@_06NELKLDPM@?2?$CFs?2?$CFs@ 300cff5c     q_shared.obj
 0002:00013f64       ??_C@_0BN@CAOBGKLE@Info?5string?5length?5exceeded?6@ 300cff64     q_shared.obj
 0002:00013f84       ??_C@_0CB@EMDOOGBI@BIG?5Info?5string?5length?5exceeded@ 300cff84     q_shared.obj
 0002:00013fa8       ??_C@_0BB@JGGOGLEG@0123456789ABCDEF@ 300cffa8     q_shared.obj
 0002:00013fc0       __xmm@5c21402b7e5d5b3f2a3e3c7c2928263b 300cffc0     q_shared.obj
 0002:00013fd0       ??_C@_09OPNKCLNO@backcolor@ 300cffd0     ui_shared.obj
 0002:00013fdc       ??_C@_09MONNBKNO@forecolor@ 300cffdc     ui_shared.obj
 0002:00013fe8       ??_C@_0M@CJNAABJD@bordercolor@ 300cffe8     ui_shared.obj
 0002:00013ff4       ??_C@_06JFGPOFJL@fadein@   300cfff4     ui_shared.obj
 0002:00013ffc       ??_C@_07BJADIKJG@fadeout@  300cfffc     ui_shared.obj
 0002:00014004       ??_C@_04FKMICODN@show@     300d0004     ui_shared.obj
 0002:0001400c       ??_C@_04IBOFHAPJ@hide@     300d000c     ui_shared.obj
 0002:00014014       ??_C@_08OKIEAMBM@setcolor@ 300d0014     ui_shared.obj
 0002:00014020       ??_C@_04PMOCAHAA@open@     300d0020     ui_shared.obj
 0002:00014028       ??_C@_0L@NKDDLLBJ@fadeinmenu@ 300d0028     ui_shared.obj
 0002:00014034       ??_C@_0M@EGJEAEHJ@fadeoutmenu@ 300d0034     ui_shared.obj
 0002:00014040       ??_C@_0BA@JLPGECPM@conditionalopen@ 300d0040     ui_shared.obj
 0002:00014050       ??_C@_0BC@FFFCDEPN@conditionalscript@ 300d0050     ui_shared.obj
 0002:00014064       ??_C@_05LBOHBHFK@close@    300d0064     ui_shared.obj
 0002:0001406c       ??_C@_08FBNJNOBD@closeall@ 300d006c     ui_shared.obj
 0002:00014078       ??_C@_0BD@NMAMMAAO@closeallothermenus@ 300d0078     ui_shared.obj
 0002:0001408c       ??_C@_09DEBOPNMH@clipboard@ 300d008c     ui_shared.obj
 0002:00014098       ??_C@_08JHFFJMNE@showpage@ 300d0098     ui_shared.obj
 0002:000140a4       ??_C@_08FBOLLCAN@setasset@ 300d00a4     ui_shared.obj
 0002:000140b0       ??_C@_0O@FOIIKEEB@setbackground@ 300d00b0     ui_shared.obj
 0002:000140c0       ??_C@_0N@EBBIOPHN@setitemcolor@ 300d00c0     ui_shared.obj
 0002:000140d0       ??_C@_0BB@OAEMNPFA@setmenuitemcolor@ 300d00d0     ui_shared.obj
 0002:000140e4       ??_C@_0N@KMLJLNON@setteamcolor@ 300d00e4     ui_shared.obj
 0002:000140f4       ??_C@_08OKIAJKBO@setfocus@ 300d00f4     ui_shared.obj
 0002:00014100       ??_C@_0L@FNKDCLKA@clearfocus@ 300d0100     ui_shared.obj
 0002:0001410c       ??_C@_0P@COHLPKKB@setplayermodel@ 300d010c     ui_shared.obj
 0002:0001411c       ??_C@_0O@DDHOJBLA@setplayerhead@ 300d011c     ui_shared.obj
 0002:0001412c       ??_C@_0L@KGLELNDP@transition@ 300d012c     ui_shared.obj
 0002:00014138       ??_C@_07DFOFNCMO@setcvar@  300d0138     ui_shared.obj
 0002:00014140       ??_C@_09KLAIFHLA@clearcvar@ 300d0140     ui_shared.obj
 0002:0001414c       ??_C@_08HBEMCALL@copycvar@ 300d014c     ui_shared.obj
 0002:00014158       ??_C@_04MGEIEJAD@exec@     300d0158     ui_shared.obj
 0002:00014160       ??_C@_07KDPGGAGN@execnow@  300d0160     ui_shared.obj
 0002:00014168       ??_C@_04GBHMDDO@play@      300d0168     ui_shared.obj
 0002:00014170       ??_C@_0L@NDOCJLDE@playlooped@ 300d0170     ui_shared.obj
 0002:0001417c       ??_C@_0L@CBJGCEA@playstream@ 300d017c     ui_shared.obj
 0002:00014188       ??_C@_05KJPHCDKJ@orbit@    300d0188     ui_shared.obj
 0002:00014190       ??_C@_0M@NJCMCKNA@addlistitem@ 300d0190     ui_shared.obj
 0002:0001419c       ??_C@_0BA@FIGLFAEL@checkautoupdate@ 300d019c     ui_shared.obj
 0002:000141ac       ??_C@_0O@MHFCLLDF@getautoupdate@ 300d01ac     ui_shared.obj
 0002:000141bc       ??_C@_0N@PKBHEBMI@setmenufocus@ 300d01bc     ui_shared.obj
 0002:000141cc       ??_C@_0P@IBJMDJHM@execwolfconfig@ 300d01cc     ui_shared.obj
 0002:000141dc       ??_C@_0N@BKPIBBDE@setEditFocus@ 300d01dc     ui_shared.obj
 0002:000141ec       ??_C@_05BBAEEBBH@abort@    300d01ec     ui_shared.obj
 0002:000141f4       ??_C@_08KKEOHAPB@?$CLforward@ 300d01f4     ui_shared.obj
 0002:00014200       ??_C@_05IPKGNIPH@?$CLback@ 300d0200     ui_shared.obj
 0002:00014208       ??_C@_09IPJNFGKP@?$CLmoveleft@ 300d0208     ui_shared.obj
 0002:00014214       ??_C@_0L@FMBJCMEG@?$CLmoveright@ 300d0214     ui_shared.obj
 0002:00014220       ??_C@_07CKGNAPCP@?$CLmoveup@ 300d0220     ui_shared.obj
 0002:00014228       ??_C@_09HNJJMOJG@?$CLmovedown@ 300d0228     ui_shared.obj
 0002:00014234       ??_C@_0L@FCIMKBCO@?$CLleanright@ 300d0234     ui_shared.obj
 0002:00014240       ??_C@_09MBJIAMKH@?$CLleanleft@ 300d0240     ui_shared.obj
 0002:0001424c       ??_C@_06BOJPGNBE@?$CLprone@ 300d024c     ui_shared.obj
 0002:00014254       ??_C@_0O@HCGMFPCE@weaponbank?510@ 300d0254     ui_shared.obj
 0002:00014264       ??_C@_0N@ENOBJBGK@weaponbank?51@ 300d0264     ui_shared.obj
 0002:00014274       ??_C@_0N@GGMMMCKJ@weaponbank?52@ 300d0274     ui_shared.obj
 0002:00014284       ??_C@_0N@HPNHPDOI@weaponbank?53@ 300d0284     ui_shared.obj
 0002:00014294       ??_C@_0N@DAJGGFCP@weaponbank?54@ 300d0294     ui_shared.obj
 0002:000142a4       ??_C@_0N@CJINFEGO@weaponbank?55@ 300d02a4     ui_shared.obj
 0002:000142b4       ??_C@_0N@CKAAHKN@weaponbank?56@ 300d02b4     ui_shared.obj
 0002:000142c4       ??_C@_0N@BLLLDGOM@weaponbank?57@ 300d02c4     ui_shared.obj
 0002:000142d4       ??_C@_0N@JMCDCKCD@weaponbank?58@ 300d02d4     ui_shared.obj
 0002:000142e4       ??_C@_0N@IFDIBLGC@weaponbank?59@ 300d02e4     ui_shared.obj
 0002:000142f4       ??_C@_07CEEFMIBP@?$CLsprint@ 300d02f4     ui_shared.obj
 0002:000142fc       ??_C@_06JIDIHCBO@?$CLspeed@ 300d02fc     ui_shared.obj
 0002:00014304       ??_C@_09DHBCCNNM@?$CLactivate@ 300d0304     ui_shared.obj
 0002:00014310       ??_C@_05GAKJCNGF@?$CLzoom@ 300d0310     ui_shared.obj
 0002:00014318       ??_C@_07GKAMHDNA@?$CLreload@ 300d0318     ui_shared.obj
 0002:00014320       ??_C@_0O@JJBKLGLG@toggleconsole@ 300d0320     ui_shared.obj
 0002:00014330       ??_C@_0L@HBDHBCHM@togglemenu@ 300d0330     ui_shared.obj
 0002:0001433c       ??_C@_0L@GILFCCIB@mvactivate@ 300d033c     ui_shared.obj
 0002:00014348       ??_C@_0L@GDPMHHIM@mapzoomout@ 300d0348     ui_shared.obj
 0002:00014354       ??_C@_09MIFHBA@mapzoomin@  300d0354     ui_shared.obj
 0002:00014360       ??_C@_0M@JINOELJH@messagemode@ 300d0360     ui_shared.obj
 0002:0001436c       ??_C@_0BA@DHFEGEJI@mp_quickmessage@ 300d036c     ui_shared.obj
 0002:0001437c       ??_C@_0P@CFKIOMCJ@autoscreenshot@ 300d037c     ui_shared.obj
 0002:0001438c       ??_C@_0P@PNNOOMAC@selectbuddy?5?91@ 300d038c     ui_shared.obj
 0002:0001439c       ??_C@_0O@BCKHBEDM@selectbuddy?50@ 300d039c     ui_shared.obj
 0002:000143ac       ??_C@_0O@LLMCFHN@selectbuddy?51@ 300d03ac     ui_shared.obj
 0002:000143bc       ??_C@_0O@CAJBHGLO@selectbuddy?52@ 300d03bc     ui_shared.obj
 0002:000143cc       ??_C@_0O@DJIKEHPP@selectbuddy?53@ 300d03cc     ui_shared.obj
 0002:000143dc       ??_C@_0O@HGMLNBDI@selectbuddy?54@ 300d03dc     ui_shared.obj
 0002:000143ec       ??_C@_0O@GPNAOAHJ@selectbuddy?55@ 300d03ec     ui_shared.obj
 0002:000143fc       ??_C@_0P@NGPDLPMB@selectbuddy?5?92@ 300d03fc     ui_shared.obj
 0002:0001440c       ??_C@_06MPKMECK@accept@    300d040c     ui_shared.obj
 0002:00014414       ??_C@_06DDLLCOJG@action@   300d0414     ui_shared.obj
 0002:0001441c       ??_C@_0O@BGFKBLBI@addColorRange@ 300d041c     ui_shared.obj
 0002:0001442c       ??_C@_0BB@NGONGLOH@addColorRangeRel@ 300d042c     ui_shared.obj
 0002:00014440       ??_C@_05CBJPDLOK@align@    300d0440     ui_shared.obj
 0002:00014448       ??_C@_0M@DKAIGAGN@asset_model@ 300d0448     ui_shared.obj
 0002:00014454       ??_C@_0N@HLFJAKEA@asset_shader@ 300d0454     ui_shared.obj
 0002:00014464       ??_C@_0M@HHKOOJO@autowrapped@ 300d0464     ui_shared.obj
 0002:00014470       ??_C@_0L@EGCKCJDC@background@ 300d0470     ui_shared.obj
 0002:0001447c       ??_C@_06ODFLABIG@border@   300d047c     ui_shared.obj
 0002:00014484       ??_C@_0L@BAAMOEHP@bordersize@ 300d0484     ui_shared.obj
 0002:00014490       ??_C@_09DHDJHDLH@cinematic@ 300d0490     ui_shared.obj
 0002:0001449c       ??_C@_07HIFEPIJN@columns@  300d049c     ui_shared.obj
 0002:000144a4       ??_C@_0M@NAMPODJM@contextmenu@ 300d04a4     ui_shared.obj
 0002:000144b0       ??_C@_04PNAHEAFM@cvar@     300d04b0     ui_shared.obj
 0002:000144b8       ??_C@_07OELNEAOA@cvarInt@  300d04b8     ui_shared.obj
 0002:000144c0       ??_C@_09CGGKHKAP@cvarFloat@ 300d04c0     ui_shared.obj
 0002:000144cc       ??_C@_0O@IKNDJMDK@cvarFloatList@ 300d04cc     ui_shared.obj
 0002:000144dc       ??_C@_0M@GOKMFACI@cvarStrList@ 300d04dc     ui_shared.obj
 0002:000144e8       ??_C@_0BC@IJHOLNF@cvarListUndefined@ 300d04e8     ui_shared.obj
 0002:000144fc       ??_C@_08KBIDCBHN@cvarTest@ 300d04fc     ui_shared.obj
 0002:00014508       ??_C@_0L@GFEIECKE@decoration@ 300d0508     ui_shared.obj
 0002:00014514       ??_C@_09KAFPKMCM@textasint@ 300d0514     ui_shared.obj
 0002:00014520       ??_C@_0M@OIJJAIPM@textasfloat@ 300d0520     ui_shared.obj
 0002:0001452c       ??_C@_0M@FBHLBFCC@disableCvar@ 300d052c     ui_shared.obj
 0002:00014538       ??_C@_0M@IHJKFHF@doubleclick@ 300d0538     ui_shared.obj
 0002:00014544       ??_C@_05CFDAGMJN@onEsc@    300d0544     ui_shared.obj
 0002:0001454c       ??_C@_07IGEANCLO@onEnter@  300d054c     ui_shared.obj
 0002:00014554       ??_C@_0O@MNJDKOBB@elementheight@ 300d0554     ui_shared.obj
 0002:00014564       ??_C@_0M@HBNIAHKL@elementtype@ 300d0564     ui_shared.obj
 0002:00014570       ??_C@_0N@MILKKPGL@elementwidth@ 300d0570     ui_shared.obj
 0002:00014580       ??_C@_0L@LCDHKNEJ@enableCvar@ 300d0580     ui_shared.obj
 0002:0001458c       ??_C@_07KHAOJHDJ@execKey@  300d058c     ui_shared.obj
 0002:00014594       ??_C@_06GEEPENGB@feeder@   300d0594     ui_shared.obj
 0002:0001459c       ??_C@_0L@NOGKCHFE@focusSound@ 300d059c     ui_shared.obj
 0002:000145a8       ??_C@_05MGJOOGAJ@group@    300d05a8     ui_shared.obj
 0002:000145b0       ??_C@_08BDDCOCNI@hideCvar@ 300d05b0     ui_shared.obj
 0002:000145bc       ??_C@_0BB@EIBMEDHI@horizontalscroll@ 300d05bc     ui_shared.obj
 0002:000145d0       ??_C@_0L@LMAJDKOE@leaveFocus@ 300d05d0     ui_shared.obj
 0002:000145dc       ??_C@_08IHGPPBOI@maxChars@ 300d05dc     ui_shared.obj
 0002:000145e8       ??_C@_0O@HPCOAMJM@maxPaintChars@ 300d05e8     ui_shared.obj
 0002:000145f8       ??_C@_0M@HHMGANAM@model_angle@ 300d05f8     ui_shared.obj
 0002:00014604       ??_C@_0P@DLMIHLMC@model_animplay@ 300d0604     ui_shared.obj
 0002:00014614       ??_C@_0L@MFDDKKLB@model_fovx@ 300d0614     ui_shared.obj
 0002:00014620       ??_C@_0L@NMCIJLPA@model_fovy@ 300d0620     ui_shared.obj
 0002:0001462c       ??_C@_0N@LHLPLFLG@model_origin@ 300d062c     ui_shared.obj
 0002:0001463c       ??_C@_0P@NOKHMHPD@model_rotation@ 300d063c     ui_shared.obj
 0002:0001464c       ??_C@_0L@KAGOMOPN@mouseEnter@ 300d064c     ui_shared.obj
 0002:00014658       ??_C@_0P@BCEPHLNB@mouseEnterText@ 300d0658     ui_shared.obj
 0002:00014668       ??_C@_09OIHCIOIA@mouseExit@ 300d0668     ui_shared.obj
 0002:00014674       ??_C@_0O@GFPABKKP@mouseExitText@ 300d0674     ui_shared.obj
 0002:00014684       ??_C@_08HOAALKBK@noToggle@ 300d0684     ui_shared.obj
 0002:00014690       ??_C@_0O@FDEIBLKE@notselectable@ 300d0690     ui_shared.obj
 0002:000146a0       ??_C@_07PFEHHELH@onFocus@  300d06a0     ui_shared.obj
 0002:000146a8       ??_C@_0N@LGJOCBPD@outlinecolor@ 300d06a8     ui_shared.obj
 0002:000146b8       ??_C@_09HGLBOMNF@ownerdraw@ 300d06b8     ui_shared.obj
 0002:000146c4       ??_C@_0O@DACAJCLK@ownerdrawFlag@ 300d06c4     ui_shared.obj
 0002:000146d4       ??_C@_04LHPFHFPH@rect@     300d06d4     ui_shared.obj
 0002:000146dc       ??_C@_0BA@BGMCKCOH@settingDisabled@ 300d06dc     ui_shared.obj
 0002:000146ec       ??_C@_0P@BCBEJNDD@settingEnabled@ 300d06ec     ui_shared.obj
 0002:000146fc       ??_C@_08LNBEMJIA@showCvar@ 300d06fc     ui_shared.obj
 0002:00014708       ??_C@_07BELCMIIP@special@  300d0708     ui_shared.obj
 0002:00014710       ??_C@_05IAKJCFIM@style@    300d0710     ui_shared.obj
 0002:00014718       ??_C@_04CIMGMMMG@text@     300d0718     ui_shared.obj
 0002:00014720       ??_C@_09PNBDGNCL@textalign@ 300d0720     ui_shared.obj
 0002:0001472c       ??_C@_0L@ELKHBJND@textalignx@ 300d072c     ui_shared.obj
 0002:00014738       ??_C@_0L@FCLMCIJC@textaligny@ 300d0738     ui_shared.obj
 0002:00014744       ??_C@_08GKJNJBAO@textfile@ 300d0744     ui_shared.obj
 0002:00014750       ??_C@_08BPKLDJKM@textfont@ 300d0750     ui_shared.obj
 0002:0001475c       ??_C@_09BLEIEHKP@textscale@ 300d075c     ui_shared.obj
 0002:00014768       ??_C@_09FMCFHDEN@textstyle@ 300d0768     ui_shared.obj
 0002:00014774       ??_C@_07OGDNBKKB@tooltip@  300d0774     ui_shared.obj
 0002:0001477c       ??_C@_0O@JCLFIGCE@tooltipalignx@ 300d077c     ui_shared.obj
 0002:0001478c       ??_C@_0O@ILKOLHGF@tooltipaligny@ 300d078c     ui_shared.obj
 0002:0001479c       ??_C@_07DPDAEJMK@visible@  300d079c     ui_shared.obj
 0002:000147a4       ??_C@_08BGHADAON@voteFlag@ 300d07a4     ui_shared.obj
 0002:000147b0       ??_C@_07FJHHECNJ@wrapped@  300d07b0     ui_shared.obj
 0002:000147b8       ??_C@_0L@GIACNHMO@fullscreen@ 300d07b8     ui_shared.obj
 0002:000147c4       ??_C@_06CJGNFCEB@onOpen@   300d07c4     ui_shared.obj
 0002:000147cc       ??_C@_07LAOJOJAJ@onClose@  300d07cc     ui_shared.obj
 0002:000147d4       ??_C@_09PIOOHDON@onTimeout@ 300d07d4     ui_shared.obj
 0002:000147e0       ??_C@_05IIPJAONP@onESC@    300d07e0     ui_shared.obj
 0002:000147e8       ??_C@_0L@NBMNMLHL@borderSize@ 300d07e8     ui_shared.obj
 0002:000147f4       ??_C@_0L@OKFLOHAM@focuscolor@ 300d07f4     ui_shared.obj
 0002:00014800       ??_C@_0N@EEPADJLO@disablecolor@ 300d0800     ui_shared.obj
 0002:00014810       ??_C@_0BB@FOHPFLED@outOfBoundsClick@ 300d0810     ui_shared.obj
 0002:00014824       ??_C@_09LMHPKFJB@soundLoop@ 300d0824     ui_shared.obj
 0002:00014830       ??_C@_07BNAIEIKL@itemDef@  300d0830     ui_shared.obj
 0002:00014838       ??_C@_05EIEHMANA@popup@    300d0838     ui_shared.obj
 0002:00014840       ??_C@_0L@BNAEKCAN@execKeyInt@ 300d0840     ui_shared.obj
 0002:0001484c       ??_C@_0M@LEIOAIA@alwaysontop@ 300d084c     ui_shared.obj
 0002:00014858       ??_C@_05NFCMEHKM@modal@    300d0858     ui_shared.obj
 0002:00014860       ??_C@_0P@EHPKKHPK@itemHotkeyMode@ 300d0860     ui_shared.obj
 0002:00014870       ??_C@_0CD@LBKPCJLM@UI_Alloc?3?5Failure?4?5Out?5of?5memor@ 300d0870     ui_shared.obj
 0002:00014894       ??_C@_0BJ@GAPDFKFM@Memory?1String?5Pool?5Info?6@ 300d0894     ui_shared.obj
 0002:000148b0       ??_C@_0BC@DKLFONDB@?9?9?9?9?9?9?9?9?9?9?9?9?9?9?9?9?6@ 300d08b0     ui_shared.obj
 0002:000148c4       ??_C@_0DG@MABFDHIF@String?5Pool?5is?5?$CF?41f?$CF?$CF?5full?0?5?$CFi?5@ 300d08c4     ui_shared.obj
 0002:000148fc       ??_C@_0DG@OMGKABNP@Memory?5Pool?5is?5?$CF?41f?$CF?$CF?5full?0?5?$CFi?5@ 300d08fc     ui_shared.obj
 0002:00014934       ??_C@_04OEDFLLKD@?$CC?$CFs?$CC@ 300d0934     ui_shared.obj
 0002:00014940       ??_C@_0EE@CBEPHLCH@?$FO3WARNING?3?5tried?5closing?5a?5moda@ 300d0940     ui_shared.obj
 0002:00014984       ??_C@_0BJ@OGBOMNBM@UIProfileIsActiveProfile@ 300d0984     ui_shared.obj
 0002:000149a0       ??_C@_0L@LMAKGLGA@ui_profile@ 300d09a0     ui_shared.obj
 0002:000149ac       ??_C@_0BD@DLLNMEGL@UIProfileValidName@ 300d09ac     ui_shared.obj
 0002:000149c0       ??_C@_0BH@JGHBFCBG@UIProfileAlreadyExists@ 300d09c0     ui_shared.obj
 0002:000149d8       ??_C@_0BI@MNFHNHFM@profiles?1?$CFs?1profile?4dat@ 300d09d8     ui_shared.obj
 0002:000149f0       ??_C@_0BO@IELJGOMJ@UIProfileAlreadyExists_Rename@ 300d09f0     ui_shared.obj
 0002:00014a10       ??_C@_0BE@NCDNMBCO@ui_profile_renameto@ 300d0a10     ui_shared.obj
 0002:00014a24       ??_C@_0BF@EPIALJJC@ReadyToCreateProfile@ 300d0a24     ui_shared.obj
 0002:00014a3c       ??_C@_07NGGBHANB@ui_rate@  300d0a3c     ui_shared.obj
 0002:00014a44       ??_C@_0BF@JHKFGNEG@vidrestartIsRequired@ 300d0a44     ui_shared.obj
 0002:00014a5c       ??_C@_09KDEPNMFH@ui_r_mode@ 300d0a5c     ui_shared.obj
 0002:00014a68       ??_C@_0P@MFNNJOLC@ui_r_colorbits@ 300d0a68     ui_shared.obj
 0002:00014a78       ??_C@_0BA@JLJFGCCN@ui_r_fullscreen@ 300d0a78     ui_shared.obj
 0002:00014a88       ??_C@_0BB@MGIMHMKB@ui_r_texturebits@ 300d0a88     ui_shared.obj
 0002:00014a9c       ??_C@_0P@FOKPMCPI@ui_r_depthbits@ 300d0a9c     ui_shared.obj
 0002:00014aac       ??_C@_0BN@GCJBLFGF@ui_r_ext_compressed_textures@ 300d0aac     ui_shared.obj
 0002:00014acc       ??_C@_0BF@MIJAJHLC@ui_r_allowextensions@ 300d0acc     ui_shared.obj
 0002:00014ae4       ??_C@_08PBDNBDJG@ui_s_khz@ 300d0ae4     ui_shared.obj
 0002:00014af0       ??_C@_0BE@BMHJODHH@ui_r_detailtextures@ 300d0af0     ui_shared.obj
 0002:00014b04       ??_C@_0BC@ONOLCHFM@ui_r_subdivisions@ 300d0b04     ui_shared.obj
 0002:00014b18       ??_C@_06LBAPPDBG@r_mode@   300d0b18     ui_shared.obj
 0002:00014b20       ??_C@_0M@FAHBKNDA@r_colorbits@ 300d0b20     ui_shared.obj
 0002:00014b2c       ??_C@_0N@JILGCMBC@r_fullscreen@ 300d0b2c     ui_shared.obj
 0002:00014b3c       ??_C@_0O@HAOJHCNC@r_texturebits@ 300d0b3c     ui_shared.obj
 0002:00014b4c       ??_C@_0M@MLADPBHK@r_depthbits@ 300d0b4c     ui_shared.obj
 0002:00014b58       ??_C@_0BK@GPIDLLEE@r_ext_compressed_textures@ 300d0b58     ui_shared.obj
 0002:00014b74       ??_C@_0BC@IBAMDMJB@r_allowextensions@ 300d0b74     ui_shared.obj
 0002:00014b88       ??_C@_05GPLACMP@s_khz@     300d0b88     ui_shared.obj
 0002:00014b90       ??_C@_0BB@OJJFINJB@r_detailtextures@ 300d0b90     ui_shared.obj
 0002:00014ba4       ??_C@_0P@CEFBGCNE@r_subdivisions@ 300d0ba4     ui_shared.obj
 0002:00014bb4       ??_C@_0BB@GBAJKCAL@ui_r_texturemode@ 300d0bb4     ui_shared.obj
 0002:00014bc8       ??_C@_0O@NHGMKMHI@r_texturemode@ 300d0bc8     ui_shared.obj
 0002:00014bd8       ??_C@_0O@DKNGICKJ@ROldModeCheck@ 300d0bd8     ui_shared.obj
 0002:00014be8       ??_C@_0L@KEDOKIKJ@team_model@ 300d0be8     ui_shared.obj
 0002:00014bf4       ??_C@_0P@JMIBMNM@team_headmodel@ 300d0bf4     ui_shared.obj
 0002:00014c04       ??_C@_05LKKGNBCL@?$CFs?5?$DL?5@ 300d0c04     ui_shared.obj
 0002:00014c0c       ??_C@_07JKMGABMM@com_pid@  300d0c0c     ui_shared.obj
 0002:00014c14       ??_C@_0CG@GNPMJMIO@Script_WriteProfile?3?5Can?8t?5writ@ 300d0c14     ui_shared.obj
 0002:00014c3c       ??_C@_0O@IKFJJNBJ@Delete?5?$CFs?5?$CFd?6@ 300d0c3c     ui_shared.obj
 0002:00014c4c       ??_C@_0BI@FGPNFEHN@profiles?1?$CFs?1profile?4pid@ 300d0c4c     ui_shared.obj
 0002:00014c68       ??_C@_0EC@PKMOAFGL@?$FO3WARNING?3?5profile?4pid?5found?5fo@ 300d0c68     ui_shared.obj
 0002:00014cac       ??_C@_0DD@EJGBNGNL@?$FO3WARNING?3?5couldn?8t?5write?5profi@ 300d0cac     ui_shared.obj
 0002:00014ce0       ??_C@_08NNCMPFKC@exec?5?$CFs?6@ 300d0ce0     ui_shared.obj
 0002:00014cec       ??_C@_0N@PABJFGMA@None?5Defined@ 300d0cec     ui_shared.obj
 0002:00014cfc       ??_C@_06IFGIOHDE@Custom@   300d0cfc     ui_shared.obj
 0002:00014d04       ??_C@_0M@FHKEBODE@screenshot?6@ 300d0d04     ui_shared.obj
 0002:00014d10       ??_C@_04GEFJINEE@?$CF?42f@ 300d0d10     ui_shared.obj
 0002:00014d18       ??_C@_06GKHDGJNB@?$FO1?$CFd?$FO?$CK@ 300d0d18     ui_shared.obj
 0002:00014d20       ??_C@_03CCLAEDDF@Yes@      300d0d20     ui_shared.obj
 0002:00014d24       ??_C@_02JINPPBEP@No@       300d0d24     ui_shared.obj
 0002:00014d28       ??_C@_0M@LMHCNBPD@in_restart?6@ 300d0d28     ui_shared.obj
 0002:00014d34       ??_C@_04FJKIFICP@?5or?5@   300d0d34     ui_shared.obj
 0002:00014d3c       ??_C@_04LIFAFMCE@?$FL?$CFs?$FN@ 300d0d3c     ui_shared.obj
 0002:00014d44       ??_C@_05DJCKAPIL@FIXME@    300d0d44     ui_shared.obj
 0002:00014d4c       ??_C@_0BK@FLAIOFFC@MAX_MODAL_MENUS?5exceeded?6@ 300d0d4c     ui_shared.obj
 0002:00014d68       ??_C@_0BA@LBKCGOOB@ui_showtooltips@ 300d0d68     ui_shared.obj
 0002:00014d78       ??_C@_0BO@GKGLOPGG@end?5of?5file?5inside?5menu?5item?6@ 300d0d78     ui_shared.obj
 0002:00014d98       ??_C@_0ED@EJHMBLGN@both?5addColorRange?5and?5addColor@ 300d0d98     ui_shared.obj
 0002:00014ddc       ??_C@_0BN@JHFMAPJL@unknown?5menu?5item?5keyword?5?$CFs@ 300d0ddc     ui_shared.obj
 0002:00014dfc       ??_C@_0CE@OIGKMGKE@couldn?8t?5parse?5menu?5item?5keywor@ 300d0dfc     ui_shared.obj
 0002:00014e20       ??_C@_04GHJNJNPO@main@     300d0e20     ui_shared.obj
 0002:00014e28       ??_C@_0BJ@MPIMCBOA@end?5of?5file?5inside?5menu?6@ 300d0e28     ui_shared.obj
 0002:00014e44       ??_C@_0BI@PALCAEGK@unknown?5menu?5keyword?5?$CFs@ 300d0e44     ui_shared.obj
 0002:00014e5c       ??_C@_0BP@HJCDHJDP@couldn?8t?5parse?5menu?5keyword?5?$CFs@ 300d0e5c     ui_shared.obj
 0002:00014e80       ??_C@_0EK@FLILMDPB@?$FO3Warning?3?5can?8t?5load?5menu?0?5alr@ 300d0e80     ui_shared.obj
 0002:00014ecc       ??_C@_09EEMLMMJE@fps?3?5?$CF?42f@ 300d0ecc     ui_shared.obj
 0002:00014ed8       ??_C@_0N@FFBFPIKO@mouse?3?5?$CFi?5?$CFi@ 300d0ed8     ui_shared.obj
 0002:00014ee8       ??_C@_03FCIIILBI@?$FO0?$HM@ 300d0ee8     ui_shared.obj
 0002:00014eec       ??_C@_03OMCBPMHJ@?$FO0_@   300d0eec     ui_shared.obj
 0002:00014ef0       ??_C@_07NCJFPPNP@?$FO7?$CFs?$FO0?$HM@ 300d0ef0     ui_shared.obj
 0002:00014ef8       ??_C@_07GMDMIILO@?$FO7?$CFs?$FO0_@ 300d0ef8     ui_shared.obj
 0002:00014f00       ??_C@_05DPGHPOOK@?$FO7?$CFs?5@ 300d0f00     ui_shared.obj
 0002:00014f08       __real@3faaceea00000000    300d0f08     ui_shared.obj
 0002:00014f10       __real@4058000000000000    300d0f10     ui_shared.obj
 0002:00014f18       __real@441ec000            300d0f18     ui_shared.obj
 0002:00014f1c       __real@48c00000            300d0f1c     ui_shared.obj
 0002:00014f20       __real@49c00000            300d0f20     ui_shared.obj
 0002:00014f30       __xmm@00100004001000040010000400100004 300d0f30     ui_shared.obj
 0002:00014f40       __xmm@3f4ccccd00000000000000003f4ccccd 300d0f40     ui_shared.obj
 0002:00014f50       __xmm@3f8000003f0000003f0000003f000000 300d0f50     ui_shared.obj
 0002:00014f60       ??_C@_0BK@PCFMLBDD@CONNECT_ONLY?5is?5required?$CB@ 300d0f60     libcurl:easy.obj
 0002:00014f7c       ??_C@_0BM@FOILHPGN@Failed?5to?5get?5recent?5socket@ 300d0f7c     libcurl:easy.obj
 0002:00014f98       ??_C@_0BK@JGCHJEO@?$CF1023?$FL?$FO?$DL?$AN?6?5?$DN?$FN?$DN?$CF4999?$FL?$FO?$DL?$AN?6?$FN@ 300d0f98     libcurl:cookie.obj
 0002:00014fb4       ??_C@_06CKKGAKDB@secure@   300d0fb4     libcurl:cookie.obj
 0002:00014fbc       ??_C@_08LKPJDOCJ@httponly@ 300d0fbc     libcurl:cookie.obj
 0002:00014fc8       ??_C@_04LNEJFJGI@path@     300d0fc8     libcurl:cookie.obj
 0002:00014fd0       ??_C@_06LKIIGAOE@domain@   300d0fd0     libcurl:cookie.obj
 0002:00014fd8       ??_C@_0DB@FEPNCFMC@skipped?5cookie?5with?5illegal?5dot@ 300d0fd8     libcurl:cookie.obj
 0002:0001500c       ??_C@_0CO@IPHLIEKA@skipped?5cookie?5with?5bad?5tailmat@ 300d100c     libcurl:cookie.obj
 0002:0001503c       ??_C@_07CPCPJPKL@version@  300d103c     libcurl:cookie.obj
 0002:00015044       ??_C@_07PEFKGEJF@max?9age@ 300d1044     libcurl:cookie.obj
 0002:0001504c       ??_C@_07MJGJEDBB@expires@  300d104c     libcurl:cookie.obj
 0002:00015054       ??_C@_0L@KAKJBGGD@?$CDHttpOnly_@ 300d1054     libcurl:cookie.obj
 0002:00015060       ??_C@_01GPOEFGEJ@?7@       300d1060     libcurl:cookie.obj
 0002:00015064       ??_C@_04HCDDPBNL@TRUE@     300d1064     libcurl:cookie.obj
 0002:0001506c       ??_C@_05MAJJAKPI@FALSE@    300d106c     libcurl:cookie.obj
 0002:00015074       ??_C@_08IMELJCAM@Replaced@ 300d1074     libcurl:cookie.obj
 0002:00015080       ??_C@_05BNECJBCE@Added@    300d1080     libcurl:cookie.obj
 0002:00015088       ??_C@_0DH@IFADGHNB@?$CFs?5cookie?5?$CFs?$DN?$CC?$CFs?$CC?5for?5domain?5?$CFs@ 300d1088     libcurl:cookie.obj
 0002:000150c0       ??_C@_0M@ICGHKGOK@Set?9Cookie?3@ 300d10c0     libcurl:cookie.obj
 0002:000150cc       ??_C@_0BL@NHONMLKM@?$CFs?$CFs?$CFs?7?$CFs?7?$CFs?7?$CFs?7?$CFlld?7?$CFs?7?$CFs@ 300d10cc     libcurl:cookie.obj
 0002:000150e8       ??_C@_0II@IOMDGGML@?$CD?5Netscape?5HTTP?5Cookie?5File?6?$CD?5h@ 300d10e8     libcurl:cookie.obj
 0002:00015170       ??_C@_0BJ@LMHKHCLE@?$CD?6?$CD?5Fatal?5libcurl?5error?6@ 300d1170     libcurl:cookie.obj
 0002:0001518c       ??_C@_0CH@EIDBEPEM@WARNING?3?5failed?5to?5save?5cookies@ 300d118c     libcurl:cookie.obj
 0002:000151b4       ??_C@_0BN@DBHPBLOK@Could?5not?5resolve?5?$CFs?3?5?$CFs?$DL?5?$CFs@ 300d11b4     libcurl:asyn-thread.obj
 0002:000151d4       ??_C@_05BFHPMDA@proxy@     300d11d4     libcurl:asyn-thread.obj
 0002:000151dc       ??_C@_04OODOLJMA@host@     300d11dc     libcurl:asyn-thread.obj
 0002:000151e4       ??_C@_0CJ@GCFBOCCD@init_resolve_thread?$CI?$CJ?5failed?5fo@ 300d11e4     libcurl:asyn-thread.obj
 0002:00015210       ??_C@_0CE@FIHCOKDM@getaddrinfo?$CI?$CJ?5failed?5for?5?$CFs?3?$CFd?$DL@ 300d1210     libcurl:asyn-thread.obj
 0002:00015234       ??_C@_05HKPGCKL@?$CFs?3?$CFd@ 300d1234     libcurl:hostip.obj
 0002:0001523c       ??_C@_0BC@OMFOCLID@?$CF255?$FL?$FO?3?$FN?3?$CFd?3?$CF255s@ 300d123c     libcurl:hostip.obj
 0002:00015250       ??_C@_0BL@OBKJIJNE@Resolve?5?$CFs?5found?5illegal?$CB?6@ 300d1250     libcurl:hostip.obj
 0002:0001526c       ??_C@_0BN@BAMKDBFB@Added?5?$CFs?3?$CFd?3?$CFs?5to?5DNS?5cache?6@ 300d126c     libcurl:hostip.obj
 0002:0001528c       ??_C@_0BO@MMBEFIGJ@operation?5aborted?5by?5callback@ 300d128c     libcurl:transfer.obj
 0002:000152ac       ??_C@_0CD@HAMJCOCA@read?5function?5returned?5funny?5va@ 300d12ac     libcurl:transfer.obj
 0002:000152d0       ??_C@_02PCIJFNDE@?$AN?6@   300d12d0     libcurl:transfer.obj
 0002:000152d4       ??_C@_04KEODIONL@?$CFx?$CFs@ 300d12d4     libcurl:transfer.obj
 0002:000152dc       ??_C@_0CA@DIJIHPOF@seek?5callback?5returned?5error?5?$CFd@ 300d12dc     libcurl:transfer.obj
 0002:000152fc       ??_C@_0CA@FAMFIPII@the?5ioctl?5callback?5returned?5?$CFd?6@ 300d12fc     libcurl:transfer.obj
 0002:0001531c       ??_C@_0CB@KPKNOGEG@ioctl?5callback?5returned?5error?5?$CF@ 300d131c     libcurl:transfer.obj
 0002:00015340       ??_C@_0CG@CHEKEDLE@necessary?5data?5rewind?5wasn?8t?5po@ 300d1340     libcurl:transfer.obj
 0002:00015368       ??_C@_0CK@FAJPFEAA@The?5requested?5document?5is?5not?5n@ 300d1368     libcurl:transfer.obj
 0002:00015394       ??_C@_0CK@HMOOBMAB@The?5requested?5document?5is?5not?5o@ 300d1394     libcurl:transfer.obj
 0002:000153c0       ??_C@_0DO@EFGBFGNI@Rewinding?5stream?5by?5?3?5?$CFzd?5bytes@ 300d13c0     libcurl:transfer.obj
 0002:00015400       ??_C@_0FA@MMDGHEFJ@Excess?5found?5in?5a?5non?5pipelined@ 300d1400     libcurl:transfer.obj
 0002:00015450       ??_C@_0BM@KNDLFPLE@Ignoring?5the?5response?9body?6@ 300d1450     libcurl:transfer.obj
 0002:00015470       ??_C@_0EA@PGICDNJG@HTTP?5server?5doesn?8t?5seem?5to?5sup@ 300d1470     libcurl:transfer.obj
 0002:000154b0       ??_C@_0BE@CFHDGFLM@Failed?5writing?5data@ 300d14b0     libcurl:transfer.obj
 0002:000154c4       ??_C@_0CJ@KAKBJEEB@Problem?5?$CI?$CFd?$CJ?5in?5the?5Chunked?9Enc@ 300d14c4     libcurl:transfer.obj
 0002:000154f0       ??_C@_0CF@DCHLDNLL@Leftovers?5after?5chunking?3?5?$CFzu?5b@ 300d14f0     libcurl:transfer.obj
 0002:00015518       ??_C@_0BF@MCJCPDOF@Rewinding?5?$CFzu?5bytes?6@ 300d1518     libcurl:transfer.obj
 0002:00015530       ??_C@_0GM@PFMFENEP@Rewinding?5stream?5by?5?3?5?$CFzu?5bytes@ 300d1530     libcurl:transfer.obj
 0002:000155a0       ??_C@_0GH@MPJMMALL@Excess?5found?5in?5a?5non?5pipelined@ 300d15a0     libcurl:transfer.obj
 0002:00015608       ??_C@_0DJ@GJLMKBJF@we?5are?5done?5reading?5and?5this?5is@ 300d1608     libcurl:transfer.obj
 0002:00015644       ??_C@_0CA@FDBKFCML@Failed?5to?5alloc?5scratch?5buffer?$CB@ 300d1644     libcurl:transfer.obj
 0002:00015664       ??_C@_0CF@KMDHNAMD@We?5are?5completely?5uploaded?5and?5@ 300d1664     libcurl:transfer.obj
 0002:0001568c       ??_C@_0BL@EMJDLKIE@select?1poll?5returned?5error@ 300d168c     libcurl:transfer.obj
 0002:000156a8       ??_C@_0BP@GGMDICAN@Done?5waiting?5for?5100?9continue?6@ 300d16a8     libcurl:transfer.obj
 0002:000156c8       ??_C@_0FA@BBCPEOCG@Operation?5timed?5out?5after?5?$CFld?5m@ 300d16c8     libcurl:transfer.obj
 0002:00015718       ??_C@_0EE@IJGJBDGO@Operation?5timed?5out?5after?5?$CFld?5m@ 300d1718     libcurl:transfer.obj
 0002:0001575c       ??_C@_0DC@IDEJIIHA@transfer?5closed?5with?5?$CFlld?5bytes@ 300d175c     libcurl:transfer.obj
 0002:00015790       ??_C@_0DF@NKPPDLKD@transfer?5closed?5with?5outstandin@ 300d1790     libcurl:transfer.obj
 0002:000157c8       ??_C@_0M@BHCFJOKI@No?5URL?5set?$CB@ 300d17c8     libcurl:transfer.obj
 0002:000157d4       ??_C@_0BA@IDODJKAF@?$CF15?$FL?$FO?$DP?$CG?1?3?$FN?3?1?1?$CFc@ 300d17d4     libcurl:transfer.obj
 0002:000157e4       ??_C@_02CBLDBPFN@?1?1@     300d17e4     libcurl:transfer.obj
 0002:000157e8       ??_C@_0CB@MELNCDNE@Maximum?5?$CI?$CFld?$CJ?5redirects?5followe@ 300d17e8     libcurl:transfer.obj
 0002:0001580c       ??_C@_0CJ@KJEMPLIM@Issue?5another?5request?5to?5this?5U@ 300d180c     libcurl:transfer.obj
 0002:00015838       ??_C@_0DF@PNLGHJLB@Violate?5RFC?52616?110?43?42?5and?5swi@ 300d1838     libcurl:transfer.obj
 0002:00015870       ??_C@_0DF@PDFBJBGA@Violate?5RFC?52616?110?43?43?5and?5swi@ 300d1870     libcurl:transfer.obj
 0002:000158a8       ??_C@_03HAPOJHBM@GET@      300d18a8     libcurl:transfer.obj
 0002:000158ac       ??_C@_0BN@FNEOAMJA@Disables?5POST?0?5goes?5with?5?$CFs?6@ 300d18ac     libcurl:transfer.obj
 0002:000158cc       ??_C@_0CO@EABODMOB@Re?9used?5connection?5seems?5dead?0?5@ 300d18cc     libcurl:transfer.obj
 0002:000158fc       ??_C@_0CL@KFNMJLJJ@Connection?5died?0?5retrying?5a?5fre@ 300d18fc     libcurl:transfer.obj
 0002:00015928       ??_C@_0BF@BIKMOOKL@unspecified?5error?5?$CFd@ 300d1928     libcurl:transfer.obj
 0002:0001598c       ??_C@_0O@PKKFKPHL@?$DMno?5protocol?$DO@ 300d198c     libcurl:url.obj
 0002:0001599c       ??_C@_08LBJOIDDC@identity@ 300d199c     libcurl:url.obj
 0002:000159a8       ??_C@_03NIFPGLBG@ALL@      300d19a8     libcurl:url.obj
 0002:000159ac       ??_C@_04BFMIILII@SESS@     300d19ac     libcurl:url.obj
 0002:000159b4       ??_C@_05KALGKIBB@FLUSH@    300d19b4     libcurl:url.obj
 0002:000159bc       ??_C@_0DG@JNIFPMDH@CURLOPT_SSL_VERIFYHOST?5no?5longe@ 300d19bc     libcurl:url.obj
 0002:000159f4       ??_C@_0BJ@FOJBHLBK@Closing?5connection?5?$CD?$CFld?6@ 300d19f4     libcurl:url.obj
 0002:00015a10       ??_C@_0CD@NFEJLLIE@Connection?5?$CD?$CFld?5seems?5to?5be?5dea@ 300d1a10     libcurl:url.obj
 0002:00015a34       ??_C@_0DL@NPGPDGIJ@Connection?5?$CD?$CFld?5hasn?8t?5finished@ 300d1a34     libcurl:url.obj
 0002:00015a70       ??_C@_0DA@HEGJMKAL@Connection?5?$CD?$CFld?5isn?8t?5open?5enou@ 300d1a70     libcurl:url.obj
 0002:00015aa0       ??_C@_0DH@BEAOFKMD@Connection?5?$CI?$CD?$CFld?$CJ?5was?5killed?5to@ 300d1aa0     libcurl:url.obj
 0002:00015ad8       ??_C@_0DF@HLGBLDDO@This?5connection?5did?5not?5fit?5in?5@ 300d1ad8     libcurl:url.obj
 0002:00015b10       ??_C@_06LDFMEDPC@proxy?5@  300d1b10     libcurl:url.obj
 0002:00015b18       ??_C@_0CM@MPALBCAI@About?5to?5connect?$CI?$CJ?5to?5?$CFs?$CFs?5port@ 300d1b18     libcurl:url.obj
 0002:00015b44       ??_C@_0CG@GIJHGMPJ@Connected?5to?5?$CFs?5?$CI?$CFs?$CJ?5port?5?$CFld?5?$CI@ 300d1b44     libcurl:url.obj
 0002:00015b6c       ??_C@_0DG@OJGGOHOC@IDN?5support?5not?5present?0?5can?8t?5@ 300d1b6c     libcurl:url.obj
 0002:00015ba4       ??_C@_0DB@BIDBFDJ@Protocol?5?$CFs?5not?5supported?5or?5di@ 300d1ba4     libcurl:url.obj
 0002:00015bd8       ??_C@_0O@IFHJOLOO@?$CF15?$FL?$FO?3?$FN?3?$CF?$FL?$FO?6?$FN@ 300d1bd8     libcurl:url.obj
 0002:00015be8       ??_C@_04DAMGJPCA@file@     300d1be8     libcurl:url.obj
 0002:00015bf0       ??_C@_0BI@DPCMBADD@?$CF15?$FL?$FO?6?3?$FN?3?1?1?$CF?$FL?$FO?6?1?$DP?$FN?$CF?$FL?$FO?6?$FN@ 300d1bf0     libcurl:url.obj
 0002:00015c08       ??_C@_0N@FMIMOJKH@?$CF?$FL?$FO?6?1?$DP?$FN?$CF?$FL?$FO?6?$FN@ 300d1c08     libcurl:url.obj
 0002:00015c18       ??_C@_0BA@GIDLGILM@?$DMurl?$DO?5malformed@ 300d1c18     libcurl:url.obj
 0002:00015c28       ??_C@_04MNLKBKGC@FTP?4@    300d1c28     libcurl:url.obj
 0002:00015c30       ??_C@_03LMDBDBEG@ftp@      300d1c30     libcurl:url.obj
 0002:00015c34       ??_C@_05GGAEFEIN@DICT?4@   300d1c34     libcurl:url.obj
 0002:00015c3c       ??_C@_04NOLJEKBF@DICT@     300d1c3c     libcurl:url.obj
 0002:00015c44       ??_C@_05NPMHHCAG@LDAP?4@   300d1c44     libcurl:url.obj
 0002:00015c4c       ??_C@_04HLELMIGD@LDAP@     300d1c4c     libcurl:url.obj
 0002:00015c54       ??_C@_05ICBKIBME@IMAP?4@   300d1c54     libcurl:url.obj
 0002:00015c5c       ??_C@_04MOKDAIJJ@IMAP@     300d1c5c     libcurl:url.obj
 0002:00015c64       ??_C@_04IAFLKNP@http@      300d1c64     libcurl:url.obj
 0002:00015c6c       ??_C@_03MMIJIMKH@?$CF25@   300d1c6c     libcurl:url.obj
 0002:00015c70       ??_C@_0BN@IHHAEPKG@Invalid?5IPv6?5address?5format?6@ 300d1c70     libcurl:url.obj
 0002:00015c90       ??_C@_05EGHOOIHK@?$CFllu?9@ 300d1c90     libcurl:url.obj
 0002:00015c98       ??_C@_02KEGNLNML@?0?5@     300d1c98     libcurl:url.obj
 0002:00015c9c       ??_C@_08BOGLDIEC@no_proxy@ 300d1c9c     libcurl:url.obj
 0002:00015ca8       ??_C@_08KOHKDPPJ@NO_PROXY@ 300d1ca8     libcurl:url.obj
 0002:00015cb4       ??_C@_06PIGEBLLD@_proxy@   300d1cb4     libcurl:url.obj
 0002:00015cbc       ??_C@_0L@BKCFCEPH@http_proxy@ 300d1cbc     libcurl:url.obj
 0002:00015cc8       ??_C@_09IFLEAELB@all_proxy@ 300d1cc8     libcurl:url.obj
 0002:00015cd4       ??_C@_09HKPIAANK@ALL_PROXY@ 300d1cd4     libcurl:url.obj
 0002:00015ce0       ??_C@_03GACAABJG@?3?1?1@   300d1ce0     libcurl:url.obj
 0002:00015ce4       ??_C@_07FDHAHIOH@socks5h@  300d1ce4     libcurl:url.obj
 0002:00015cec       ??_C@_06IAICDOJI@socks5@   300d1cec     libcurl:url.obj
 0002:00015cf4       ??_C@_07IDHAKJJJ@socks4a@  300d1cf4     libcurl:url.obj
 0002:00015cfc       ??_C@_06JJJJAPNJ@socks4@   300d1cfc     libcurl:url.obj
 0002:00015d04       ??_C@_05LBOKJHLG@socks@    300d1d04     libcurl:url.obj
 0002:00015d0c       ??_C@_0BD@MKGKFIAE@?$CF255?$FL?$FO?3?$EA?$FN?3?$CF255?$FL?$FO?$EA?$FN@ 300d1d0c     libcurl:url.obj
 0002:00015d20       ??_C@_09NJFICCON@?3?$CF255?$FL?$FO?$EA?$FN@ 300d1d20     libcurl:url.obj
 0002:00015d2c       ??_C@_0CC@OAGPKML@?$FL?$CF?$CK45?$FL0123456789abcdefABCDEF?3?4?$FN@ 300d1d2c     libcurl:url.obj
 0002:00015d50       ??_C@_08MMJPNGCD@?$DLtype?$DN?$CFc@ 300d1d50     libcurl:url.obj
 0002:00015d5c       ??_C@_01LBDDMOBJ@?$FN@     300d1d5c     libcurl:url.obj
 0002:00015d60       ??_C@_01OHGJGJJP@?$FL@     300d1d60     libcurl:url.obj
 0002:00015d64       ??_C@_0BG@GCMCBPHE@?$CFs?3?1?1?$CFs?$CFs?$CFs?3?$CFhu?$CFs?$CFs?$CFs@ 300d1d64     libcurl:url.obj
 0002:00015d7c       ??_C@_0BL@OAKNDGPF@Port?5number?5too?5large?3?5?$CFlu@ 300d1d7c     libcurl:url.obj
 0002:00015d98       ??_C@_0DK@LHOOOBIP@Couldn?8t?5find?5host?5?$CFs?5in?5the?5_n@ 300d1d98     libcurl:url.obj
 0002:00015dd4       ??_C@_09BMFBKPHA@anonymous@ 300d1dd4     libcurl:url.obj
 0002:00015de0       ??_C@_0BA@LJIKBFGM@ftp?$EAexample?4com@ 300d1de0     libcurl:url.obj
 0002:00015df0       ??_C@_0BL@LOJKHBPO@Couldn?8t?5resolve?5host?5?8?$CFs?8@ 300d1df0     libcurl:url.obj
 0002:00015e0c       ??_C@_0BM@PBLGFFN@Couldn?8t?5resolve?5proxy?5?8?$CFs?8@ 300d1e0c     libcurl:url.obj
 0002:00015e28       ??_C@_07NCHOALFK@?$CFs?3?1?1?$CFs@ 300d1e28     libcurl:url.obj
 0002:00015e30       ??_C@_0BA@GJPPEADO@memory?5shortage@ 300d1e30     libcurl:url.obj
 0002:00015e40       ??_C@_0DD@EHJKIECB@Re?9using?5existing?5connection?$CB?5?$CI@ 300d1e40     libcurl:url.obj
 0002:00015e74       ??_C@_0BB@CAJCOHBO@User?9Agent?3?5?$CFs?$AN?6@ 300d1e74     libcurl:url.obj
 0002:00015e88       ??_C@_0CI@JMFNPHPJ@Connection?5?$CD?$CFld?5to?5host?5?$CFs?5left@ 300d1e88     libcurl:url.obj
 0002:00015eb0       __real@bff0000000000000    300d1eb0     libcurl:getinfo.obj
 0002:00015ed0       ??_C@_0BB@JCBOFDKN@Send?5failure?3?5?$CFs@ 300d1ed0     libcurl:sendf.obj
 0002:00015ee4       ??_C@_0BB@GOGKBCCD@Recv?5failure?3?5?$CFs@ 300d1ee4     libcurl:sendf.obj
 0002:00015ef8       ??_C@_0CB@KLPEEDOI@Failed?5writing?5body?5?$CI?$CFzu?5?$CB?$DN?5?$CFzu@ 300d1ef8     libcurl:sendf.obj
 0002:00015f1c       ??_C@_0BG@OFFCIDAN@Failed?5writing?5header@ 300d1f1c     libcurl:sendf.obj
 0002:00015f34       ??_C@_04DICKPMGH@Data@     300d1f34     libcurl:sendf.obj
 0002:00015f3c       ??_C@_06OENKJGA@Header@    300d1f3c     libcurl:sendf.obj
 0002:00015f44       ??_C@_04HNEBHLOP@from@     300d1f44     libcurl:sendf.obj
 0002:00015f4c       ??_C@_02LBCDJBAJ@to@       300d1f4c     libcurl:sendf.obj
 0002:00015f50       ??_C@_0L@EJHHKNON@?$FL?$CFs?5?$CFs?5?$CFs?$FN@ 300d1f50     libcurl:sendf.obj
 0002:00015f5c       ??_C@_03FIFADKBL@if?$CB@   300d1f5c     libcurl:connect.obj
 0002:00015f60       ??_C@_05BHBFOJOK@host?$CB@ 300d1f60     libcurl:connect.obj
 0002:00015f68       ??_C@_0CF@PEMBPPBD@Failed?5to?5set?5SO_KEEPALIVE?5on?5f@ 300d1f68     libcurl:connect.obj
 0002:00015f90       ??_C@_0CF@LAEMNPKL@Failed?5to?5set?5TCP_KEEPIDLE?5on?5f@ 300d1f90     libcurl:connect.obj
 0002:00015fb8       ??_C@_0CG@FEKNPAFN@Failed?5to?5set?5TCP_KEEPINTVL?5on?5@ 300d1fb8     libcurl:connect.obj
 0002:00015fe0       ??_C@_0DF@GKHAKMGC@Local?5Interface?5?$CFs?5is?5ip?5?$CFs?5usi@ 300d1fe0     libcurl:connect.obj
 0002:00016018       ??_C@_0DA@OPBJKDFD@Name?5?8?$CFs?8?5family?5?$CFi?5resolved?5to@ 300d2018     libcurl:connect.obj
 0002:00016048       ??_C@_0BG@CIMNBOAN@Couldn?8t?5bind?5to?5?8?$CFs?8@ 300d2048     libcurl:connect.obj
 0002:00016060       ??_C@_0CH@DDKDPEAI@getsockname?$CI?$CJ?5failed?5with?5errno@ 300d2060     libcurl:connect.obj
 0002:00016088       ??_C@_0BB@PLFEKLHG@Local?5port?3?5?$CFhu?6@ 300d2088     libcurl:connect.obj
 0002:0001609c       ??_C@_0CM@IFAJKKEJ@Bind?5to?5local?5port?5?$CFhu?5failed?0?5@ 300d209c     libcurl:connect.obj
 0002:000160c8       ??_C@_0BO@NNMFENBA@bind?5failed?5with?5errno?5?$CFd?3?5?$CFs@ 300d20c8     libcurl:connect.obj
 0002:000160e8       ??_C@_0CH@IBJKPDAO@getpeername?$CI?$CJ?5failed?5with?5errno@ 300d20e8     libcurl:connect.obj
 0002:00016110       ??_C@_0CL@PFOECMOH@ssrem?5inet_ntop?$CI?$CJ?5failed?5with?5e@ 300d2110     libcurl:connect.obj
 0002:0001613c       ??_C@_0CL@FJICKPK@ssloc?5inet_ntop?$CI?$CJ?5failed?5with?5e@ 300d213c     libcurl:connect.obj
 0002:00016168       ??_C@_0BE@GAEGKOEF@Connection?5time?9out@ 300d2168     libcurl:connect.obj
 0002:0001617c       ??_C@_0CE@PLLNPADK@After?5?$CFldms?5connect?5time?0?5move?5@ 300d217c     libcurl:connect.obj
 0002:000161a0       ??_C@_0BD@MAOKIHOG@Connection?5failed?6@ 300d21a0     libcurl:connect.obj
 0002:000161b4       ??_C@_0BN@KFAJJAGP@Failed?5connect?5to?5?$CFs?3?$CFld?$DL?5?$CFs@ 300d21b4     libcurl:connect.obj
 0002:000161d4       ??_C@_0BP@MAILANNH@Could?5not?5set?5TCP_NODELAY?3?5?$CFs?6@ 300d21d4     libcurl:connect.obj
 0002:000161f4       ??_C@_0BB@JLMMDBFM@TCP_NODELAY?5set?6@ 300d21f4     libcurl:connect.obj
 0002:00016208       ??_C@_0CN@NLCIOFFH@sa_addr?5inet_ntop?$CI?$CJ?5failed?5with@ 300d2208     libcurl:connect.obj
 0002:00016238       ??_C@_0BA@BCICHGHM@?5?5Trying?5?$CFs?4?4?4?6@ 300d2238     libcurl:connect.obj
 0002:00016248       ??_C@_0BM@ECNDNCEG@Failed?5to?5connect?5to?5?$CFs?3?5?$CFs@ 300d2248     libcurl:connect.obj
 0002:00016264       ??_C@_0L@MOBHNNJG@connected?6@ 300d2264     libcurl:connect.obj
 0002:00016270       ??_C@_08KFCAGLED@Timeout?6@ 300d2270     libcurl:connect.obj
 0002:0001627c       ??_C@_0BF@ILNKAJLI@connect?$CI?$CJ?5timed?5out?$CB@ 300d227c     libcurl:connect.obj
 0002:00016294       ??_C@_0CA@IPFNBOLK@couldn?8t?5connect?5to?5?$CFs?5at?5?$CFs?3?$CFd@ 300d2294     libcurl:connect.obj
 0002:000162b8       _Curl_wkday                300d22b8     libcurl:parsedate.obj
 0002:000162d4       _Curl_month                300d22d4     libcurl:parsedate.obj
 0002:00016680       ??_C@_03PDAGKDH@Mon@       300d2680     libcurl:parsedate.obj
 0002:00016684       ??_C@_03NAGEINEP@Tue@      300d2684     libcurl:parsedate.obj
 0002:00016688       ??_C@_03MHOMLAJA@Wed@      300d2688     libcurl:parsedate.obj
 0002:0001668c       ??_C@_03IOFIKPDN@Thu@      300d268c     libcurl:parsedate.obj
 0002:00016690       ??_C@_03IDIOELNC@Fri@      300d2690     libcurl:parsedate.obj
 0002:00016694       ??_C@_03FEFJNEK@Sat@       300d2694     libcurl:parsedate.obj
 0002:00016698       ??_C@_03KOEHGMDN@Sun@      300d2698     libcurl:parsedate.obj
 0002:0001669c       ??_C@_06JLEDEDGH@Monday@   300d269c     libcurl:parsedate.obj
 0002:000166a4       ??_C@_07BAAGCFCM@Tuesday@  300d26a4     libcurl:parsedate.obj
 0002:000166ac       ??_C@_09DLIGFAKA@Wednesday@ 300d26ac     libcurl:parsedate.obj
 0002:000166b8       ??_C@_08HACCIKIA@Thursday@ 300d26b8     libcurl:parsedate.obj
 0002:000166c4       ??_C@_06JECMNKMI@Friday@   300d26c4     libcurl:parsedate.obj
 0002:000166cc       ??_C@_08INBOOONO@Saturday@ 300d26cc     libcurl:parsedate.obj
 0002:000166d8       ??_C@_06OOPIFAJ@Sunday@    300d26d8     libcurl:parsedate.obj
 0002:000166e0       ??_C@_0DK@DJOHIPMC@?$CF31?$FLABCDEFGHIJKLMNOPQRSTUVWXYZa@ 300d26e0     libcurl:parsedate.obj
 0002:0001671c       ??_C@_0P@PLMNPDMB@?$CF02d?3?$CF02d?3?$CF02d@ 300d271c     libcurl:parsedate.obj
 0002:0001672c       ??_C@_09FJLEEAHK@?$CF02d?3?$CF02d@ 300d272c     libcurl:parsedate.obj
 0002:00016798       ??_C@_01IPJKGB@?$CD@       300d2798     libcurl:mprintf.obj
 0002:0001679c       ??_C@_03JALODAI@?$CFld@    300d279c     libcurl:mprintf.obj
 0002:000167a0       ??_C@_04JAJMFKGM@?4?$CFld@ 300d27a0     libcurl:mprintf.obj
 0002:000167a8       __real@412e848000000000    300d27a8     libcurl:timeval.obj
 0002:000167b0       ??_C@_08INEPGKHH@No?5error@ 300d27b0     libcurl:strerror.obj
 0002:000167bc       ??_C@_0BF@MEALNKLO@Unsupported?5protocol@ 300d27bc     libcurl:strerror.obj
 0002:000167d4       ??_C@_0BG@JPNCGCLF@Failed?5initialization@ 300d27d4     libcurl:strerror.obj
 0002:000167ec       ??_C@_0CM@JDMFNFNN@URL?5using?5bad?1illegal?5format?5or@ 300d27ec     libcurl:strerror.obj
 0002:00016818       ??_C@_0GN@KLBPDHPC@A?5requested?5feature?0?5protocol?5o@ 300d2818     libcurl:strerror.obj
 0002:00016888       ??_C@_0BM@JKHJDDPC@Couldn?8t?5resolve?5proxy?5name@ 300d2888     libcurl:strerror.obj
 0002:000168a4       ??_C@_0BL@CLPICHFB@Couldn?8t?5resolve?5host?5name@ 300d28a4     libcurl:strerror.obj
 0002:000168c0       ??_C@_0BL@BDHAOFN@Couldn?8t?5connect?5to?5server@ 300d28c0     libcurl:strerror.obj
 0002:000168dc       ??_C@_0BI@MKMLEBOJ@FTP?3?5weird?5server?5reply@ 300d28dc     libcurl:strerror.obj
 0002:000168f4       ??_C@_0CB@NKJGLEPP@Access?5denied?5to?5remote?5resourc@ 300d28f4     libcurl:strerror.obj
 0002:00016918       ??_C@_0CP@GDKINGFF@FTP?3?5The?5server?5failed?5to?5conne@ 300d2918     libcurl:strerror.obj
 0002:00016948       ??_C@_0CM@JHMKLKFK@FTP?3?5Accepting?5server?5connect?5h@ 300d2948     libcurl:strerror.obj
 0002:00016974       ??_C@_0DB@DKHIAOH@FTP?3?5The?5server?5did?5not?5accept?5@ 300d2974     libcurl:strerror.obj
 0002:000169a8       ??_C@_0BI@CNGAPMMH@FTP?3?5unknown?5PASS?5reply@ 300d29a8     libcurl:strerror.obj
 0002:000169c0       ??_C@_0BI@GFIAPCKD@FTP?3?5unknown?5PASV?5reply@ 300d29c0     libcurl:strerror.obj
 0002:000169d8       ??_C@_0CB@PEGAMKPE@FTP?3?5unknown?5227?5response?5forma@ 300d29d8     libcurl:strerror.obj
 0002:000169fc       ??_C@_0DE@KGBALKDA@FTP?3?5can?8t?5figure?5out?5the?5host?5@ 300d29fc     libcurl:strerror.obj
 0002:00016a30       ??_C@_0BM@OGPMHHJ@FTP?3?5couldn?8t?5set?5file?5type@ 300d2a30     libcurl:strerror.obj
 0002:00016a4c       ??_C@_0BL@ODNPPPLA@Transferred?5a?5partial?5file@ 300d2a4c     libcurl:strerror.obj
 0002:00016a68       ??_C@_0DI@LLJCFNFF@FTP?3?5couldn?8t?5retrieve?5?$CIRETR?5fa@ 300d2a68     libcurl:strerror.obj
 0002:00016aa0       ??_C@_0BN@GGHOIADB@Quote?5command?5returned?5error@ 300d2aa0     libcurl:strerror.obj
 0002:00016ac0       ??_C@_0BO@BCKEJEKM@HTTP?5response?5code?5said?5error@ 300d2ac0     libcurl:strerror.obj
 0002:00016ae0       ??_C@_0DB@IMNDCIAA@Failed?5writing?5received?5data?5to@ 300d2ae0     libcurl:strerror.obj
 0002:00016b14       ??_C@_0CM@GACCEIFL@Upload?5failed?5?$CIat?5start?1before?5@ 300d2b14     libcurl:strerror.obj
 0002:00016b40       ??_C@_0DF@NBDLHGLH@Failed?5to?5open?1read?5local?5data?5@ 300d2b40     libcurl:strerror.obj
 0002:00016b78       ??_C@_0O@NALGGDJF@Out?5of?5memory@ 300d2b78     libcurl:strerror.obj
 0002:00016b88       ??_C@_0BE@EKAJAHAD@Timeout?5was?5reached@ 300d2b88     libcurl:strerror.obj
 0002:00016b9c       ??_C@_0BJ@IDOBBECI@FTP?3?5command?5PORT?5failed@ 300d2b9c     libcurl:strerror.obj
 0002:00016bb8       ??_C@_0BJ@GCLHLJAN@FTP?3?5command?5REST?5failed@ 300d2bb8     libcurl:strerror.obj
 0002:00016bd4       ??_C@_0DA@JICMAFCG@Requested?5range?5was?5not?5deliver@ 300d2bd4     libcurl:strerror.obj
 0002:00016c04       ??_C@_0CF@HBEMJAO@Internal?5problem?5setting?5up?5the@ 300d2c04     libcurl:strerror.obj
 0002:00016c2c       ??_C@_0BC@BFLONMCD@SSL?5connect?5error@ 300d2c2c     libcurl:strerror.obj
 0002:00016c40       ??_C@_0BJ@PKKEKELC@Couldn?8t?5resume?5download@ 300d2c40     libcurl:strerror.obj
 0002:00016c5c       ??_C@_0BN@LDKECGHJ@Couldn?8t?5read?5a?5file?3?1?1?5file@ 300d2c5c     libcurl:strerror.obj
 0002:00016c7c       ??_C@_0BC@LBJDCDKB@LDAP?3?5cannot?5bind@ 300d2c7c     libcurl:strerror.obj
 0002:00016c90       ??_C@_0BE@BFMFHGMM@LDAP?3?5search?5failed@ 300d2c90     libcurl:strerror.obj
 0002:00016ca4       ??_C@_0DB@KKNDLNIK@A?5required?5function?5in?5the?5libr@ 300d2ca4     libcurl:strerror.obj
 0002:00016cd8       ??_C@_0DB@KJJLMJOB@Operation?5was?5aborted?5by?5an?5app@ 300d2cd8     libcurl:strerror.obj
 0002:00016d0c       ??_C@_0CM@GEPFAHDP@A?5libcurl?5function?5was?5given?5a?5@ 300d2d0c     libcurl:strerror.obj
 0002:00016d38       ??_C@_0CE@NLIKOML@Failed?5binding?5local?5connection@ 300d2d38     libcurl:strerror.obj
 0002:00016d5c       ??_C@_0CH@DFMKCAJO@Number?5of?5redirects?5hit?5maximum@ 300d2d5c     libcurl:strerror.obj
 0002:00016d84       ??_C@_0CL@GBAGOIGJ@An?5unknown?5option?5was?5passed?5in@ 300d2d84     libcurl:strerror.obj
 0002:00016db0       ??_C@_0BI@GPIPAJAH@Malformed?5telnet?5option@ 300d2db0     libcurl:strerror.obj
 0002:00016dc8       ??_C@_0DC@MAPCLGNF@SSL?5peer?5certificate?5or?5SSH?5rem@ 300d2dc8     libcurl:strerror.obj
 0002:00016dfc       ??_C@_0CO@JJKEOCN@Server?5returned?5nothing?5?$CIno?5hea@ 300d2dfc     libcurl:strerror.obj
 0002:00016e2c       ??_C@_0BM@GLLPPMBF@SSL?5crypto?5engine?5not?5found@ 300d2e2c     libcurl:strerror.obj
 0002:00016e48       ??_C@_0CJ@HENCHBOB@Can?5not?5set?5SSL?5crypto?5engine?5a@ 300d2e48     libcurl:strerror.obj
 0002:00016e74       ??_C@_0CH@DINFHAAN@Failed?5to?5initialise?5SSL?5crypto@ 300d2e74     libcurl:strerror.obj
 0002:00016e9c       ??_C@_0CA@CBOACNIE@Failed?5sending?5data?5to?5the?5peer@ 300d2e9c     libcurl:strerror.obj
 0002:00016ebc       ??_C@_0CK@JABNOBEN@Failure?5when?5receiving?5data?5fro@ 300d2ebc     libcurl:strerror.obj
 0002:00016ee8       ??_C@_0CH@IGBGAMEJ@Problem?5with?5the?5local?5SSL?5cert@ 300d2ee8     libcurl:strerror.obj
 0002:00016f10       ??_C@_0CC@IOEMABMM@Couldn?8t?5use?5specified?5SSL?5ciph@ 300d2f10     libcurl:strerror.obj
 0002:00016f38       ??_C@_0EE@FOFLCKOJ@Peer?5certificate?5cannot?5be?5auth@ 300d2f38     libcurl:strerror.obj
 0002:00016f7c       ??_C@_0DE@DEFDNJHO@Problem?5with?5the?5SSL?5CA?5cert?5?$CIp@ 300d2f7c     libcurl:strerror.obj
 0002:00016fb0       ??_C@_0DG@BCBHMDOA@Unrecognized?5or?5bad?5HTTP?5Conten@ 300d2fb0     libcurl:strerror.obj
 0002:00016fe8       ??_C@_0BB@NNNAEHGN@Invalid?5LDAP?5URL@ 300d2fe8     libcurl:strerror.obj
 0002:00016ffc       ??_C@_0BL@GFBKPFMO@Maximum?5file?5size?5exceeded@ 300d2ffc     libcurl:strerror.obj
 0002:00017018       ??_C@_0BL@CJHAPGCI@Requested?5SSL?5level?5failed@ 300d3018     libcurl:strerror.obj
 0002:00017034       ??_C@_0CH@HOHNDJFI@Failed?5to?5shut?5down?5the?5SSL?5con@ 300d3034     libcurl:strerror.obj
 0002:0001705c       ??_C@_0DI@OEDDMGMA@Failed?5to?5load?5CRL?5file?5?$CIpath?$DP?5@ 300d305c     libcurl:strerror.obj
 0002:00017094       ??_C@_0CN@PNDCIOI@Issuer?5check?5against?5peer?5certi@ 300d3094     libcurl:strerror.obj
 0002:000170c4       ??_C@_0DG@HNNLFELE@Send?5failed?5since?5rewinding?5of?5@ 300d30c4     libcurl:strerror.obj
 0002:000170fc       ??_C@_0N@LMNBNGOH@Login?5denied@ 300d30fc     libcurl:strerror.obj
 0002:0001710c       ??_C@_0BF@MMMLEDNM@TFTP?3?5File?5Not?5Found@ 300d310c     libcurl:strerror.obj
 0002:00017124       ??_C@_0BH@CPEHAKGC@TFTP?3?5Access?5Violation@ 300d3124     libcurl:strerror.obj
 0002:0001713c       ??_C@_0CB@HICDEKOD@Disk?5full?5or?5allocation?5exceede@ 300d313c     libcurl:strerror.obj
 0002:00017160       ??_C@_0BI@FHLDKMPM@TFTP?3?5Illegal?5operation@ 300d3160     libcurl:strerror.obj
 0002:00017178       ??_C@_0BK@FHGNFCEK@TFTP?3?5Unknown?5transfer?5ID@ 300d3178     libcurl:strerror.obj
 0002:00017194       ??_C@_0BL@LCPLBBDI@Remote?5file?5already?5exists@ 300d3194     libcurl:strerror.obj
 0002:000171b0       ??_C@_0BD@HHOJBMKC@TFTP?3?5No?5such?5user@ 300d31b0     libcurl:strerror.obj
 0002:000171c4       ??_C@_0BC@CGNMGHHJ@Conversion?5failed@ 300d31c4     libcurl:strerror.obj
 0002:000171d8       ??_C@_0DE@HIBGAHH@Caller?5must?5register?5CURLOPT_CO@ 300d31d8     libcurl:strerror.obj
 0002:0001720c       ??_C@_0BG@IGAJKGEI@Remote?5file?5not?5found@ 300d320c     libcurl:strerror.obj
 0002:00017224       ??_C@_0BH@LIBGKEPA@Error?5in?5the?5SSH?5layer@ 300d3224     libcurl:strerror.obj
 0002:0001723c       ??_C@_0BP@PKAGPAKC@Socket?5not?5ready?5for?5send?1recv@ 300d323c     libcurl:strerror.obj
 0002:0001725c       ??_C@_0CD@KOGOJFPD@RTSP?5CSeq?5mismatch?5or?5invalid?5C@ 300d325c     libcurl:strerror.obj
 0002:00017280       ??_C@_0BD@JIDDONAN@RTSP?5session?5error@ 300d3280     libcurl:strerror.obj
 0002:00017294       ??_C@_0BO@DHDGALJN@Unable?5to?5parse?5FTP?5file?5list@ 300d3294     libcurl:strerror.obj
 0002:000172b4       ??_C@_0BG@NNCCNDKN@Chunk?5callback?5failed@ 300d32b4     libcurl:strerror.obj
 0002:000172cc       ??_C@_0O@NIPGCINC@Unknown?5error@ 300d32cc     libcurl:strerror.obj
 0002:000172dc       ??_C@_0CG@DCOKOKML@Please?5call?5curl_multi_perform?$CI@ 300d32dc     libcurl:strerror.obj
 0002:00017304       ??_C@_0BF@MFLIJEAO@Invalid?5multi?5handle@ 300d3304     libcurl:strerror.obj
 0002:0001731c       ??_C@_0BE@FELLPHLO@Invalid?5easy?5handle@ 300d331c     libcurl:strerror.obj
 0002:00017330       ??_C@_0P@DHEBFDOP@Internal?5error@ 300d3330     libcurl:strerror.obj
 0002:00017340       ??_C@_0BI@LBJFGLOL@Invalid?5socket?5argument@ 300d3340     libcurl:strerror.obj
 0002:00017358       ??_C@_0P@MEBGGHOD@Unknown?5option@ 300d3358     libcurl:strerror.obj
 0002:00017368       ??_C@_0BF@FBDMDNCF@Unknown?5share?5option@ 300d3368     libcurl:strerror.obj
 0002:00017380       ??_C@_0BH@NIJAKIEK@Share?5currently?5in?5use@ 300d3380     libcurl:strerror.obj
 0002:00017398       ??_C@_0BF@DJFABMCC@Invalid?5share?5handle@ 300d3398     libcurl:strerror.obj
 0002:000173b0       ??_C@_0CE@IMAFGLMH@Feature?5not?5enabled?5in?5this?5lib@ 300d33b0     libcurl:strerror.obj
 0002:000173d4       ??_C@_0BD@EPEOJDOK@CURLSHcode?5unknown@ 300d33d4     libcurl:strerror.obj
 0002:000173e8       ??_C@_0BB@HPBICEIN@Call?5interrupted@ 300d33e8     libcurl:strerror.obj
 0002:000173fc       ??_C@_08IEJNJKPH@Bad?5file@ 300d33fc     libcurl:strerror.obj
 0002:00017408       ??_C@_0L@PPOOPPLI@Bad?5access@ 300d3408     libcurl:strerror.obj
 0002:00017414       ??_C@_0N@OFCOFIJG@Bad?5argument@ 300d3414     libcurl:strerror.obj
 0002:00017424       ??_C@_0BC@PALKPJEA@Invalid?5arguments@ 300d3424     libcurl:strerror.obj
 0002:00017438       ??_C@_0BI@OFCJJGOL@Out?5of?5file?5descriptors@ 300d3438     libcurl:strerror.obj
 0002:00017450       ??_C@_0BB@KJIOCALL@Call?5would?5block@ 300d3450     libcurl:strerror.obj
 0002:00017464       ??_C@_0BK@LAFJNHKK@Blocking?5call?5in?5progress@ 300d3464     libcurl:strerror.obj
 0002:00017480       ??_C@_0BL@BCCPNPNK@Descriptor?5is?5not?5a?5socket@ 300d3480     libcurl:strerror.obj
 0002:0001749c       ??_C@_0BJ@PJJDHGPA@Need?5destination?5address@ 300d349c     libcurl:strerror.obj
 0002:000174b8       ??_C@_0BB@FIFBBOKN@Bad?5message?5size@ 300d34b8     libcurl:strerror.obj
 0002:000174cc       ??_C@_0N@HKFEGNLE@Bad?5protocol@ 300d34cc     libcurl:strerror.obj
 0002:000174dc       ??_C@_0BP@CMLHIFII@Protocol?5option?5is?5unsupported@ 300d34dc     libcurl:strerror.obj
 0002:000174fc       ??_C@_0BI@KIGPDANH@Protocol?5is?5unsupported@ 300d34fc     libcurl:strerror.obj
 0002:00017514       ??_C@_0BG@PJCKEJGL@Socket?5is?5unsupported@ 300d3514     libcurl:strerror.obj
 0002:0001752c       ??_C@_0BI@EDJAHLMH@Operation?5not?5supported@ 300d352c     libcurl:strerror.obj
 0002:00017544       ??_C@_0BN@GMEBDOHK@Address?5family?5not?5supported@ 300d3544     libcurl:strerror.obj
 0002:00017564       ??_C@_0BO@EBCCBLCJ@Protocol?5family?5not?5supported@ 300d3564     libcurl:strerror.obj
 0002:00017584       ??_C@_0BH@LOKACPE@Address?5already?5in?5use@ 300d3584     libcurl:strerror.obj
 0002:0001759c       ??_C@_0BG@LPGNEDFC@Address?5not?5available@ 300d359c     libcurl:strerror.obj
 0002:000175b4       ??_C@_0N@BLPKELHL@Network?5down@ 300d35b4     libcurl:strerror.obj
 0002:000175c4       ??_C@_0BE@BCKBHKGP@Network?5unreachable@ 300d35c4     libcurl:strerror.obj
 0002:000175d8       ??_C@_0BH@IGDKJAJA@Network?5has?5been?5reset@ 300d35d8     libcurl:strerror.obj
 0002:000175f0       ??_C@_0BH@CAGNAMLD@Connection?5was?5aborted@ 300d35f0     libcurl:strerror.obj
 0002:00017608       ??_C@_0BF@ONIPBLIH@Connection?5was?5reset@ 300d3608     libcurl:strerror.obj
 0002:00017620       ??_C@_0BA@OCGNHFCH@No?5buffer?5space@ 300d3620     libcurl:strerror.obj
 0002:00017630       ??_C@_0BM@CCONNCKE@Socket?5is?5already?5connected@ 300d3630     libcurl:strerror.obj
 0002:0001764c       ??_C@_0BI@ILAOGBJJ@Socket?5is?5not?5connected@ 300d364c     libcurl:strerror.obj
 0002:00017664       ??_C@_0BK@KFOKKGHA@Socket?5has?5been?5shut?5down@ 300d3664     libcurl:strerror.obj
 0002:00017680       ??_C@_0BE@JFIGGPOD@Too?5many?5references@ 300d3680     libcurl:strerror.obj
 0002:00017694       ??_C@_09OGKCMDDI@Timed?5out@ 300d3694     libcurl:strerror.obj
 0002:000176a0       ??_C@_0BD@NPDMPPFP@Connection?5refused@ 300d36a0     libcurl:strerror.obj
 0002:000176b4       ??_C@_06BPCOEKJC@Loop?$DP?$DP@ 300d36b4     libcurl:strerror.obj
 0002:000176bc       ??_C@_0O@CGIEAMHJ@Name?5too?5long@ 300d36bc     libcurl:strerror.obj
 0002:000176cc       ??_C@_09IKKBPHPB@Host?5down@ 300d36cc     libcurl:strerror.obj
 0002:000176d8       ??_C@_0BB@BJPAGEMG@Host?5unreachable@ 300d36d8     libcurl:strerror.obj
 0002:000176ec       ??_C@_09HNKMHKD@Not?5empty@ 300d36ec     libcurl:strerror.obj
 0002:000176f8       ??_C@_0BG@HNPEDFFM@Process?5limit?5reached@ 300d36f8     libcurl:strerror.obj
 0002:00017710       ??_C@_0P@DAFGFIDC@Too?5many?5users@ 300d3710     libcurl:strerror.obj
 0002:00017720       ??_C@_09OLCJIOMK@Bad?5quota@ 300d3720     libcurl:strerror.obj
 0002:0001772c       ??_C@_0BD@OAJEPCAF@Something?5is?5stale@ 300d372c     libcurl:strerror.obj
 0002:00017740       ??_C@_0N@CMGGHDDP@Remote?5error@ 300d3740     libcurl:strerror.obj
 0002:00017750       ??_C@_0N@NFBNFHML@Disconnected@ 300d3750     libcurl:strerror.obj
 0002:00017760       ??_C@_0BN@NBHIJNDO@Winsock?5library?5is?5not?5ready@ 300d3760     libcurl:strerror.obj
 0002:00017780       ??_C@_0CA@GOKMBGKE@Winsock?5library?5not?5initialised@ 300d3780     libcurl:strerror.obj
 0002:000177a0       ??_C@_0BO@CMBHKIGC@Winsock?5version?5not?5supported@ 300d37a0     libcurl:strerror.obj
 0002:000177c0       ??_C@_0P@CAFMJNJH@Host?5not?5found@ 300d37c0     libcurl:strerror.obj
 0002:000177d0       ??_C@_0BK@LIMDACMA@Host?5not?5found?0?5try?5again@ 300d37d0     libcurl:strerror.obj
 0002:000177ec       ??_C@_0CK@PHGIEDKM@Unrecoverable?5error?5in?5call?5to?5@ 300d37ec     libcurl:strerror.obj
 0002:00017818       ??_C@_0CB@PAPDILAI@No?5data?5record?5of?5requested?5typ@ 300d3818     libcurl:strerror.obj
 0002:0001783c       ??_C@_0BH@LLHLFDOA@Unknown?5error?5?$CFd?5?$CI?$CF?$CDx?$CJ@ 300d383c     libcurl:strerror.obj
 0002:00017854       ??_C@_0CD@DCBKMCLI@Pipe?5broke?3?5handle?50x?$CFp?0?5url?5?$DN?5@ 300d3854     libcurl:multi.obj
 0002:00017878       ??_C@_0CK@DEFEOOPG@In?5state?5?$CFd?5with?5no?5easy_conn?0?5@ 300d3878     libcurl:multi.obj
 0002:000178a4       ??_C@_0CL@HMKIODIE@Resolving?5timed?5out?5after?5?$CFld?5m@ 300d38a4     libcurl:multi.obj
 0002:000178d0       ??_C@_0CM@DPHBNNFI@Connection?5timed?5out?5after?5?$CFld?5@ 300d38d0     libcurl:multi.obj
 0002:00017904       ??_C@_0CJ@EHKACPHP@Internal?5error?5clearing?5splay?5n@ 300d3904     libcurl:multi.obj
 0002:00017930       ??_C@_0CJ@OALAEPML@Internal?5error?5removing?5splay?5n@ 300d3930     libcurl:multi.obj
 0002:0001795c       ??_C@_0CA@JLEACGJL@Delayed?5kill?5of?5easy?5handle?5?$CFp?6@ 300d395c     libcurl:multi.obj
 0002:00017988       ??_C@_0M@PCENNPGA@?$CFd?4?$CFd?4?$CFd?4?$CFd@ 300d3988     libcurl:inet_ntop.obj
 0002:00017994       ??_C@_04MEDPFIKH@HTTP@     300d3994     libcurl:http.obj
 0002:000179a0       _Curl_handler_http         300d39a0     libcurl:http.obj
 0002:000179e4       ??_C@_05CCMOGDN@?$CFs?3?$CFs@ 300d39e4     libcurl:http.obj
 0002:000179ec       ??_C@_06MJEPAECD@Proxy?9@  300d39ec     libcurl:http.obj
 0002:000179f4       ??_C@_0BM@NMNAGCIL@?$CFsAuthorization?3?5Basic?5?$CFs?$AN?6@ 300d39f4     libcurl:http.obj
 0002:00017a10       ??_C@_0BK@HOMHMGOD@Rewind?5stream?5after?5send?6@ 300d3a10     libcurl:http.obj
 0002:00017a2c       ??_C@_0DA@PNBIIHDA@NTLM?5send?0?5close?5instead?5of?5sen@ 300d3a2c     libcurl:http.obj
 0002:00017a5c       ??_C@_0CF@BBGENOPF@The?5requested?5URL?5returned?5erro@ 300d3a5c     libcurl:http.obj
 0002:00017a84       ??_C@_06MHCCOJOO@Digest@   300d3a84     libcurl:http.obj
 0002:00017a8c       ??_C@_0BF@PJIAANGG@Proxy?9authorization?3@ 300d3a8c     libcurl:http.obj
 0002:00017aa4       ??_C@_0P@LAMGMCAB@Authorization?3@ 300d3aa4     libcurl:http.obj
 0002:00017ab4       ??_C@_05NIKDGMHP@Basic@    300d3ab4     libcurl:http.obj
 0002:00017abc       ??_C@_05GPLPJAG@Proxy@     300d3abc     libcurl:http.obj
 0002:00017ac4       ??_C@_06LGMEBDBC@Server@   300d3ac4     libcurl:http.obj
 0002:00017acc       ??_C@_0CB@BNDOODNM@?$CFs?5auth?5using?5?$CFs?5with?5user?5?8?$CFs?8@ 300d3acc     libcurl:http.obj
 0002:00017af0       ??_C@_0CI@DIJIGOJK@Ignoring?5duplicate?5digest?5auth?5@ 300d3af0     libcurl:http.obj
 0002:00017b18       ??_C@_0CI@DKAENECE@Authentication?5problem?4?5Ignorin@ 300d3b18     libcurl:http.obj
 0002:00017b40       ??_C@_0BI@KEPAADBC@Empty?5reply?5from?5server@ 300d3b40     libcurl:http.obj
 0002:00017b58       ??_C@_07CBBFMBLH@Expect?3@ 300d3b58     libcurl:http.obj
 0002:00017b60       ??_C@_0N@IOPAKPOD@100?9continue@ 300d3b60     libcurl:http.obj
 0002:00017b70       ??_C@_0BH@JCEGEJFB@Expect?3?5100?9continue?$AN?6@ 300d3b70     libcurl:http.obj
 0002:00017b88       ??_C@_05LJIPCHEG@Host?3@   300d3b88     libcurl:http.obj
 0002:00017b90       ??_C@_0O@PDMPCIFL@Content?9Type?3@ 300d3b90     libcurl:http.obj
 0002:00017ba0       ??_C@_0P@HOJGPHBA@Content?9Length@ 300d3ba0     libcurl:http.obj
 0002:00017bb0       ??_C@_0L@PJJKMLL@Connection@ 300d3bb0     libcurl:http.obj
 0002:00017bbc       ??_C@_04LLEBNMDN@?$CFs?$AN?6@ 300d3bbc     libcurl:http.obj
 0002:00017bc4       ??_C@_0BC@PCIFJBEC@Invalid?5TIMEVALUE@ 300d3bc4     libcurl:http.obj
 0002:00017bd8       ??_C@_0CD@LGGEIANP@?$CFs?0?5?$CF02d?5?$CFs?5?$CF4d?5?$CF02d?3?$CF02d?3?$CF02d?5@ 300d3bd8     libcurl:http.obj
 0002:00017bfc       ??_C@_0BI@NABICJJI@If?9Modified?9Since?3?5?$CFs?$AN?6@ 300d3bfc     libcurl:http.obj
 0002:00017c14       ??_C@_0BK@GKIDIKCH@If?9Unmodified?9Since?3?5?$CFs?$AN?6@ 300d3c14     libcurl:http.obj
 0002:00017c30       ??_C@_0BE@EJEFJMDI@Last?9Modified?3?5?$CFs?$AN?6@ 300d3c30     libcurl:http.obj
 0002:00017c44       ??_C@_04HCJEIHPL@POST@     300d3c44     libcurl:http.obj
 0002:00017c4c       ??_C@_03KBBGFLEK@PUT@      300d3c4c     libcurl:http.obj
 0002:00017c50       ??_C@_0M@MHCNFEEJ@User?9Agent?3@ 300d3c50     libcurl:http.obj
 0002:00017c5c       ??_C@_08JADABNJB@Referer?3@ 300d3c5c     libcurl:http.obj
 0002:00017c68       ??_C@_0O@JOAPDPIB@Referer?3?5?$CFs?$AN?6@ 300d3c68     libcurl:http.obj
 0002:00017c78       ??_C@_07HKOKENHM@Cookie?3@ 300d3c78     libcurl:http.obj
 0002:00017c80       ??_C@_0BB@MNDIFJL@Accept?9Encoding?3@ 300d3c80     libcurl:http.obj
 0002:00017c94       ??_C@_0BG@NKBLEFIE@Accept?9Encoding?3?5?$CFs?$AN?6@ 300d3c94     libcurl:http.obj
 0002:00017cac       ??_C@_0BD@DNFFOCFM@Transfer?9Encoding?3@ 300d3cac     libcurl:http.obj
 0002:00017cc0       ??_C@_07KCKHAHHI@chunked@  300d3cc0     libcurl:http.obj
 0002:00017cc8       ??_C@_0CL@OGPNFEKJ@Chunky?5upload?5is?5not?5supported?5@ 300d3cc8     libcurl:http.obj
 0002:00017cf4       ??_C@_0BN@HCMGFBOG@Transfer?9Encoding?3?5chunked?$AN?6@ 300d3cf4     libcurl:http.obj
 0002:00017d14       ??_C@_0P@CKOLCGKA@Host?3?5?$CFs?$CFs?$CFs?$AN?6@ 300d3d14     libcurl:http.obj
 0002:00017d24       ??_C@_0BD@ILDAPLGC@Host?3?5?$CFs?$CFs?$CFs?3?$CFhu?$AN?6@ 300d3d24     libcurl:http.obj
 0002:00017d38       ??_C@_06FNAPNHDD@ftp?3?1?1@ 300d3d38     libcurl:http.obj
 0002:00017d40       ??_C@_06ODENPNKJ@?$DLtype?$DN@ 300d3d40     libcurl:http.obj
 0002:00017d48       ??_C@_07HGIIPDN@Accept?3@  300d3d48     libcurl:http.obj
 0002:00017d50       ??_C@_0O@GHCMGJMD@Accept?3?5?$CK?1?$CK?$AN?6@ 300d3d50     libcurl:http.obj
 0002:00017d60       ??_C@_0BG@FAJPNPNB@Could?5not?5seek?5stream@ 300d3d60     libcurl:http.obj
 0002:00017d78       ??_C@_0CK@LLNEEAAG@Could?5only?5read?5?$CFlld?5bytes?5from@ 300d3d78     libcurl:http.obj
 0002:00017da4       ??_C@_0CB@BPNMMFKO@File?5already?5completely?5uploade@ 300d3da4     libcurl:http.obj
 0002:00017dc8       ??_C@_0BC@MAJANMND@Range?3?5bytes?$DN?$CFs?$AN?6@ 300d3dc8     libcurl:http.obj
 0002:00017ddc       ??_C@_0P@EHIPKEAE@Content?9Range?3@ 300d3ddc     libcurl:http.obj
 0002:00017dec       ??_C@_0CD@EGGHJGON@Content?9Range?3?5bytes?50?9?$CFlld?1?$CFll@ 300d3dec     libcurl:http.obj
 0002:00017e10       ??_C@_0CD@FHBKPPCN@Content?9Range?3?5bytes?5?$CFs?$CFlld?1?$CFll@ 300d3e10     libcurl:http.obj
 0002:00017e34       ??_C@_0BP@OACDOKJO@Content?9Range?3?5bytes?5?$CFs?1?$CFlld?$AN?6@ 300d3e34     libcurl:http.obj
 0002:00017e54       ??_C@_03GCKCNDHP@1?41@     300d3e54     libcurl:http.obj
 0002:00017e58       ??_C@_03IKGEINEE@?$CFs?5@  300d3e58     libcurl:http.obj
 0002:00017e5c       ??_C@_0P@PKMKIDOA@ftp?3?1?1?$CFs?3?$CFs?$EA?$CFs@ 300d3e5c     libcurl:http.obj
 0002:00017e6c       ??_C@_0BC@IPGIMNCH@Proxy?9Connection?3@ 300d3e6c     libcurl:http.obj
 0002:00017e80       ??_C@_0BP@HADNPFIL@Proxy?9Connection?3?5Keep?9Alive?$AN?6@ 300d3e80     libcurl:http.obj
 0002:00017ea0       ??_C@_0CD@LMGJKHPB@?$CFs?5HTTP?1?$CFs?$AN?6?$CFs?$CFs?$CFs?$CFs?$CFs?$CFs?$CFs?$CFs?$CFs?$CF@ 300d3ea0     libcurl:http.obj
 0002:00017ec4       ??_C@_08MMENPDPI@Cookie?3?5@ 300d3ec4     libcurl:http.obj
 0002:00017ed0       ??_C@_02LNAEAIDO@?$DL?5@   300d3ed0     libcurl:http.obj
 0002:00017ed4       ??_C@_07CHANAGMK@?$CFs?$CFs?$DN?$CFs@ 300d3ed4     libcurl:http.obj
 0002:00017edc       ??_C@_0BG@DPJOPI@Content?9Length?3?50?$AN?6?$AN?6@ 300d3edc     libcurl:http.obj
 0002:00017ef4       ??_C@_0BM@OJEBFGIF@Failed?5sending?5POST?5request@ 300d3ef4     libcurl:http.obj
 0002:00017f10       ??_C@_0BK@LPOOPGIC@Internal?5HTTP?5POST?5error?$CB@ 300d3f10     libcurl:http.obj
 0002:00017f2c       ??_C@_0BA@DIGAFIOK@Content?9Length?3@ 300d3f2c     libcurl:http.obj
 0002:00017f3c       ??_C@_0BH@OKNEOOEN@Content?9Length?3?5?$CFlld?$AN?6@ 300d3f3c     libcurl:http.obj
 0002:00017f54       ??_C@_0CI@GKADKBCI@Could?5not?5get?5Content?9Type?5head@ 300d3f54     libcurl:http.obj
 0002:00017f7c       ??_C@_0BL@KJBPLOOA@Failed?5sending?5PUT?5request@ 300d3f7c     libcurl:http.obj
 0002:00017f98       ??_C@_0DC@DMFLICKC@Content?9Type?3?5application?1x?9www@ 300d3f98     libcurl:http.obj
 0002:00017fcc       ??_C@_04GMEAFLDM@?$CFx?$AN?6@ 300d3fcc     libcurl:http.obj
 0002:00017fd4       ??_C@_07MEMIDCKI@?$AN?60?$AN?6?$AN?6@ 300d3fd4     libcurl:http.obj
 0002:00017fdc       ??_C@_0CB@KDDFLMMJ@Failed?5sending?5HTTP?5POST?5reques@ 300d3fdc     libcurl:http.obj
 0002:00018000       ??_C@_0BM@FKBPNPDJ@Failed?5sending?5HTTP?5request@ 300d4000     libcurl:http.obj
 0002:0001801c       ??_C@_0DE@CFGEDJDP@upload?5completely?5sent?5off?3?5?$CFll@ 300d401c     libcurl:http.obj
 0002:00018050       ??_C@_05FKGKDBHO@HTTP?1@   300d4050     libcurl:http.obj
 0002:00018058       ??_C@_0CO@JOCKJJBF@Avoided?5giant?5realloc?5for?5heade@ 300d4058     libcurl:http.obj
 0002:00018088       ??_C@_0CH@GCMNELBI@Failed?5to?5alloc?5memory?5for?5big?5@ 300d4088     libcurl:http.obj
 0002:000180b0       ??_C@_0CF@BEOHFKGD@The?5requested?5URL?5returned?5erro@ 300d40b0     libcurl:http.obj
 0002:000180d8       ??_C@_0DJ@MIHKJEOL@no?5chunk?0?5no?5close?0?5no?5size?4?5As@ 300d40d8     libcurl:http.obj
 0002:00018114       ??_C@_0CN@NJNEALCI@HTTP?5error?5before?5end?5of?5send?0?5@ 300d4114     libcurl:http.obj
 0002:00018144       ??_C@_0CH@COOIMIHN@Keep?5sending?5data?5to?5get?5tossed@ 300d4144     libcurl:http.obj
 0002:0001816c       ??_C@_0BA@OEPEPGBM@?5HTTP?1?$CFd?4?$CFd?5?$CF3d@ 300d416c     libcurl:http.obj
 0002:0001817c       ??_C@_09ENILIIEL@?5HTTP?5?$CF3d@ 300d417c     libcurl:http.obj
 0002:00018188       ??_C@_0BA@LKOKBCBN@?5RTSP?1?$CFd?4?$CFd?5?$CF3d@ 300d4188     libcurl:http.obj
 0002:00018198       ??_C@_0CD@KMCBNFEI@HTTP?51?40?0?5assume?5close?5after?5bo@ 300d4198     libcurl:http.obj
 0002:000181bc       ??_C@_0DH@KPBLCMAP@Negative?5content?9length?3?5?$CFlld?0?5@ 300d41bc     libcurl:http.obj
 0002:000181f4       ??_C@_0L@FFDPOIEG@keep?9alive@ 300d41f4     libcurl:http.obj
 0002:00018200       ??_C@_0CO@NNECKAAI@HTTP?11?40?5proxy?5connection?5set?5t@ 300d4200     libcurl:http.obj
 0002:00018230       ??_C@_0CG@GBJOIAPM@HTTP?11?41?5proxy?5connection?5set?5c@ 300d4230     libcurl:http.obj
 0002:00018258       ??_C@_0M@HJBFCNNB@Connection?3@ 300d4258     libcurl:http.obj
 0002:00018264       ??_C@_0CI@DLONMNKD@HTTP?11?40?5connection?5set?5to?5keep@ 300d4264     libcurl:http.obj
 0002:0001828c       ??_C@_07FNHFFEJG@deflate@  300d428c     libcurl:http.obj
 0002:00018294       ??_C@_04HOHEGKBO@gzip@     300d4294     libcurl:http.obj
 0002:0001829c       ??_C@_06EBIPMKNJ@x?9gzip@  300d429c     libcurl:http.obj
 0002:000182a4       ??_C@_08EJNPIMGB@compress@ 300d42a4     libcurl:http.obj
 0002:000182b0       ??_C@_0L@DKBDBCPF@x?9compress@ 300d42b0     libcurl:http.obj
 0002:000182bc       ??_C@_0BC@FGDKEGD@Content?9Encoding?3@ 300d42bc     libcurl:http.obj
 0002:000182d0       ??_C@_0P@FFJLAOBC@Last?9Modified?3@ 300d42d0     libcurl:http.obj
 0002:000182e0       ??_C@_0BC@EALNDOCH@WWW?9Authenticate?3@ 300d42e0     libcurl:http.obj
 0002:000182f4       ??_C@_0BE@IHHLHIBG@Proxy?9authenticate?3@ 300d42f4     libcurl:http.obj
 0002:00018308       ??_C@_09GILIFLDG@Location?3@ 300d4308     libcurl:http.obj
 0002:00018318       ??_C@_0EN@COANIBDN@Operation?5too?5slow?4?5Less?5than?5?$CF@ 300d4318     libcurl:speedcheck.obj
 0002:00018368       ??_C@_08JGCGJPK@?9?9?3?9?9?3?9?9@ 300d4368     libcurl:progress.obj
 0002:00018374       ??_C@_0BE@JKLADOHK@?$CF2lld?3?$CF02lld?3?$CF02lld@ 300d4374     libcurl:progress.obj
 0002:00018388       ??_C@_0P@NILHKDDP@?$CF3lldd?5?$CF02lldh@ 300d4388     libcurl:progress.obj
 0002:00018398       ??_C@_06IFBEBOAH@?$CF7lldd@ 300d4398     libcurl:progress.obj
 0002:000183a0       ??_C@_05EBDBCJHD@?$CF5lld@ 300d43a0     libcurl:progress.obj
 0002:000183a8       ??_C@_06IEBIHAGG@?$CF4lldk@ 300d43a8     libcurl:progress.obj
 0002:000183b0       ??_C@_0N@GEGKDIBI@?$CF2lld?4?$CF0lldM@ 300d43b0     libcurl:progress.obj
 0002:000183c0       ??_C@_06EHMGPDEC@?$CF4lldM@ 300d43c0     libcurl:progress.obj
 0002:000183c8       ??_C@_0N@JOIFNAJC@?$CF2lld?4?$CF0lldG@ 300d43c8     libcurl:progress.obj
 0002:000183d8       ??_C@_06LNCJBLMI@?$CF4lldG@ 300d43d8     libcurl:progress.obj
 0002:000183e0       ??_C@_06NMMGFKFK@?$CF4lldT@ 300d43e0     libcurl:progress.obj
 0002:000183e8       ??_C@_06LIKKJPFO@?$CF4lldP@ 300d43e8     libcurl:progress.obj
 0002:000183f0       ??_C@_0BB@GAJGHPCC@Callback?5aborted@ 300d43f0     libcurl:progress.obj
 0002:00018404       ??_C@_0CO@LPBOAFPF@?$CK?$CK?5Resuming?5transfer?5from?5byte?5@ 300d4404     libcurl:progress.obj
 0002:00018438       ??_C@_0KC@DNGKHLLM@?5?5?$CF?$CF?5Total?5?5?5?5?$CF?$CF?5Received?5?$CF?$CF?5Xf@ 300d4438     libcurl:progress.obj
 0002:000184dc       ??_C@_0DC@EMOPNOAI@?$AN?$CF3lld?5?$CFs?5?5?$CF3lld?5?$CFs?5?5?$CF3lld?5?$CFs?5?5@ 300d44dc     libcurl:progress.obj
 0002:00018510       ??_C@_06EPABMEI@?$CF?$CF?$CF02X@ 300d4510     libcurl:escape.obj
 0002:00018518       ??_C@_04GHGFPGNC@HOME@     300d4518     libcurl:netrc.obj
 0002:00018520       ??_C@_06CJNKJMFJ@_netrc@   300d4520     libcurl:netrc.obj
 0002:00018528       ??_C@_01KICIPPFI@?2@       300d4528     libcurl:netrc.obj
 0002:0001852c       ??_C@_06DIJPEION@?$CFs?$CFs?$CFs@ 300d452c     libcurl:netrc.obj
 0002:00018534       ??_C@_03ILLHFMNI@?5?7?6@   300d4534     libcurl:netrc.obj
 0002:00018538       ??_C@_07MHDNFCJE@machine@  300d4538     libcurl:netrc.obj
 0002:00018540       ??_C@_05DAOAAINN@login@    300d4540     libcurl:netrc.obj
 0002:00018548       ??_C@_08NLHBPEGP@password@ 300d4548     libcurl:netrc.obj
 0002:00018554       ??_C@_05OOEDLKEB@nonce@    300d4554     libcurl:http_digest.obj
 0002:0001855c       ??_C@_05BFAEFKPM@stale@    300d455c     libcurl:http_digest.obj
 0002:00018564       ??_C@_04LOAJBDKD@true@     300d4564     libcurl:http_digest.obj
 0002:0001856c       ??_C@_05ELABLNGD@realm@    300d456c     libcurl:http_digest.obj
 0002:00018574       ??_C@_06CJCOLNBB@opaque@   300d4574     libcurl:http_digest.obj
 0002:0001857c       ??_C@_03GBIMBCPB@qop@      300d457c     libcurl:http_digest.obj
 0002:00018580       ??_C@_04DPLCCHJC@auth@     300d4580     libcurl:http_digest.obj
 0002:00018588       ??_C@_08DMLLJBKJ@auth?9int@ 300d4588     libcurl:http_digest.obj
 0002:00018594       ??_C@_09JPNFBOJG@algorithm@ 300d4594     libcurl:http_digest.obj
 0002:000185a0       ??_C@_08DKLKDOBJ@MD5?9sess@ 300d45a0     libcurl:http_digest.obj
 0002:000185ac       ??_C@_03GCGHEHKJ@MD5@      300d45ac     libcurl:http_digest.obj
 0002:000185b0       ??_C@_04NOJCDH@?$CF02x@    300d45b0     libcurl:http_digest.obj
 0002:000185b8       ??_C@_05OFKDKEEC@?$CF32ld@ 300d45b8     libcurl:http_digest.obj
 0002:000185c0       ??_C@_08LDENPILD@?$CFs?3?$CFs?3?$CFs@ 300d45c0     libcurl:http_digest.obj
 0002:000185cc       ??_C@_07CLCODDKD@?$CFs?3?$CF?4?$CKs@ 300d45cc     libcurl:http_digest.obj
 0002:000185d4       ??_C@_0BE@DBLPOOMB@?$CFs?3?$CFs?3?$CF08x?3?$CFs?3?$CFs?3?$CFs@ 300d45d4     libcurl:http_digest.obj
 0002:000185e8       ??_C@_0HF@OOGEGOMI@?$CFsAuthorization?3?5Digest?5usernam@ 300d45e8     libcurl:http_digest.obj
 0002:00018660       ??_C@_0FH@INCDIGEM@?$CFsAuthorization?3?5Digest?5usernam@ 300d4660     libcurl:http_digest.obj
 0002:000186b8       ??_C@_0BA@BIMHECMC@?$CFs?0?5opaque?$DN?$CC?$CFs?$CC@ 300d46b8     libcurl:http_digest.obj
 0002:000186c8       ??_C@_0BD@GMKIGNPK@?$CFs?0?5algorithm?$DN?$CC?$CFs?$CC@ 300d46c8     libcurl:http_digest.obj
 0002:000186dc       ??_C@_0BA@ELKGOGDA@?$CFhu?4?$CFhu?4?$CFhu?4?$CFhu@ 300d46dc     libcurl:socks.obj
 0002:000186ec       ??_C@_0CL@BDNFEDCD@Failed?5to?5resolve?5?$CC?$CFs?$CC?5for?5SOCK@ 300d46ec     libcurl:socks.obj
 0002:00018718       ??_C@_0CH@MHLMDCGL@Failed?5to?5send?5SOCKS4?5connect?5r@ 300d4718     libcurl:socks.obj
 0002:00018740       ??_C@_0CO@OMMNBOOK@Failed?5to?5receive?5SOCKS4?5connec@ 300d4740     libcurl:socks.obj
 0002:00018770       ??_C@_0DF@PEFHPCLE@SOCKS4?5reply?5has?5wrong?5version?0@ 300d4770     libcurl:socks.obj
 0002:000187a8       ??_C@_01MCMALHOG@a@        300d47a8     libcurl:socks.obj
 0002:000187ac       ??_C@_0BL@KEGECNIK@SOCKS4?$CFs?5request?5granted?4?6@ 300d47ac     libcurl:socks.obj
 0002:000187c8       ??_C@_0FG@CLNHBPIC@Can?8t?5complete?5SOCKS4?5connectio@ 300d47c8     libcurl:socks.obj
 0002:00018820       ??_C@_0II@IBODGEP@Can?8t?5complete?5SOCKS4?5connectio@ 300d4820     libcurl:socks.obj
 0002:000188a8       ??_C@_0IM@JGJMKCMN@Can?8t?5complete?5SOCKS4?5connectio@ 300d48a8     libcurl:socks.obj
 0002:00018938       ??_C@_0ED@LEIEKNLE@Can?8t?5complete?5SOCKS4?5connectio@ 300d4938     libcurl:socks.obj
 0002:00018980       ??_C@_0FC@NMNHLDOO@SOCKS5?3?5server?5resolving?5disabl@ 300d4980     libcurl:socks.obj
 0002:000189d4       ??_C@_0BL@OCCHBFCI@SOCKS5?3?5no?5connection?5here@ 300d49d4     libcurl:socks.obj
 0002:000189f0       ??_C@_0BL@EFCPPHKH@SOCKS5?3?5connection?5timeout@ 300d49f0     libcurl:socks.obj
 0002:00018a0c       ??_C@_0CJ@NKLJBLB@SOCKS5?3?5error?5occurred?5during?5c@ 300d4a0c     libcurl:socks.obj
 0002:00018a38       ??_C@_0CH@GMDFCCKK@Unable?5to?5send?5initial?5SOCKS5?5r@ 300d4a38     libcurl:socks.obj
 0002:00018a60       ??_C@_0BH@BOPAPHPH@SOCKS5?5nothing?5to?5read@ 300d4a60     libcurl:socks.obj
 0002:00018a78       ??_C@_0BE@OHGGKBOK@SOCKS5?5read?5timeout@ 300d4a78     libcurl:socks.obj
 0002:00018a8c       ??_C@_0BL@CDKPBBDI@SOCKS5?5read?5error?5occurred@ 300d4a8c     libcurl:socks.obj
 0002:00018aa8       ??_C@_0CL@JAKJLHBC@Unable?5to?5receive?5initial?5SOCKS@ 300d4aa8     libcurl:socks.obj
 0002:00018ad4       ??_C@_0DF@KPPCOMKD@Received?5invalid?5version?5in?5ini@ 300d4ad4     libcurl:socks.obj
 0002:00018b0c       ??_C@_0CP@CMDGNMCE@Failed?5to?5send?5SOCKS5?5sub?9negot@ 300d4b0c     libcurl:socks.obj
 0002:00018b3c       ??_C@_0DD@BOLKPAMM@Unable?5to?5receive?5SOCKS5?5sub?9ne@ 300d4b3c     libcurl:socks.obj
 0002:00018b70       ??_C@_0DA@CLHHICIG@User?5was?5rejected?5by?5the?5SOCKS5@ 300d4b70     libcurl:socks.obj
 0002:00018ba0       ??_C@_0DL@FCEPENBN@SOCKS5?5GSSAPI?5per?9message?5authe@ 300d4ba0     libcurl:socks.obj
 0002:00018be0       ??_C@_0KL@DDDGIHDF@No?5authentication?5method?5was?5ac@ 300d4be0     libcurl:socks.obj
 0002:00018c8c       ??_C@_0CJ@CHHGJDNO@No?5authentication?5method?5was?5ac@ 300d4c8c     libcurl:socks.obj
 0002:00018cb8       ??_C@_0DJ@GEDKBFPH@Undocumented?5SOCKS5?5mode?5attemp@ 300d4cb8     libcurl:socks.obj
 0002:00018cf4       ??_C@_03PMGGPEJJ@?$CFd?6@  300d4cf4     libcurl:socks.obj
 0002:00018cf8       ??_C@_0CL@NCFLJMOD@Failed?5to?5resolve?5?$CC?$CFs?$CC?5for?5SOCK@ 300d4cf8     libcurl:socks.obj
 0002:00018d24       ??_C@_0CH@BAFOLCDD@Failed?5to?5send?5SOCKS5?5connect?5r@ 300d4d24     libcurl:socks.obj
 0002:00018d4c       ??_C@_0CO@HHLOPEDO@Failed?5to?5receive?5SOCKS5?5connec@ 300d4d4c     libcurl:socks.obj
 0002:00018d7c       ??_C@_0DF@MICEHEFP@SOCKS5?5reply?5has?5wrong?5version?0@ 300d4d7c     libcurl:socks.obj
 0002:00018db4       ??_C@_0DJ@OOADOFKL@Can?8t?5complete?5SOCKS5?5connectio@ 300d4db4     libcurl:socks.obj
 0002:00018df0       ??_C@_0DA@NMGIBEHP@Can?8t?5complete?5SOCKS5?5connectio@ 300d4df0     libcurl:socks.obj
 0002:00018e20       ??_C@_0HF@MLHPOGPO@Can?8t?5complete?5SOCKS5?5connectio@ 300d4e20     libcurl:socks.obj
 0002:00018e98       ??_C@_0CH@JPGGMIOF@Establish?5HTTP?5proxy?5tunnel?5to?5@ 300d4e98     libcurl:http_proxy.obj
 0002:00018ec0       ??_C@_06BKFBKBNF@?$CFs?3?$CFhu@ 300d4ec0     libcurl:http_proxy.obj
 0002:00018ec8       ??_C@_07FNNMGOPK@CONNECT@  300d4ec8     libcurl:http_proxy.obj
 0002:00018ed0       ??_C@_0L@OMLGIDNG@?$CFs?$CFs?$CFs?3?$CFhu@ 300d4ed0     libcurl:http_proxy.obj
 0002:00018edc       ??_C@_0L@LAAIKCML@Host?3?5?$CFs?$AN?6@ 300d4edc     libcurl:http_proxy.obj
 0002:00018ee8       ??_C@_0BN@HGHMBOED@CONNECT?5?$CFs?5HTTP?1?$CFs?$AN?6?$CFs?$CFs?$CFs?$CFs@ 300d4ee8     libcurl:http_proxy.obj
 0002:00018f08       ??_C@_0CA@KCBNIFEI@Failed?5sending?5CONNECT?5to?5proxy@ 300d4f08     libcurl:http_proxy.obj
 0002:00018f28       ??_C@_0CF@KOLJOBP@Proxy?5CONNECT?5aborted?5due?5to?5ti@ 300d4f28     libcurl:http_proxy.obj
 0002:00018f50       ??_C@_0CP@KGBDEBFA@Proxy?5CONNECT?5aborted?5due?5to?5se@ 300d4f50     libcurl:http_proxy.obj
 0002:00018f80       ??_C@_0BG@JFLKGDIG@Proxy?5CONNECT?5aborted@ 300d4f80     libcurl:http_proxy.obj
 0002:00018f98       ??_C@_0BE@LIFOKNAI@chunk?5reading?5DONE?6@ 300d4f98     libcurl:http_proxy.obj
 0002:00018fac       ??_C@_0CD@MDLFKJBB@Read?5?$CFzd?5bytes?5of?5chunk?0?5contin@ 300d4fac     libcurl:http_proxy.obj
 0002:00018fd0       ??_C@_0CE@JDDECCMG@Ignore?5?$CFlld?5bytes?5of?5response?9b@ 300d4fd0     libcurl:http_proxy.obj
 0002:00018ff4       ??_C@_0BJ@OCMJBKFM@?$CFzd?5bytes?5of?5chunk?5left?6@ 300d4ff4     libcurl:http_proxy.obj
 0002:00019010       ??_C@_0FB@BCMDFPIO@Proxy?5CONNECT?5followed?5by?5?$CFzd?5b@ 300d5010     libcurl:http_proxy.obj
 0002:00019064       ??_C@_0BL@FDNFJOM@CONNECT?5responded?5chunked?6@ 300d5064     libcurl:http_proxy.obj
 0002:00019080       ??_C@_0N@HGFACOOI@HTTP?11?4?$CFd?5?$CFd@ 300d5080     libcurl:http_proxy.obj
 0002:00019090       ??_C@_0BO@HAGMECGJ@TUNNEL_STATE?5switched?5to?3?5?$CFd?6@ 300d5090     libcurl:http_proxy.obj
 0002:000190b0       ??_C@_0CP@GIFMMFLA@Received?5HTTP?5code?5?$CFd?5from?5prox@ 300d50b0     libcurl:http_proxy.obj
 0002:000190e0       ??_C@_0CF@JCOBEKG@Proxy?5replied?5OK?5to?5CONNECT?5req@ 300d50e0     libcurl:http_proxy.obj
 0002:00019164       ??_C@_09HADNJIG@image?1gif@ 300d5164     libcurl:formdata.obj
 0002:00019170       ??_C@_0L@PJKHLKFB@image?1jpeg@ 300d5170     libcurl:formdata.obj
 0002:0001917c       ??_C@_0L@NPNLKGOJ@text?1plain@ 300d517c     libcurl:formdata.obj
 0002:00019188       ??_C@_09KABDMIOB@text?1html@ 300d5188     libcurl:formdata.obj
 0002:00019194       ??_C@_0BA@PHEJFMAP@application?1xml@ 300d5194     libcurl:formdata.obj
 0002:000191a4       ??_C@_0BJ@JDCJMJCJ@application?1octet?9stream@ 300d51a4     libcurl:formdata.obj
 0002:000191c0       ??_C@_0CC@DIACEDFC@Content?9Type?3?5multipart?1form?9da@ 300d51c0     libcurl:formdata.obj
 0002:000191e4       ??_C@_0BC@PBOCNBDD@?$CFs?$DL?5boundary?$DN?$CFs?$AN?6@ 300d51e4     libcurl:formdata.obj
 0002:000191f8       ??_C@_06PFFHLKOK@?9?9?$CFs?$AN?6@ 300d51f8     libcurl:formdata.obj
 0002:00019200       ??_C@_0CH@OHOJPEDO@Content?9Disposition?3?5form?9data?$DL@ 300d5200     libcurl:formdata.obj
 0002:00019228       ??_C@_01BJJEKLCA@?$CC@     300d5228     libcurl:formdata.obj
 0002:0001922c       ??_C@_0CP@BFABFNCK@?$AN?6Content?9Type?3?5multipart?1mixed@ 300d522c     libcurl:formdata.obj
 0002:0001925c       ??_C@_0DH@KBDMBELK@?$AN?6?9?9?$CFs?$AN?6Content?9Disposition?3?5at@ 300d525c     libcurl:formdata.obj
 0002:00019294       ??_C@_0BA@LCLKDLIO@?$DL?5filename?$DN?$CC?$CFs?$CC@ 300d5294     libcurl:formdata.obj
 0002:000192a4       ??_C@_0BD@JKIANMEL@?$AN?6Content?9Type?3?5?$CFs@ 300d52a4     libcurl:formdata.obj
 0002:000192b8       ??_C@_04JEGEICAJ@?$AN?6?$CFs@ 300d52b8     libcurl:formdata.obj
 0002:000192c0       ??_C@_04FMMHFHOO@?$AN?6?$AN?6@ 300d52c0     libcurl:formdata.obj
 0002:000192c8       ??_C@_02JDPG@rb@           300d52c8     libcurl:formdata.obj
 0002:000192cc       ??_C@_0BI@HLDGMHLM@couldn?8t?5open?5file?5?$CC?$CFs?$CC@ 300d52cc     libcurl:formdata.obj
 0002:000192e4       ??_C@_08MDFHOCA@?$AN?6?9?9?$CFs?9?9@ 300d52e4     libcurl:formdata.obj
 0002:000192f0       ??_C@_0L@NAAOAPHF@?$AN?6?9?9?$CFs?9?9?$AN?6@ 300d52f0     libcurl:formdata.obj
 0002:000192fc       ??_C@_0BN@PNBNEKLM@?9?9?9?9?9?9?9?9?9?9?9?9?9?9?9?9?9?9?9?9?9?9?9?9?9?9?9?9@ 300d52fc     libcurl:formdata.obj
 0002:00019364       ??_C@_06BHJPINKK@?$CFc?$CFc?$DN?$DN@ 300d5364     libcurl:base64.obj
 0002:0001936c       ??_C@_07KPHDOBAP@?$CFc?$CFc?$CFc?$DN@ 300d536c     libcurl:base64.obj
 0002:00019374       ??_C@_08MMPFKENM@?$CFc?$CFc?$CFc?$CFc@ 300d5374     libcurl:base64.obj
 0002:00019380       _Curl_DIGEST_MD5           300d5380     libcurl:md5.obj
 0002:00019394       _Curl_HMAC_MD5             300d5394     libcurl:md5.obj
 0002:000193b4       __pDefaultRawDllMain       300d53b4     MSVCRT:dll_dllmain.obj
 0002:000193b4       __pRawDllMain              300d53b4     MSVCRT:dll_dllmain.obj
 0002:000194a8       __load_config_used         300d54a8     MSVCRT:loadcfg.obj
 0002:00019550       ___safe_se_handler_table   300d5550     <linker-defined>
 0002:000197f8       ___rtc_iaa                 300d57f8     MSVCRT:initsect.obj
 0002:000197fc       ___rtc_izz                 300d57fc     MSVCRT:initsect.obj
 0002:00019800       ___rtc_taa                 300d5800     MSVCRT:initsect.obj
 0002:00019804       ___rtc_tzz                 300d5804     MSVCRT:initsect.obj
 0002:00019eec       __IMPORT_DESCRIPTOR_IPHLPAPI 300d5eec     iphlpapi:IPHLPAPI.DLL
 0002:00019f00       __IMPORT_DESCRIPTOR_WS2_32 300d5f00     ws2_32:WS2_32.dll
 0002:00019f14       __IMPORT_DESCRIPTOR_KERNEL32 300d5f14     kernel32:KERNEL32.dll
 0002:00019f28       __IMPORT_DESCRIPTOR_USER32 300d5f28     user32:USER32.dll
 0002:00019f3c       __IMPORT_DESCRIPTOR_ADVAPI32 300d5f3c     advapi32:ADVAPI32.dll
 0002:00019f50       __IMPORT_DESCRIPTOR_VCRUNTIME140 300d5f50     vcruntime:VCRUNTIME140.dll
 0002:00019f64       __IMPORT_DESCRIPTOR_api-ms-win-crt-utility-l1-1-0 300d5f64     ucrt:api-ms-win-crt-utility-l1-1-0.dll
 0002:00019f78       __IMPORT_DESCRIPTOR_api-ms-win-crt-convert-l1-1-0 300d5f78     ucrt:api-ms-win-crt-convert-l1-1-0.dll
 0002:00019f8c       __IMPORT_DESCRIPTOR_api-ms-win-crt-string-l1-1-0 300d5f8c     ucrt:api-ms-win-crt-string-l1-1-0.dll
 0002:00019fa0       __IMPORT_DESCRIPTOR_api-ms-win-crt-stdio-l1-1-0 300d5fa0     ucrt:api-ms-win-crt-stdio-l1-1-0.dll
 0002:00019fb4       __IMPORT_DESCRIPTOR_api-ms-win-crt-math-l1-1-0 300d5fb4     ucrt:api-ms-win-crt-math-l1-1-0.dll
 0002:00019fc8       __IMPORT_DESCRIPTOR_api-ms-win-crt-heap-l1-1-0 300d5fc8     ucrt:api-ms-win-crt-heap-l1-1-0.dll
 0002:00019fdc       __IMPORT_DESCRIPTOR_api-ms-win-crt-filesystem-l1-1-0 300d5fdc     ucrt:api-ms-win-crt-filesystem-l1-1-0.dll
 0002:00019ff0       __IMPORT_DESCRIPTOR_api-ms-win-crt-environment-l1-1-0 300d5ff0     ucrt:api-ms-win-crt-environment-l1-1-0.dll
 0002:0001a004       __IMPORT_DESCRIPTOR_api-ms-win-crt-time-l1-1-0 300d6004     ucrt:api-ms-win-crt-time-l1-1-0.dll
 0002:0001a018       __IMPORT_DESCRIPTOR_api-ms-win-crt-runtime-l1-1-0 300d6018     ucrt:api-ms-win-crt-runtime-l1-1-0.dll
 0002:0001a02c       __NULL_IMPORT_DESCRIPTOR   300d602c     iphlpapi:IPHLPAPI.DLL
 0003:00000000       _animStateStr              300d7000     bg_animation.obj
 0003:00000028       _animBodyPartsStr          300d7028     bg_animation.obj
 0003:00000518       _bg_allies_playerclasses   300d7518     bg_classes.obj
 0003:00000658       _bg_axis_playerclasses     300d7658     bg_classes.obj
 0003:00000798       _playerlegsProneMins       300d7798     bg_misc.obj
 0003:000007a4       _playerlegsProneMaxs       300d77a4     bg_misc.obj
 0003:000007b0       _weapBanksMultiPlayer      300d77b0     bg_misc.obj
 0003:00000990       _reloadableWeapons         300d7990     bg_misc.obj
 0003:000009e4       _skillNames                300d79e4     bg_misc.obj
 0003:00000a00       _skillNamesLine1           300d7a00     bg_misc.obj
 0003:00000a1c       _skillNamesLine2           300d7a1c     bg_misc.obj
 0003:00000a38       _medalNames                300d7a38     bg_misc.obj
 0003:00000a54       _bg_numItems               300d7a54     bg_misc.obj
 0003:00000a58       _skillLevels               300d7a58     bg_misc.obj
 0003:00000ae4       _rankNames_Axis            300d7ae4     bg_misc.obj
 0003:00000b10       _bg_skillRewards           300d7b10     bg_misc.obj
 0003:00000b80       _weapAlts                  300d7b80     bg_misc.obj
 0003:00000c48       _animStrings               300d7c48     bg_misc.obj
 0003:00000e50       _animStringsOld            300d7e50     bg_misc.obj
 0003:00000f98       _bg_itemlist               300d7f98     bg_misc.obj
 0003:000021a4       _rankNames_Allies          300d91a4     bg_misc.obj
 0003:000021d0       _miniRankNames_Axis        300d91d0     bg_misc.obj
 0003:000021fc       _miniRankNames_Allies      300d91fc     bg_misc.obj
 0003:00002228       _rankSoundNames_Axis       300d9228     bg_misc.obj
 0003:00002254       _rankSoundNames_Allies     300d9254     bg_misc.obj
 0003:00002280       _bg_fireteamNames          300d9280     bg_misc.obj
 0003:00002298       _numVotesAvailable         300d9298     bg_misc.obj
 0003:000022a0       _eventnames                300d92a0     bg_misc.obj
 0003:000024b0       _ammoTableMP               300d94b0     bg_misc.obj
 0003:00002d48       _bg_heavyWeapons           300d9d48     bg_misc.obj
 0003:00002d60       _OSP_Colortable            300d9d60     bg_misc.obj
 0003:00002e00       _pm_stopspeed              300d9e00     bg_pmove.obj
 0003:00002e04       _pm_waterSwimScale         300d9e04     bg_pmove.obj
 0003:00002e08       _pm_waterWadeScale         300d9e08     bg_pmove.obj
 0003:00002e0c       _pm_slagSwimScale          300d9e0c     bg_pmove.obj
 0003:00002e10       _pm_slagWadeScale          300d9e10     bg_pmove.obj
 0003:00002e14       _pm_accelerate             300d9e14     bg_pmove.obj
 0003:00002e18       _pm_airaccelerate          300d9e18     bg_pmove.obj
 0003:00002e1c       _pm_wateraccelerate        300d9e1c     bg_pmove.obj
 0003:00002e20       _pm_slagaccelerate         300d9e20     bg_pmove.obj
 0003:00002e24       _pm_flyaccelerate          300d9e24     bg_pmove.obj
 0003:00002e28       _pm_friction               300d9e28     bg_pmove.obj
 0003:00002e2c       _pm_waterfriction          300d9e2c     bg_pmove.obj
 0003:00002e30       _pm_slagfriction           300d9e30     bg_pmove.obj
 0003:00002e34       _pm_flightfriction         300d9e34     bg_pmove.obj
 0003:00002e38       _pm_proneSpeedScale        300d9e38     bg_pmove.obj
 0003:00002e3c       _pm_ladderfriction         300d9e3c     bg_pmove.obj
 0003:00002e40       _pm_spectatorfriction      300d9e40     bg_pmove.obj
 0003:00002ee0       _ccInitial                 300d9ee0     cg_commandmap.obj
 0003:00002ee8       _aMonths                   300d9ee8     cg_consolecmds.obj
 0003:000031b8       _debriefTitleFont          300da1b8     cg_debriefing.obj
 0003:000031dc       _debriefHeadingFont        300da1dc     cg_debriefing.obj
 0003:00003200       _debriefListFont           300da200     cg_debriefing.obj
 0003:00003224       _debriefPlayerHeadingSmallerFont 300da224     cg_debriefing.obj
 0003:00003248       _debriefTitleBack          300da248     cg_debriefing.obj
 0003:00003298       _debriefTitleBackBorderLower 300da298     cg_debriefing.obj
 0003:000032e8       _debriefTitleBackLower     300da2e8     cg_debriefing.obj
 0003:00003338       _debriefTitleBackBorder    300da338     cg_debriefing.obj
 0003:00003388       _debriefTitle              300da388     cg_debriefing.obj
 0003:000033d8       _debriefPlayerHeaderBackBorderLower 300da3d8     cg_debriefing.obj
 0003:00003428       _debriefPlayerHeaderBackLower 300da428     cg_debriefing.obj
 0003:00003478       _debriefPlayerHeaderBack   300da478     cg_debriefing.obj
 0003:000034c8       _debriefPlayerHeaderBackBorder 300da4c8     cg_debriefing.obj
 0003:00003518       _debriefPlayerSkillsBackBorderLower 300da518     cg_debriefing.obj
 0003:00003568       _debriefPlayerSkillsBackLower 300da568     cg_debriefing.obj
 0003:000035b8       _debriefPlayerSkillsBack   300da5b8     cg_debriefing.obj
 0003:00003608       _debriefPlayerSkillsBackBorder 300da608     cg_debriefing.obj
 0003:00003658       _debriefPlayerWeaponStatsHeader 300da658     cg_debriefing.obj
 0003:000036a8       _debriefPlayerWeaponStatsNameHeader 300da6a8     cg_debriefing.obj
 0003:000036f8       _debriefPlayerWeaponStatsShotsHeader 300da6f8     cg_debriefing.obj
 0003:00003748       _debriefPlayerWeaponStatsHitsHeader 300da748     cg_debriefing.obj
 0003:00003798       _debriefPlayerWeaponStatsKillsHeader 300da798     cg_debriefing.obj
 0003:000037e8       _debriefPlayerWeaponStatsList 300da7e8     cg_debriefing.obj
 0003:00003838       _debriefPlayerWeaponStatsListScroll 300da838     cg_debriefing.obj
 0003:00003888       _debriefTitleWindow        300da888     cg_debriefing.obj
 0003:000038d8       _debriefMissionTitleWindow 300da8d8     cg_debriefing.obj
 0003:00003928       _debriefMissionImage       300da928     cg_debriefing.obj
 0003:00003978       _debriefMissionMaps        300da978     cg_debriefing.obj
 0003:000039c8       _debriefMissionAwardsWindow 300da9c8     cg_debriefing.obj
 0003:00003a18       _debriefMissionAwardsList  300daa18     cg_debriefing.obj
 0003:00003a68       _debriefMissionStatsWindow 300daa68     cg_debriefing.obj
 0003:00003ab8       _debriefMissionStatsHeaders 300daab8     cg_debriefing.obj
 0003:00003b08       _debriefMissionStatsWinner 300dab08     cg_debriefing.obj
 0003:00003b58       _debriefMissionStatsLoser  300dab58     cg_debriefing.obj
 0003:00003ba8       _debriefPlayerListWindow   300daba8     cg_debriefing.obj
 0003:00003bf8       _debriefPlayerListFont     300dabf8     cg_debriefing.obj
 0003:00003c1c       _debriefPlayerInfoFont     300dac1c     cg_debriefing.obj
 0003:00003c40       _debriefHeadingRank        300dac40     cg_debriefing.obj
 0003:00003c90       _debriefHeadingName        300dac90     cg_debriefing.obj
 0003:00003ce0       _debriefHeadingTime        300dace0     cg_debriefing.obj
 0003:00003d30       _debriefHeadingXP          300dad30     cg_debriefing.obj
 0003:00003d80       _debriefHeadingKills       300dad80     cg_debriefing.obj
 0003:00003dd0       _debriefHeadingDeaths      300dadd0     cg_debriefing.obj
 0003:00003e20       _debriefPlayerList         300dae20     cg_debriefing.obj
 0003:00003e70       _debriefPlayerListScroll   300dae70     cg_debriefing.obj
 0003:00003ec0       _debriefPlayerInfoWindow   300daec0     cg_debriefing.obj
 0003:00003f10       _debriefPlayerInfoName     300daf10     cg_debriefing.obj
 0003:00003f60       _debriefPlayerInfoRank     300daf60     cg_debriefing.obj
 0003:00003fb0       _debriefPlayerInfoMedals   300dafb0     cg_debriefing.obj
 0003:00004000       _debriefPlayerInfoTime     300db000     cg_debriefing.obj
 0003:00004050       _debriefPlayerInfoXP       300db050     cg_debriefing.obj
 0003:000040a0       _debriefPlayerInfoACC      300db0a0     cg_debriefing.obj
 0003:000040f0       _debriefPlayerInfoSkills0  300db0f0     cg_debriefing.obj
 0003:00004140       _debriefPlayerInfoSkills1  300db140     cg_debriefing.obj
 0003:00004190       _debriefPlayerInfoSkills2  300db190     cg_debriefing.obj
 0003:000041e0       _debriefPlayerInfoSkills3  300db1e0     cg_debriefing.obj
 0003:00004230       _debriefPlayerInfoSkills4  300db230     cg_debriefing.obj
 0003:00004280       _debriefPlayerInfoSkills5  300db280     cg_debriefing.obj
 0003:000042d0       _debriefPlayerInfoSkills6  300db2d0     cg_debriefing.obj
 0003:00004320       _debriefPanelButtons       300db320     cg_debriefing.obj
 0003:000043a0       _teamDebriefOutcome        300db3a0     cg_debriefing.obj
 0003:000043f0       _teamDebriefMapListBackBorderLower 300db3f0     cg_debriefing.obj
 0003:00004440       _teamDebriefMapListBackLower 300db440     cg_debriefing.obj
 0003:00004490       _teamDebriefMapListBackBorder 300db490     cg_debriefing.obj
 0003:000044e0       _teamDebriefMapListBack    300db4e0     cg_debriefing.obj
 0003:00004530       _teamDebriefMapList        300db530     cg_debriefing.obj
 0003:00004580       _teamDebriefMapListScroll  300db580     cg_debriefing.obj
 0003:000045d0       _teamDebriefMapShot        300db5d0     cg_debriefing.obj
 0003:00004620       _teamDebriefBigTitle       300db620     cg_debriefing.obj
 0003:00004644       _teamDebriefTitleSmall     300db644     cg_debriefing.obj
 0003:00004668       _teamDebriefTitle          300db668     cg_debriefing.obj
 0003:0000468c       _teamDebriefPanelButtons   300db68c     cg_debriefing.obj
 0003:000046b8       _teamDebriefMapWinnerText  300db6b8     cg_debriefing.obj
 0003:00004708       _teamDebriefMapWinnerBackBorderLower 300db708     cg_debriefing.obj
 0003:00004758       _teamDebriefMapWinnerBackLower 300db758     cg_debriefing.obj
 0003:000047a8       _teamDebriefMapWinnerTextBackBorder 300db7a8     cg_debriefing.obj
 0003:000047f8       _teamDebriefMapWinnerTextBack 300db7f8     cg_debriefing.obj
 0003:00004848       _teamDebriefAxisXPText     300db848     cg_debriefing.obj
 0003:00004898       _teamDebriefAlliesXPText   300db898     cg_debriefing.obj
 0003:000048e8       _teamDebriefSkillXPText_0  300db8e8     cg_debriefing.obj
 0003:00004938       _teamDebriefSkillXPText_1  300db938     cg_debriefing.obj
 0003:00004988       _teamDebriefSkillXPText_2  300db988     cg_debriefing.obj
 0003:000049d8       _teamDebriefSkillXPText_3  300db9d8     cg_debriefing.obj
 0003:00004a28       _teamDebriefSkillXPText_4  300dba28     cg_debriefing.obj
 0003:00004a78       _teamDebriefSkillXPText_5  300dba78     cg_debriefing.obj
 0003:00004ac8       _teamDebriefSkillXPText_6  300dbac8     cg_debriefing.obj
 0003:00004b18       _teamDebriefSkillXPText_7  300dbb18     cg_debriefing.obj
 0003:00004b68       _teamDebriefSkillXPText0_0 300dbb68     cg_debriefing.obj
 0003:00004bb8       _teamDebriefSkillXPText0_1 300dbbb8     cg_debriefing.obj
 0003:00004c08       _teamDebriefSkillXPText0_2 300dbc08     cg_debriefing.obj
 0003:00004c58       _teamDebriefSkillXPText0_3 300dbc58     cg_debriefing.obj
 0003:00004ca8       _teamDebriefSkillXPText0_4 300dbca8     cg_debriefing.obj
 0003:00004cf8       _teamDebriefSkillXPText0_5 300dbcf8     cg_debriefing.obj
 0003:00004d48       _teamDebriefSkillXPText0_6 300dbd48     cg_debriefing.obj
 0003:00004d98       _teamDebriefSkillXPText0_7 300dbd98     cg_debriefing.obj
 0003:00004de8       _teamDebriefSkillXPText1_0 300dbde8     cg_debriefing.obj
 0003:00004e38       _teamDebriefSkillXPText1_1 300dbe38     cg_debriefing.obj
 0003:00004e88       _teamDebriefSkillXPText1_2 300dbe88     cg_debriefing.obj
 0003:00004ed8       _teamDebriefSkillXPText1_3 300dbed8     cg_debriefing.obj
 0003:00004f28       _teamDebriefSkillXPText1_4 300dbf28     cg_debriefing.obj
 0003:00004f78       _teamDebriefSkillXPText1_5 300dbf78     cg_debriefing.obj
 0003:00004fc8       _teamDebriefSkillXPText1_6 300dbfc8     cg_debriefing.obj
 0003:00005018       _teamDebriefSkillXPText1_7 300dc018     cg_debriefing.obj
 0003:00005068       _chatPanelButtonFont       300dc068     cg_debriefing.obj
 0003:0000508c       _chatPanelButtonFontRed    300dc08c     cg_debriefing.obj
 0003:000050b0       _chatPanelWindow           300dc0b0     cg_debriefing.obj
 0003:00005100       _chatPanelText             300dc100     cg_debriefing.obj
 0003:00005150       _chatPanelNextButton       300dc150     cg_debriefing.obj
 0003:000051a0       _chatPanelHTMLButton       300dc1a0     cg_debriefing.obj
 0003:000051f0       _chatPanelQCButton         300dc1f0     cg_debriefing.obj
 0003:00005240       _chatPanelReadyButton      300dc240     cg_debriefing.obj
 0003:00005290       _chatTypeButton            300dc290     cg_debriefing.obj
 0003:000052e0       _charPanelEditSurround     300dc2e0     cg_debriefing.obj
 0003:00005330       _charPanelEdit             300dc330     cg_debriefing.obj
 0003:00005380       _mapVoteWindow             300dc380     cg_debriefing.obj
 0003:000053d0       _mapVoteFont               300dc3d0     cg_debriefing.obj
 0003:000053f4       _chatPanelButtons          300dc3f4     cg_debriefing.obj
 0003:00005418       _mapVoteHeadingName        300dc418     cg_debriefing.obj
 0003:00005468       _mapVoteHeadingVotes       300dc468     cg_debriefing.obj
 0003:000054b8       _mapVoteNamesList          300dc4b8     cg_debriefing.obj
 0003:00005508       _mapVoteNamesListScroll    300dc508     cg_debriefing.obj
 0003:00005558       _mapVoteButton             300dc558     cg_debriefing.obj
 0003:000055a8       _mapVoteButton1            300dc5a8     cg_debriefing.obj
 0003:000055f8       _mapVoteButton2            300dc5f8     cg_debriefing.obj
 0003:00005648       _mapVoteButton3            300dc648     cg_debriefing.obj
 0003:00005698       _mapVoteButtons            300dc698     cg_debriefing.obj
 0003:000056c4       _awardNames                300dc6c4     cg_debriefing.obj
 0003:000056fc       _skillPositions            300dc6fc     cg_debriefing.obj
 0003:00005e98       _randtable                 300dce98     cg_effects.obj
 0003:000060a0       _cabinetInfo               300dd0a0     cg_ents.obj
 0003:000065d8       _fireteamTitleFont         300dd5d8     cg_fireteams.obj
 0003:000065fc       _fireteamFont              300dd5fc     cg_fireteams.obj
 0003:00006620       _fireteamTopBorder         300dd620     cg_fireteams.obj
 0003:00006670       _fireteamTopBorderBack     300dd670     cg_fireteams.obj
 0003:000066c0       _fireteamTopBorderInner    300dd6c0     cg_fireteams.obj
 0003:00006710       _fireteamTopBorderInnerText 300dd710     cg_fireteams.obj
 0003:00006760       _fireteamMenuItemText      300dd760     cg_fireteams.obj
 0003:000067b0       _fireteamButtons           300dd7b0     cg_fireteams.obj
 0003:000067c8       _ftMenuRootStrings         300dd7c8     cg_fireteams.obj
 0003:000067ec       _ftMenuRootStringsMsg      300dd7ec     cg_fireteams.obj
 0003:00006810       _ftMenuRootStringsAlphachars 300dd810     cg_fireteams.obj
 0003:00006834       _ftMenuSoliderStrings      300dd834     cg_fireteams.obj
 0003:00006844       _ftMenuSoliderStringsAlphachars 300dd844     cg_fireteams.obj
 0003:00006854       _ftMenuSoliderStringsMsg   300dd854     cg_fireteams.obj
 0003:00006864       _ftMenuMedicStrings        300dd864     cg_fireteams.obj
 0003:00006878       _ftMenuMedicStringsAlphachars 300dd878     cg_fireteams.obj
 0003:0000688c       _ftMenuMedicStringsMsg     300dd88c     cg_fireteams.obj
 0003:000068a0       _ftMenuEngineerStrings     300dd8a0     cg_fireteams.obj
 0003:000068bc       _ftMenuEngineerStringsAlphachars 300dd8bc     cg_fireteams.obj
 0003:000068d8       _ftMenuEngineerStringsMsg  300dd8d8     cg_fireteams.obj
 0003:000068f4       _ftMenuFieldOpsStrings     300dd8f4     cg_fireteams.obj
 0003:00006908       _ftMenuFieldOpsStringsAlphachars 300dd908     cg_fireteams.obj
 0003:0000691c       _ftMenuFieldOpsStringsMsg  300dd91c     cg_fireteams.obj
 0003:00006930       _ftMenuCovertOpsStrings    300dd930     cg_fireteams.obj
 0003:00006948       _ftMenuCovertOpsStringsAlphachars 300dd948     cg_fireteams.obj
 0003:00006960       _ftMenuCovertOpsStringsMsg 300dd960     cg_fireteams.obj
 0003:00006978       _ftMenuStrings             300dd978     cg_fireteams.obj
 0003:0000698c       _ftMenuStringsAlphachars   300dd98c     cg_fireteams.obj
 0003:000069a0       _ftMenuStringsMsg          300dd9a0     cg_fireteams.obj
 0003:000069b4       _ftOffMenuList             300dd9b4     cg_fireteams.obj
 0003:000069c0       _ftOffMenuListAlphachars   300dd9c0     cg_fireteams.obj
 0003:000069cc       _ftOnMenuList              300dd9cc     cg_fireteams.obj
 0003:000069d8       _ftOnMenuListAlphachars    300dd9d8     cg_fireteams.obj
 0003:000069e4       _ftLeaderMenuList          300dd9e4     cg_fireteams.obj
 0003:000069fc       _ftLeaderMenuListAlphachars 300dd9fc     cg_fireteams.obj
 0003:00006a14       _rotatingFlames            300dda14     cg_flamethrower.obj
 0003:00006a2c       _color_bg                  300dda2c     cg_info.obj
 0003:00006a3c       _color_border              300dda3c     cg_info.obj
 0003:00006a4c       _color_hdr                 300dda4c     cg_info.obj
 0003:00006a5c       _color_name                300dda5c     cg_info.obj
 0003:00006a70       _teamOrder                 300dda70     cg_limbopanel.obj
 0003:00006a7c       _nameEditFont              300dda7c     cg_limbopanel.obj
 0003:00006aa0       _classBarFont              300ddaa0     cg_limbopanel.obj
 0003:00006ac4       _titleLimboFont            300ddac4     cg_limbopanel.obj
 0003:00006ae8       _titleLimboFontBig         300ddae8     cg_limbopanel.obj
 0003:00006b0c       _titleLimboFontBigCenter   300ddb0c     cg_limbopanel.obj
 0003:00006b30       _spawnLimboFont            300ddb30     cg_limbopanel.obj
 0003:00006b54       _weaponButtonFont          300ddb54     cg_limbopanel.obj
 0003:00006b78       _weaponPanelNameFont       300ddb78     cg_limbopanel.obj
 0003:00006b9c       _weaponPanelFilterFont     300ddb9c     cg_limbopanel.obj
 0003:00006bc0       _weaponPanelStatsFont      300ddbc0     cg_limbopanel.obj
 0003:00006be4       _weaponPanelStatsPercFont  300ddbe4     cg_limbopanel.obj
 0003:00006c08       _objectivePanelTxt         300ddc08     cg_limbopanel.obj
 0003:00006c30       _rightLimboPannel          300ddc30     cg_limbopanel.obj
 0003:00006c80       _medalPic0                 300ddc80     cg_limbopanel.obj
 0003:00006cd0       _medalPic1                 300ddcd0     cg_limbopanel.obj
 0003:00006d20       _medalPic2                 300ddd20     cg_limbopanel.obj
 0003:00006d70       _medalPic3                 300ddd70     cg_limbopanel.obj
 0003:00006dc0       _medalPic4                 300dddc0     cg_limbopanel.obj
 0003:00006e10       _medalPic5                 300dde10     cg_limbopanel.obj
 0003:00006e60       _medalPic6                 300dde60     cg_limbopanel.obj
 0003:00006eb0       _teamCounter0              300ddeb0     cg_limbopanel.obj
 0003:00006f00       _teamCounterLight0         300ddf00     cg_limbopanel.obj
 0003:00006f50       _teamButton0               300ddf50     cg_limbopanel.obj
 0003:00006fa0       _teamCounter1              300ddfa0     cg_limbopanel.obj
 0003:00006ff0       _teamCounterLight1         300ddff0     cg_limbopanel.obj
 0003:00007040       _teamButton1               300de040     cg_limbopanel.obj
 0003:00007090       _teamCounter2              300de090     cg_limbopanel.obj
 0003:000070e0       _teamCounterLight2         300de0e0     cg_limbopanel.obj
 0003:00007130       _teamButton2               300de130     cg_limbopanel.obj
 0003:00007180       _classBar                  300de180     cg_limbopanel.obj
 0003:000071d0       _classBarText              300de1d0     cg_limbopanel.obj
 0003:00007220       _classCounter0             300de220     cg_limbopanel.obj
 0003:00007270       _classButton0              300de270     cg_limbopanel.obj
 0003:000072c0       _classCounter1             300de2c0     cg_limbopanel.obj
 0003:00007310       _classButton1              300de310     cg_limbopanel.obj
 0003:00007360       _classCounter2             300de360     cg_limbopanel.obj
 0003:000073b0       _classButton2              300de3b0     cg_limbopanel.obj
 0003:00007400       _classCounter3             300de400     cg_limbopanel.obj
 0003:00007450       _classButton3              300de450     cg_limbopanel.obj
 0003:000074a0       _classCounter4             300de4a0     cg_limbopanel.obj
 0003:000074f0       _classButton4              300de4f0     cg_limbopanel.obj
 0003:00007540       _filterButton0             300de540     cg_limbopanel.obj
 0003:00007590       _filterButton1             300de590     cg_limbopanel.obj
 0003:000075e0       _filterButton2             300de5e0     cg_limbopanel.obj
 0003:00007630       _filterButton3             300de630     cg_limbopanel.obj
 0003:00007680       _filterButton4             300de680     cg_limbopanel.obj
 0003:000076d0       _filterButton5             300de6d0     cg_limbopanel.obj
 0003:00007720       _filterButton6             300de720     cg_limbopanel.obj
 0003:00007770       _filterButton7             300de770     cg_limbopanel.obj
 0003:000077c0       _filterTitleText           300de7c0     cg_limbopanel.obj
 0003:00007810       _leftFrame01               300de810     cg_limbopanel.obj
 0003:00007860       _leftFrame02               300de860     cg_limbopanel.obj
 0003:000078b0       _leftFrame03               300de8b0     cg_limbopanel.obj
 0003:00007900       _leftFrame04               300de900     cg_limbopanel.obj
 0003:00007950       _leftFrame05               300de950     cg_limbopanel.obj
 0003:000079a0       _leftFrame06               300de9a0     cg_limbopanel.obj
 0003:000079f0       _leftFrame07               300de9f0     cg_limbopanel.obj
 0003:00007a40       _leftFrame08               300dea40     cg_limbopanel.obj
 0003:00007a90       _playerLimboHead           300dea90     cg_limbopanel.obj
 0003:00007ae0       _playerXPCounterText       300deae0     cg_limbopanel.obj
 0003:00007b30       _playerXPCounter           300deb30     cg_limbopanel.obj
 0003:00007b80       _playerSkillCounter0       300deb80     cg_limbopanel.obj
 0003:00007bd0       _playerSkillCounter1       300debd0     cg_limbopanel.obj
 0003:00007c20       _playerSkillCounter2       300dec20     cg_limbopanel.obj
 0003:00007c70       _playerSkillIcon0          300dec70     cg_limbopanel.obj
 0003:00007cc0       _playerSkillIcon1          300decc0     cg_limbopanel.obj
 0003:00007d10       _playerSkillIcon2          300ded10     cg_limbopanel.obj
 0003:00007d60       _mapTimeCounter            300ded60     cg_limbopanel.obj
 0003:00007db0       _mapTimeCounter2           300dedb0     cg_limbopanel.obj
 0003:00007e00       _mapTimeCounterText        300dee00     cg_limbopanel.obj
 0003:00007e50       _respawnCounter            300dee50     cg_limbopanel.obj
 0003:00007ea0       _respawnCounterText        300deea0     cg_limbopanel.obj
 0003:00007ef0       _limboTitleText            300deef0     cg_limbopanel.obj
 0003:00007f40       _playerSetupText           300def40     cg_limbopanel.obj
 0003:00007f90       _skillsText                300def90     cg_limbopanel.obj
 0003:00007fe0       _weaponPanel               300defe0     cg_limbopanel.obj
 0003:00008030       _weaponLight1              300df030     cg_limbopanel.obj
 0003:00008080       _weaponLight1Text          300df080     cg_limbopanel.obj
 0003:000080d0       _weaponLight2              300df0d0     cg_limbopanel.obj
 0003:00008120       _weaponLight2Text          300df120     cg_limbopanel.obj
 0003:00008170       _weaponStatsShotsText      300df170     cg_limbopanel.obj
 0003:000081c0       _weaponStatsShotsCounter   300df1c0     cg_limbopanel.obj
 0003:00008210       _weaponStatsHitsText       300df210     cg_limbopanel.obj
 0003:00008260       _weaponStatsHitsCounter    300df260     cg_limbopanel.obj
 0003:000082b0       _weaponStatsAccText        300df2b0     cg_limbopanel.obj
 0003:00008300       _weaponStatsAccCounter     300df300     cg_limbopanel.obj
 0003:00008350       _weaponStatsAccPercentage  300df350     cg_limbopanel.obj
 0003:000083a0       _commandmapPanel           300df3a0     cg_limbopanel.obj
 0003:000083f0       _objectivePanel            300df3f0     cg_limbopanel.obj
 0003:00008440       _objectivePanelText        300df440     cg_limbopanel.obj
 0003:00008490       _objectivePanelTitle       300df490     cg_limbopanel.obj
 0003:000084e0       _objectivePanelButtonUp    300df4e0     cg_limbopanel.obj
 0003:00008530       _briefingButton            300df530     cg_limbopanel.obj
 0003:00008580       _objectivePanelButtonDown  300df580     cg_limbopanel.obj
 0003:000085d0       _okButtonText              300df5d0     cg_limbopanel.obj
 0003:00008620       _okButton                  300df620     cg_limbopanel.obj
 0003:00008670       _cancelButtonText          300df670     cg_limbopanel.obj
 0003:000086c0       _cancelButton              300df6c0     cg_limbopanel.obj
 0003:00008710       _nameEdit                  300df710     cg_limbopanel.obj
 0003:00008760       _plusButton                300df760     cg_limbopanel.obj
 0003:000087b0       _plusButtonText            300df7b0     cg_limbopanel.obj
 0003:00008800       _minusButton               300df800     cg_limbopanel.obj
 0003:00008850       _minusButtonText           300df850     cg_limbopanel.obj
 0003:000088a0       _limboPanelButtons         300df8a0     cg_limbopanel.obj
 0003:00008a10       _missiondescriptionTxt     300dfa10     cg_loadpanel.obj
 0003:00008a34       _missiondescriptionHeaderTxt 300dfa34     cg_loadpanel.obj
 0003:00008a58       _campaignpheaderTxt        300dfa58     cg_loadpanel.obj
 0003:00008a7c       _campaignpTxt              300dfa7c     cg_loadpanel.obj
 0003:00008aa0       _loadScreenMeterBackTxt    300dfaa0     cg_loadpanel.obj
 0003:00008ac4       _loadpanelButtons          300dfac4     cg_loadpanel.obj
 0003:00008af0       _loadScreenMap             300dfaf0     cg_loadpanel.obj
 0003:00008b40       _loadScreenBack            300dfb40     cg_loadpanel.obj
 0003:00008b90       _loadScreenPins            300dfb90     cg_loadpanel.obj
 0003:00008be0       _missiondescriptionPanelHeaderText 300dfbe0     cg_loadpanel.obj
 0003:00008c30       _missiondescriptionPanelText 300dfc30     cg_loadpanel.obj
 0003:00008c80       _campaignheaderPanelText   300dfc80     cg_loadpanel.obj
 0003:00008cd0       _campaignPanelText         300dfcd0     cg_loadpanel.obj
 0003:00008d20       _loadScreenMeterBack       300dfd20     cg_loadpanel.obj
 0003:00008d70       _loadScreenMeterBack2      300dfd70     cg_loadpanel.obj
 0003:00008dc0       _loadScreenMeterBackText   300dfdc0     cg_loadpanel.obj
 0003:00008e28       _cvarTable                 300dfe28     cg_main.obj
 0003:00009d64       _cvarTableSize             300e0d64     cg_main.obj
 0003:00009d94       _strClassHighlights        300e0d94     cg_multiview.obj
 0003:00009dbc       _cl_numparticles           300e0dbc     cg_particles.obj
 0003:00009e20       _weaponTypes               300e0e20     cg_players.obj
 0003:00009ed0       _clrUiBack                 300e0ed0     cg_scoreboard.obj
 0003:00009ee0       _clrUiBar                  300e0ee0     cg_scoreboard.obj
 0003:00009ef0       _speakerEditorTxt          300e0ef0     cg_sound.obj
 0003:00009f18       _speakerInfo               300e0f18     cg_sound.obj
 0003:00009f68       _speakerEditorBack         300e0f68     cg_sound.obj
 0003:00009fb8       _speakerEditorLocInfo      300e0fb8     cg_sound.obj
 0003:0000a008       _speakerEditorNoiseLabel   300e1008     cg_sound.obj
 0003:0000a058       _speakerEditorNoiseEdit    300e1058     cg_sound.obj
 0003:0000a0a8       _speakerEditorTargetnameLabel 300e10a8     cg_sound.obj
 0003:0000a0f8       _speakerEditorTargetnameEdit 300e10f8     cg_sound.obj
 0003:0000a148       _speakerEditorLoopedLabel  300e1148     cg_sound.obj
 0003:0000a198       _speakerEditorLoopedDropdown 300e1198     cg_sound.obj
 0003:0000a1e8       _speakerEditorBroadcastLabel 300e11e8     cg_sound.obj
 0003:0000a238       _speakerEditorBroadcastDropdown 300e1238     cg_sound.obj
 0003:0000a288       _speakerEditorWaitLabel    300e1288     cg_sound.obj
 0003:0000a2d8       _speakerEditorWaitEdit     300e12d8     cg_sound.obj
 0003:0000a328       _speakerEditorRandomLabel  300e1328     cg_sound.obj
 0003:0000a378       _speakerEditorRandomEdit   300e1378     cg_sound.obj
 0003:0000a3c8       _speakerEditorVolumeLabel  300e13c8     cg_sound.obj
 0003:0000a418       _speakerEditorVolumeEdit   300e1418     cg_sound.obj
 0003:0000a468       _speakerEditorRangeLabel   300e1468     cg_sound.obj
 0003:0000a4b8       _speakerEditorRangeEdit    300e14b8     cg_sound.obj
 0003:0000a508       _speakerEditorOkButton     300e1508     cg_sound.obj
 0003:0000a558       _speakerEditorCancelButton 300e1558     cg_sound.obj
 0003:0000a5a8       _speakerEditorDeleteButton 300e15a8     cg_sound.obj
 0003:0000a670       _spawns                    300e1670     cg_spawn.obj
 0003:0000a6a0       _rankicons                 300e16a0     cg_statsranksmedals.obj
 0003:0000a804       _zoomTable                 300e1804     cg_view.obj
 0003:0000a854       _colorBrown1               300e1854     cg_window.obj
 0003:0000a864       _colorGreen1               300e1864     cg_window.obj
 0003:0000a874       _colorGreen2               300e1874     cg_window.obj
 0003:0000a888       _bytedirs                  300e1888     q_math.obj
 0003:0000b020       _colorBlack                300e2020     q_math.obj
 0003:0000b030       _colorRed                  300e2030     q_math.obj
 0003:0000b040       _colorGreen                300e2040     q_math.obj
 0003:0000b050       _colorBlue                 300e2050     q_math.obj
 0003:0000b060       _colorYellow               300e2060     q_math.obj
 0003:0000b070       _colorOrange               300e2070     q_math.obj
 0003:0000b080       _colorMagenta              300e2080     q_math.obj
 0003:0000b090       _colorCyan                 300e2090     q_math.obj
 0003:0000b0a0       _colorWhite                300e20a0     q_math.obj
 0003:0000b0b0       _colorLtGrey               300e20b0     q_math.obj
 0003:0000b0c0       _colorMdGrey               300e20c0     q_math.obj
 0003:0000b0d0       _colorDkGrey               300e20d0     q_math.obj
 0003:0000b0e0       _colorMdRed                300e20e0     q_math.obj
 0003:0000b0f0       _colorMdGreen              300e20f0     q_math.obj
 0003:0000b100       _colorDkGreen              300e2100     q_math.obj
 0003:0000b110       _colorMdCyan               300e2110     q_math.obj
 0003:0000b120       _colorMdYellow             300e2120     q_math.obj
 0003:0000b130       _colorMdOrange             300e2130     q_math.obj
 0003:0000b140       _colorMdBlue               300e2140     q_math.obj
 0003:0000b150       _clrBrown                  300e2150     q_math.obj
 0003:0000b160       _clrBrownDk                300e2160     q_math.obj
 0003:0000b170       _clrBrownLine              300e2170     q_math.obj
 0003:0000b180       _clrBrownText              300e2180     q_math.obj
 0003:0000b190       _clrBrownTextDk            300e2190     q_math.obj
 0003:0000b1a0       _clrBrownTextDk2           300e21a0     q_math.obj
 0003:0000b1b0       _clrBrownTextLt            300e21b0     q_math.obj
 0003:0000b1c0       _clrBrownTextLt2           300e21c0     q_math.obj
 0003:0000b1d0       _clrBrownLineFull          300e21d0     q_math.obj
 0003:0000b1e0       _g_color_table             300e21e0     q_math.obj
 0003:0000b3e0       _axisDefault               300e23e0     q_math.obj
 0003:0000b408       _commandList               300e2408     ui_shared.obj
 0003:0000b550       _scriptCommandCount        300e2550     ui_shared.obj
 0003:0000b558       _itemParseKeywords         300e2558     ui_shared.obj
 0003:0000b948       _menuParseKeywords         300e2948     ui_shared.obj
 0003:0000c270       _Curl_cmalloc              300e3270     libcurl:easy.obj
 0003:0000c274       _Curl_cfree                300e3274     libcurl:easy.obj
 0003:0000c278       _Curl_crealloc             300e3278     libcurl:easy.obj
 0003:0000c27c       _Curl_cstrdup              300e327c     libcurl:easy.obj
 0003:0000c280       _Curl_ccalloc              300e3280     libcurl:easy.obj
 0003:0000c29c       ___security_cookie_complement 300e329c     MSVCRT:gs_cookie.obj
 0003:0000c2a0       ___security_cookie         300e32a0     MSVCRT:gs_cookie.obj
 0003:0000c2a4       __fltused                  300e32a4     MSVCRT:fltused.obj
 0003:0000c2b0       ___isa_enabled             300e32b0     MSVCRT:cpu_disp.obj
 0003:0000c2b4       ___scrt_native_dllmain_reason 300e32b4     MSVCRT:utility.obj
 0003:0000c2c0       ___scrt_ucrt_dll_is_in_use 300e32c0     MSVCRT:ucrt_stubs.obj
 0003:0005a370       _c_pmove                   30131370     bg_pmove.obj
 0003:00172300       _resetmaxspeed             30249300     cg_consolecmds.obj
 0003:00172304       _g_initialCameraStartBlack 30249304     cg_consolecmds.obj
 0003:00172308       _g_initialCamera           30249308     cg_consolecmds.obj
 0003:00174408       _imagehlp                  3024b408     cg_crash.obj
 0003:0017440c       _pfnSymInitialize          3024b40c     cg_crash.obj
 0003:00174410       _pfnSymCleanup             3024b410     cg_crash.obj
 0003:00174414       _pfnSymGetModuleBase       3024b414     cg_crash.obj
 0003:00174418       _pfnStackWalk              3024b418     cg_crash.obj
 0003:0017441c       _pfnSymGetSymFromAddr      3024b41c     cg_crash.obj
 0003:00174420       _pfnSymEnumerateModules    3024b420     cg_crash.obj
 0003:00174424       _pfnSymFunctionTableAccess 3024b424     cg_crash.obj
 0003:001c2594       _bg_loadscreeninited       30299594     cg_loadpanel.obj
 0003:001c259c       _localEntCount             3029959c     cg_localents.obj
 0003:001c25a8       _cvarsLoaded               302995a8     cg_main.obj
 0003:001c39b0       _initparticles             3029a9b0     cg_particles.obj
 0003:001c7020       _numSoundScripts           3029e020     cg_sound.obj
 0003:001c7024       _numSoundScriptSounds      3029e024     cg_sound.obj
 0003:00ac4248       _initTrails                30b9b248     cg_trails.obj
 0003:00af52e8       _colorClear                30bcc2e8     cg_window.obj
 0003:00af52f8       _vec3_origin               30bcc2f8     q_math.obj
 0003:00b0b9c0       _DC                        30be29c0     ui_shared.obj
 0003:00b0b9c4       _g_waitingForKey           30be29c4     ui_shared.obj
 0003:00b0b9c8       _g_editingField            30be29c8     ui_shared.obj
 0003:00b0b9cc       _g_bindItem                30be29cc     ui_shared.obj
 0003:00b0b9d0       _g_editItem                30be29d0     ui_shared.obj
 0003:00b0b9d4       _menuCount                 30be29d4     ui_shared.obj
 0003:00b0b9d8       _modalMenuCount            30be29d8     ui_shared.obj
 0003:00cedd88       ___isa_available           30dc4d88     MSVCRT:cpu_disp.obj
 0003:00cedd8c       ___favor                   30dc4d8c     MSVCRT:cpu_disp.obj
 0003:00cedd90       ?__type_info_root_node@@3U__type_info_node@@A 30dc4d90     MSVCRT:tncleanup.obj
 0003:00cedd98       ?_OptionsStorage@?1??__local_stdio_printf_options@@9@4_KA 30dc4d98     MSVCRT:default_local_stdio_options.obj
 0003:00cedda0       ?_OptionsStorage@?1??__local_stdio_scanf_options@@9@4_KA 30dc4da0     MSVCRT:default_local_stdio_options.obj
 0003:00cedda8       ___scrt_current_native_startup_state 30dc4da8     MSVCRT:utility.obj
 0003:00ceddac       ___scrt_native_startup_lock 30dc4dac     MSVCRT:utility.obj
 0003:00ceddcc       ___scrt_debugger_hook_flag 30dc4dcc     MSVCRT:utility_desktop.obj
 0003:00ceddd0       _bg_focusButton            30dc4dd0     <common>
 0003:00cedde0       _menuParseKeywordHash      30dc4de0     <common>
 0003:00cee5e0       _itemParseKeywordHash      30dc55e0     <common>
 0003:00ceede0       _g_nameBind2               30dc5de0     <common>
 0003:00ceee00       _g_nameBind1               30dc5e00     <common>
 0003:00ceee20       _modalMenuStack            30dc5e20     <common>
 0003:00ceee60       _Menus                     30dc5e60     <common>
 0003:00d27a60       ?Ljmptab@?1??BoxOnPlaneSide_fast@@9@9 30dfea60     <common>
 0003:00d27a80       ?bops_initialized@?1??BoxOnPlaneSide_fast@@9@9 30dfea80     <common>
 0003:00d27a90       _ejectBrassCasingOrigin    30dfea90     <common>
 0003:00d27a9c       _cg_fxflags                30dfea9c     <common>
 0003:00d27aa0       _numTrailsInuse            30dfeaa0     <common>
 0003:00d27aa4       _headTrails                30dfeaa4     <common>
 0003:00d27aa8       _activeTrails              30dfeaa8     <common>
 0003:00d27aac       _freeTrails                30dfeaac     <common>
 0003:00d27ac0       _trailJuncs                30dfeac0     <common>
 0003:00dabac0       _rangeEditBuffer           30e82ac0     <common>
 0003:00dabad0       _volumeEditBuffer          30e82ad0     <common>
 0003:00dabae0       _randomEditBuffer          30e82ae0     <common>
 0003:00dabaf0       _waitEditBuffer            30e82af0     <common>
 0003:00dabb00       _targetnameEditBuffer      30e82b00     <common>
 0003:00dabb20       _noiseEditBuffer           30e82b20     <common>
 0003:00dabb60       _voiceChatBuffer           30e82b60     <common>
 0003:00dae460       _headModelVoiceChat        30e85460     <common>
 0003:00daf560       _voiceChatLists            30e86560     <common>
 0003:0129b9a0       _oldpmext                  313729a0     <common>
 0003:0129dba0       _cg_pmove                  31374ba0     <common>
 0003:0129dce0       _cg_pmStackBig             31374ce0     <common>
 0003:0129e180       _cg_pmWaitingListBig       31375180     <common>
 0003:0129e184       _cg_pmWaitingList          31375184     <common>
 0003:0129e188       _cg_pmOldList              31375188     <common>
 0003:0129e1a0       _cg_pmStack                313751a0     <common>
 0003:0129f420       _cg_polyBuffersInuse       31376420     <common>
 0003:0129f620       _cg_polyBuffers            31376620     <common>
 0003:01921620       _lastLegsAnim              319f8620     <common>
 0003:01921624       _lastTorsoAnim             319f8624     <common>
 0003:01921628       _oldtime                   319f8628     <common>
 0003:01921630       _rup                       319f8630     <common>
 0003:01921640       _rright                    319f8640     <common>
 0003:01921650       _rforward                  319f8650     <common>
 0003:01921660       _vup                       319f8660     <common>
 0003:01921670       _vright                    319f8670     <common>
 0003:01921680       _vforward                  319f8680     <common>
 0003:019216a0       _particles                 319f86a0     <common>
 0003:01a196a0       _free_particles            31af06a0     <common>
 0003:01a196a4       _active_particles          31af06a4     <common>
 0003:01a196a8       _cg_freeMarkPolys          31af06a8     <common>
 0003:01a196c0       _cg_activeMarkPolys        31af06c0     <common>
 0003:01a19800       _cg_markPolys              31af0800     <common>
 0003:01a2bc00       _int_timescale             31b02c00     <common>
 0003:01a2bd20       _cg_bigFont                31b02d20     <common>
 0003:01a2be40       _cg_smallFont              31b02e40     <common>
 0003:01a2bf60       _cg_messageType            31b02f60     <common>
 0003:01a2c080       _cg_message                31b03080     <common>
 0003:01a2c1a0       _cg_zoomDefaultBinoc       31b031a0     <common>
 0003:01a2c2c0       _cgDC                      31b032c0     <common>
 0003:01a4c300       _cg_locations              31b23300     <common>
 0003:01a4c420       _cg_spawnTimer_set         31b23420     <common>
 0003:01a4c540       _cg_spawnTimer_period      31b23540     <common>
 0003:01a4c660       _cg_damageKick             31b23660     <common>
 0003:01a4c780       _cg_hitSounds              31b23780     <common>
 0003:01a4c8a0       _cg_autoSelectFTMembers    31b238a0     <common>
 0003:01a4c9c0       _cg_logConsole             31b239c0     <common>
 0003:01a4cae0       _cg_maxEnemyDynas          31b23ae0     <common>
 0003:01a4cc00       _cg_maxTeamDynas           31b23c00     <common>
 0003:01a4cd20       _cg_dynoCounter            31b23d20     <common>
 0003:01a4ce40       _cg_drawCrosshairHP        31b23e40     <common>
 0003:01a4cf60       _cg_countryFlags           31b23f60     <common>
 0003:01a4d080       _cg_drawClassIcons         31b24080     <common>
 0003:01a4d1a0       _cg_drawRanks              31b241a0     <common>
 0003:01a4d2c0       _cg_weapaltReloads         31b242c0     <common>
 0003:01a4d3e0       _cg_watermarkAlpha         31b243e0     <common>
 0003:01a4d500       _g_watermarkFadeTime       31b24500     <common>
 0003:01a4d620       _g_watermarkFadeAfter      31b24620     <common>
 0003:01a4d740       _g_watermark               31b24740     <common>
 0003:01a4d860       _cg_gun_fovscale           31b24860     <common>
 0003:01a4d980       _g_fixedphysicsfps         31b24980     <common>
 0003:01a4daa0       _g_fixedphysics            31b24aa0     <common>
 0003:01a4dbc0       _cg_scoresDoubleTap        31b24bc0     <common>
 0003:01a4dce0       _cg_scoreboard             31b24ce0     <common>
 0003:01a4de00       _cg_optimizePrediction     31b24e00     <common>
 0003:01a4df20       _cg_fontBPScale            31b24f20     <common>
 0003:01a4e040       _cg_fontQAScale            31b25040     <common>
 0003:01a4e160       _cg_fontOIDScale           31b25160     <common>
 0003:01a4e280       _cg_fontCPScale            31b25280     <common>
 0003:01a4e3a0       _cg_fontLimboScale         31b253a0     <common>
 0003:01a4e4c0       _cg_font4size              31b254c0     <common>
 0003:01a4e5e0       _cg_font3size              31b255e0     <common>
 0003:01a4e700       _cg_font2size              31b25700     <common>
 0003:01a4e820       _cg_font1size              31b25820     <common>
 0003:01a4e940       _cg_font4                  31b25940     <common>
 0003:01a4ea60       _cg_font3                  31b25a60     <common>
 0003:01a4eb80       _cg_font2                  31b25b80     <common>
 0003:01a4eca0       _cg_font1                  31b25ca0     <common>
 0003:01a4edc0       _cg_specAlpha              31b25dc0     <common>
 0003:01a4eee0       _cg_chatAlpha              31b25ee0     <common>
 0003:01a4f000       _cg_fireteamAlpha          31b26000     <common>
 0003:01a4f120       _cg_lagometerAlpha         31b26120     <common>
 0003:01a4f240       _cg_speedunit              31b26240     <common>
 0003:01a4f360       _cg_speedinterval          31b26360     <common>
 0003:01a4f480       _cg_drawspeed              31b26480     <common>
 0003:01a4f5a0       _cg_panzerhack             31b265a0     <common>
 0003:01a4f6c0       _cg_obituary               31b266c0     <common>
 0003:01a4f7e0       _cg_mapzoom                31b267e0     <common>
 0003:01a4f900       _cg_hud                    31b26900     <common>
 0003:01a4fa20       _cg_drawTimeSeconds        31b26a20     <common>
 0003:01a4fb40       _cg_drawTime               31b26b40     <common>
 0003:01a4fc60       _cg_recording_statusline   31b26c60     <common>
 0003:01a4fd80       _cl_waveoffset             31b26d80     <common>
 0003:01a4fea0       _cl_wavefilename           31b26ea0     <common>
 0003:01a4ffc0       _cl_waverecording          31b26fc0     <common>
 0003:01a500e0       _cl_demooffset             31b270e0     <common>
 0003:01a50200       _cl_demofilename           31b27200     <common>
 0003:01a50320       _cl_demorecording          31b27320     <common>
 0003:01a50440       _cg_instanttapout          31b27440     <common>
 0003:01a50560       _cg_drawSmallPopupIcons    31b27560     <common>
 0003:01a50680       _cg_drawFireteamOverlay    31b27680     <common>
 0003:01a507a0       _cg_debugSkills            31b277a0     <common>
 0003:01a508c0       _cg_drawRoundTimer         31b278c0     <common>
 0003:01a509e0       _cg_atmosphericEffects     31b279e0     <common>
 0003:01a50b00       _cg_refereePassword        31b27b00     <common>
 0003:01a50c20       _cg_rconPassword           31b27c20     <common>
 0003:01a50d40       _int_ui_blackout           31b27d40     <common>
 0003:01a50e60       _int_sensitivity           31b27e60     <common>
 0003:01a50f80       _int_m_pitch               31b27f80     <common>
 0003:01a510a0       _int_cl_timenudge          31b280a0     <common>
 0003:01a511c0       _int_cl_maxpackets         31b281c0     <common>
 0003:01a512e0       _mv_sensitivity            31b282e0     <common>
 0003:01a51400       _demo_infoWindow           31b28400     <common>
 0003:01a51520       _demo_drawTimeScale        31b28520     <common>
 0003:01a51640       _demo_avifpsF5             31b28640     <common>
 0003:01a51760       _demo_avifpsF4             31b28760     <common>
 0003:01a51880       _demo_avifpsF3             31b28880     <common>
 0003:01a519a0       _demo_avifpsF2             31b289a0     <common>
 0003:01a51ac0       _demo_avifpsF1             31b28ac0     <common>
 0003:01a51be0       _cg_useScreenshotJPEG      31b28be0     <common>
 0003:01a51d00       _cg_uinfo                  31b28d00     <common>
 0003:01a51e20       _cg_specHelp               31b28e20     <common>
 0003:01a51f40       _cg_printObjectiveInfo     31b28f40     <common>
 0003:01a52060       _cg_noAmmoAutoSwitch       31b29060     <common>
 0003:01a52180       _cg_muzzleFlash            31b29180     <common>
 0003:01a522a0       _cg_drawWeaponIconFlash    31b292a0     <common>
 0003:01a523c0       _cg_drawReinforcementTime  31b293c0     <common>
 0003:01a524e0       _cg_crosshairPulse         31b294e0     <common>
 0003:01a52600       _cg_crosshairColorAlt      31b29600     <common>
 0003:01a52720       _cg_crosshairColor         31b29720     <common>
 0003:01a52840       _cg_crosshairAlphaAlt      31b29840     <common>
 0003:01a52960       _cg_crosshairAlpha         31b29960     <common>
 0003:01a52a80       _cg_complaintPopUp         31b29a80     <common>
 0003:01a52ba0       _cg_bloodFlash             31b29ba0     <common>
 0003:01a52cc0       _cg_bloodDamageBlend       31b29cc0     <common>
 0003:01a52de0       _cg_autoReload             31b29de0     <common>
 0003:01a52f00       _cg_autoAction             31b29f00     <common>
 0003:01a53020       _cf_wtopshots              31b2a020     <common>
 0003:01a53140       _cf_wstats                 31b2a140     <common>
 0003:01a53260       _authLevel                 31b2a260     <common>
 0003:01a53380       _developer                 31b2a380     <common>
 0003:01a534a0       _cg_antilag                31b2a4a0     <common>
 0003:01a535c0       _cg_descriptiveText        31b2a5c0     <common>
 0003:01a536e0       _cg_quickMessageAlt        31b2a6e0     <common>
 0003:01a53800       _cg_drawCompass            31b2a800     <common>
 0003:01a53920       _cg_movespeed              31b2a920     <common>
 0003:01a53a40       _cg_bluelimbotime          31b2aa40     <common>
 0003:01a53b60       _cg_redlimbotime           31b2ab60     <common>
 0003:01a53c80       _cg_skybox                 31b2ac80     <common>
 0003:01a53da0       _cg_norender               31b2ada0     <common>
 0003:01a53ec0       _cg_bloodTime              31b2aec0     <common>
 0003:01a53fe0       _cg_gameType               31b2afe0     <common>
 0003:01a54100       _cg_wolfparticles          31b2b100     <common>
 0003:01a54220       _cg_voiceSpriteTime        31b2b220     <common>
 0003:01a54340       _cg_noTaunt                31b2b340     <common>
 0003:01a54460       _cg_cameraMode             31b2b460     <common>
 0003:01a54580       _cg_timescale              31b2b580     <common>
 0003:01a546a0       _pmove_msec                31b2b6a0     <common>
 0003:01a547c0       _pmove_fixed               31b2b7c0     <common>
 0003:01a548e0       _cg_autoactivate           31b2b8e0     <common>
 0003:01a54a00       _cg_enableBreath           31b2ba00     <common>
 0003:01a54b20       _cg_customVoiceChats       31b2bb20     <common>
 0003:01a54c40       _cg_noVoiceText            31b2bc40     <common>
 0003:01a54d60       _cg_noVoiceChats           31b2bd60     <common>
 0003:01a54e80       _cg_teamChatsOnly          31b2be80     <common>
 0003:01a54fa0       _cg_predictItems           31b2bfa0     <common>
 0003:01a550c0       _cg_blood                  31b2c0c0     <common>
 0003:01a551e0       _cg_paused                 31b2c1e0     <common>
 0003:01a55300       _cg_buildScript            31b2c300     <common>
 0003:01a55420       _cg_coronas                31b2c420     <common>
 0003:01a55540       _cg_coronafardist          31b2c540     <common>
 0003:01a55660       _cg_stats                  31b2c660     <common>
 0003:01a55780       _cg_teamChatHeight         31b2c780     <common>
 0003:01a558a0       _cg_teamChatTime           31b2c8a0     <common>
 0003:01a559c0       _cg_lagometer              31b2c9c0     <common>
 0003:01a55ae0       _cg_stereoSeparation       31b2cae0     <common>
 0003:01a55c00       _cg_thirdPerson            31b2cc00     <common>
 0003:01a55d20       _cg_thirdPersonAngle       31b2cd20     <common>
 0003:01a55e40       _cg_thirdPersonRange       31b2ce40     <common>
 0003:01a55f60       _cg_zoomStepSniper         31b2cf60     <common>
 0003:01a56080       _cg_zoomDefaultSniper      31b2d080     <common>
 0003:01a561a0       _cg_fov                    31b2d1a0     <common>
 0003:01a562c0       _cg_ignore                 31b2d2c0     <common>
 0003:01a563e0       _cg_autoswitch             31b2d3e0     <common>
 0003:01a56500       _cg_tracerSpeed            31b2d500     <common>
 0003:01a56620       _cg_tracerLength           31b2d620     <common>
 0003:01a56740       _cg_tracerWidth            31b2d740     <common>
 0003:01a56860       _cg_tracerChance           31b2d860     <common>
 0003:01a56980       _cg_tracers                31b2d980     <common>
 0003:01a56aa0       _cg_letterbox              31b2daa0     <common>
 0003:01a56bc0       _cg_cursorHints            31b2dbc0     <common>
 0003:01a56ce0       _cg_drawGun                31b2dce0     <common>
 0003:01a56e00       _cg_gun_z                  31b2de00     <common>
 0003:01a56f20       _cg_gun_y                  31b2df20     <common>
 0003:01a57040       _cg_gun_x                  31b2e040     <common>
 0003:01a57160       _cg_gun_frame              31b2e160     <common>
 0003:01a57280       _cg_brassTime              31b2e280     <common>
 0003:01a573a0       _cg_markTime               31b2e3a0     <common>
 0003:01a574c0       _cg_footsteps              31b2e4c0     <common>
 0003:01a575e0       _cg_showmiss               31b2e5e0     <common>
 0003:01a57700       _cg_noPlayerAnims          31b2e700     <common>
 0003:01a57820       _cg_nopredict              31b2e820     <common>
 0003:01a57940       _cg_errorDecay             31b2e940     <common>
 0003:01a57a60       _cg_railTrailTime          31b2ea60     <common>
 0003:01a57b80       _cg_drawSpreadScale        31b2eb80     <common>
 0003:01a57ca0       _cg_debugEvents            31b2eca0     <common>
 0003:01a57dc0       _cg_debugPosition          31b2edc0     <common>
 0003:01a57ee0       _cg_debugAnim              31b2eee0     <common>
 0003:01a58000       _cg_animSpeed              31b2f000     <common>
 0003:01a58120       _cg_crosshairHealth        31b2f120     <common>
 0003:01a58240       _cg_crosshairSize          31b2f240     <common>
 0003:01a58360       _cg_crosshairY             31b2f360     <common>
 0003:01a58480       _cg_crosshairX             31b2f480     <common>
 0003:01a585a0       _cg_cycleAllWeaps          31b2f5a0     <common>
 0003:01a586c0       _cg_weaponCycleDelay       31b2f6c0     <common>
 0003:01a587e0       _cg_useWeapsForZoom        31b2f7e0     <common>
 0003:01a58900       _cg_drawCrosshairPickups   31b2f900     <common>
 0003:01a58a20       _cg_drawCrosshairNames     31b2fa20     <common>
 0003:01a58b40       _cg_drawCrosshair          31b2fb40     <common>
 0003:01a58c60       _cg_drawSnapshot           31b2fc60     <common>
 0003:01a58d80       _cg_drawFPS                31b2fd80     <common>
 0003:01a58ea0       _cg_draw2D                 31b2fea0     <common>
 0003:01a58fc0       _cg_gibs                   31b2ffc0     <common>
 0003:01a590e0       _cg_shadows                31b300e0     <common>
 0003:01a59200       _cg_swingSpeed             31b30200     <common>
 0003:01a59320       _cg_bobroll                31b30320     <common>
 0003:01a59440       _cg_bobpitch               31b30440     <common>
 0003:01a59560       _cg_bobup                  31b30560     <common>
 0003:01a59680       _cg_runroll                31b30680     <common>
 0003:01a597a0       _cg_runpitch               31b307a0     <common>
 0003:01a598c0       _cg_centertime             31b308c0     <common>
 0003:01a599e0       _cg_items                  31b309e0     <common>
 0003:01a5ba00       _cg_weapons                31b32a00     <common>
 0003:01a90800       _cg_entities               31b67800     <common>
 0003:01d34820       _cg                        31e0b820     <common>
 0003:01dc40c0       _cgs                       31e9b0c0     <common>
 0003:037e9b54       _cg_freeLocalEntities      338c0b54     <common>
 0003:037e9b60       _cg_activeLocalEntities    338c0b60     <common>
 0003:037e9d20       _cg_localEntities          338c0d20     <common>
 0003:0383d120       _bg_mappic                 33914120     <common>
 0003:0383d124       _bg_filter_bt              33914124     <common>
 0003:0383d128       _bg_filter_al              33914128     <common>
 0003:0383d12c       _bg_filter_lv              3391412c     <common>
 0003:0383d130       _bg_filter_hw              33914130     <common>
 0003:0383d134       _bg_filter_ff              33914134     <common>
 0003:0383d138       _bg_filter_pb              33914138     <common>
 0003:0383d13c       _bg_pin                    3391413c     <common>
 0003:0383d140       _bg_neutralpin             33914140     <common>
 0003:0383d144       _bg_alliedpin              33914144     <common>
 0003:0383d148       _bg_axispin                33914148     <common>
 0003:0383d160       _bg_loadscreenfont2        33914160     <common>
 0003:038421c0       _bg_loadscreenfont1        339191c0     <common>
 0003:03847204       _bg_loadscreeninteractive  3391e204     <common>
 0003:03847208       ?_OptionsStorage@?1??__local_stdio_scanf_options@@9@9 3391e208     <common>
 0003:03847220       _lagometer                 3391e220     <common>
 0003:03847828       _maxCharsBeforeOverlay     3391e828     <common>
 0003:0384782c       _activeFont                3391e82c     <common>
 0003:03847840       _cameraInuse               3391e840     <common>
 0003:03847940       _cg_highlightTextRect      3391e940     <common>
 0003:03847960       _cg_highlightText          3391e960     <common>
 0003:03847a60       _bigTextBuffer             3391ea60     <common>
 0003:03860100       _laddervec                 33937100     <common>
 0003:0386010c       _ladderforward             3393710c     <common>
 0003:03860120       _pml                       33937120     <common>
 0003:038601b0       _pm                        339371b0     <common>
 0003:038601b8       ?_OptionsStorage@?1??__local_stdio_printf_options@@9@9 339371b8     <common>
 0003:038601c0       _splinePaths               339371c0     <common>
 0003:038d29c0       _numSplinePaths            339a99c0     <common>
 0003:038d29e0       _pathCorners               339a99e0     <common>
 0003:038dc1e0       _numPathCorners            339b31e0     <common>
 0003:038dc200       _bg_characterPoolInuse     339b3200     <common>
 0003:038dc240       _bg_characterPool          339b3240     <common>
 0003:038e4180       _axisAdminCharacters       339bb180     <common>
 0003:038e6960       _alliedAdminCharacters     339bd960     <common>
 0003:038e9140       _axisMemberCharacters      339c0140     <common>
 0003:038eb920       _alliedMemberCharacters    339c2920     <common>
 0003:038ee100       _axisClassCharacters       339c5100     <common>
 0003:038f08e0       _alliedClassCharacters     339c78e0     <common>
 0003:038f30c0       _weaponStrings             339ca0c0     <common>
 0003:038f3250       ___dyn_tls_init_callback   339ca250     <common>

 entry point at        0001:000b93e6

 Static symbols

 0000:fc602000       .debug$S                   30000000     ucrt:api-ms-win-crt-math-l1-1-0.dll
 0000:fc602000       .debug$S                   30000000     kernel32:KERNEL32.dll
 0000:fc602000       .debug$S                   30000000     kernel32:KERNEL32.dll
 0000:fc602000       .debug$S                   30000000     kernel32:KERNEL32.dll
 0000:fc602000       .debug$S                   30000000     kernel32:KERNEL32.dll
 0000:fc602000       .debug$S                   30000000     kernel32:KERNEL32.dll
 0000:fc602000       .debug$S                   30000000     user32:USER32.dll
 0000:fc602000       .debug$S                   30000000     ws2_32:WS2_32.dll
 0000:fc602000       .debug$S                   30000000     kernel32:KERNEL32.dll
 0000:fc602000       .debug$S                   30000000     advapi32:ADVAPI32.dll
 0000:fc602000       .debug$S                   30000000     advapi32:ADVAPI32.dll
 0000:fc602000       .debug$S                   30000000     advapi32:ADVAPI32.dll
 0000:fc602000       .debug$S                   30000000     advapi32:ADVAPI32.dll
 0000:fc602000       .debug$S                   30000000     advapi32:ADVAPI32.dll
 0000:fc602000       .debug$S                   30000000     ws2_32:WS2_32.dll
 0000:fc602000       .debug$S                   30000000     advapi32:ADVAPI32.dll
 0000:fc602000       .debug$S                   30000000     kernel32:KERNEL32.dll
 0000:fc602000       .debug$S                   30000000     ws2_32:WS2_32.dll
 0000:fc602000       .debug$S                   30000000     ws2_32:WS2_32.dll
 0000:fc602000       .debug$S                   30000000     kernel32:KERNEL32.dll
 0000:fc602000       .debug$S                   30000000     kernel32:KERNEL32.dll
 0000:fc602000       .debug$S                   30000000     kernel32:KERNEL32.dll
 0000:fc602000       .debug$S                   30000000     kernel32:KERNEL32.dll
 0000:fc602000       .debug$S                   30000000     kernel32:KERNEL32.dll
 0000:fc602000       .debug$S                   30000000     kernel32:KERNEL32.dll
 0000:fc602000       .debug$S                   30000000     ws2_32:WS2_32.dll
 0000:fc602000       .debug$S                   30000000     ws2_32:WS2_32.dll
 0000:fc602000       .debug$S                   30000000     ws2_32:WS2_32.dll
 0000:fc602000       .debug$S                   30000000     kernel32:KERNEL32.dll
 0000:fc602000       .debug$S                   30000000     ws2_32:WS2_32.dll
 0000:fc602000       .debug$S                   30000000     ws2_32:WS2_32.dll
 0000:fc602000       .debug$S                   30000000     kernel32:KERNEL32.dll
 0000:fc602000       .debug$S                   30000000     ws2_32:WS2_32.dll
 0002:fff44000       __guard_fids_?dllmain_dispatch@@YAHQAUHINSTANCE__@@KQAX@Z 30000000     MSVCRT:dll_dllmain.obj
 0000:fc602000       .debug$S                   30000000     kernel32:KERNEL32.dll
 0000:fc602000       .debug$S                   30000000     ws2_32:WS2_32.dll
 0000:fc602000       .debug$S                   30000000     ws2_32:WS2_32.dll
 0000:fc602000       .debug$S                   30000000     kernel32:KERNEL32.dll
 0000:fc602000       .debug$S                   30000000     kernel32:KERNEL32.dll
 0000:fc602000       .debug$S                   30000000     kernel32:KERNEL32.dll
 0000:fc602000       .debug$S                   30000000     kernel32:KERNEL32.dll
 0000:fc602000       .debug$S                   30000000     kernel32:KERNEL32.dll
 0000:fc602000       .debug$S                   30000000     kernel32:KERNEL32.dll
 0000:fc602000       .debug$S                   30000000     kernel32:KERNEL32.dll
 0000:fc602000       .debug$S                   30000000     kernel32:KERNEL32.dll
 0000:fc602000       .debug$S                   30000000     kernel32:KERNEL32.dll
 0000:fc602000       .debug$S                   30000000     kernel32:KERNEL32.dll
 0000:fc602000       .debug$S                   30000000     kernel32:KERNEL32.dll
 0000:fc602000       .debug$S                   30000000     kernel32:KERNEL32.dll
 0000:fc602000       .debug$S                   30000000     kernel32:KERNEL32.dll
 0000:fc602000       .debug$S                   30000000     kernel32:KERNEL32.dll
 0000:fc602000       .debug$S                   30000000     ws2_32:WS2_32.dll
 0000:fc602000       .debug$S                   30000000     ws2_32:WS2_32.dll
 0000:fc602000       .debug$S                   30000000     ws2_32:WS2_32.dll
 0002:fff44000       __guard_fids____scrt_set_unhandled_exception_filter 30000000     MSVCRT:utility_desktop.obj
 0000:fc602000       .debug$S                   30000000     iphlpapi:IPHLPAPI.DLL
 0002:fff44000       __guard_fids___except_handler4 30000000     MSVCRT:chandler4gs.obj
 0002:fff44000       __guard_fids__             30000000     MSVCRT:guard_support.obj
 0002:fff44000       __guard_fids___guard_icall_checks_enforced 30000000     MSVCRT:guard_support.obj
 0000:fc602000       .debug$S                   30000000     ws2_32:WS2_32.dll
 0000:fc602000       .debug$S                   30000000     ws2_32:WS2_32.dll
 0000:fc602000       .debug$S                   30000000     ws2_32:WS2_32.dll
 0000:fc602000       .debug$S                   30000000     ws2_32:WS2_32.dll
 0000:fc602000       .debug$S                   30000000     vcruntime:VCRUNTIME140.dll
 0000:fc602000       .debug$S                   30000000     cgame_mp_x86.exp
 0000:fc602000       .debug$S                   30000000     vcruntime:VCRUNTIME140.dll
 0000:fc602000       .debug$S                   30000000     kernel32:KERNEL32.dll
 0000:fc602000       .debug$S                   30000000     kernel32:KERNEL32.dll
 0000:fc602000       .debug$S                   30000000     kernel32:KERNEL32.dll
 0000:fc602000       .debug$S                   30000000     kernel32:KERNEL32.dll
 0000:fc602000       .debug$S                   30000000     kernel32:KERNEL32.dll
 0000:fc602000       .debug$S                   30000000     kernel32:KERNEL32.dll
 0000:fc602000       .debug$S                   30000000     kernel32:KERNEL32.dll
 0000:fc602000       .debug$S                   30000000     kernel32:KERNEL32.dll
 0000:fc602000       .debug$S                   30000000     kernel32:KERNEL32.dll
 0000:fc602000       .debug$S                   30000000     kernel32:KERNEL32.dll
 0000:fc602000       .debug$S                   30000000     kernel32:KERNEL32.dll
 0000:fc602000       .debug$S                   30000000     kernel32:KERNEL32.dll
 0000:fc602000       .debug$S                   30000000     vcruntime:VCRUNTIME140.dll
 0000:fc602000       .debug$S                   30000000     vcruntime:VCRUNTIME140.dll
 0000:fc602000       .debug$S                   30000000     vcruntime:VCRUNTIME140.dll
 0000:fc602000       .debug$S                   30000000     vcruntime:VCRUNTIME140.dll
 0000:fc602000       .debug$S                   30000000     vcruntime:VCRUNTIME140.dll
 0000:fc602000       .debug$S                   30000000     vcruntime:VCRUNTIME140.dll
 0000:fc602000       .debug$S                   30000000     vcruntime:VCRUNTIME140.dll
 0000:fc602000       .debug$S                   30000000     ucrt:api-ms-win-crt-utility-l1-1-0.dll
 0000:fc602000       .debug$S                   30000000     ws2_32:WS2_32.dll
 0000:fc602000       .debug$S                   30000000     ws2_32:WS2_32.dll
 0000:fc602000       .debug$S                   30000000     ucrt:api-ms-win-crt-runtime-l1-1-0.dll
 0000:fc602000       .debug$S                   30000000     ucrt:api-ms-win-crt-runtime-l1-1-0.dll
 0000:fc602000       .debug$S                   30000000     ucrt:api-ms-win-crt-runtime-l1-1-0.dll
 0000:fc602000       .debug$S                   30000000     ucrt:api-ms-win-crt-runtime-l1-1-0.dll
 0000:fc602000       .debug$S                   30000000     ucrt:api-ms-win-crt-runtime-l1-1-0.dll
 0000:fc602000       .debug$S                   30000000     ucrt:api-ms-win-crt-runtime-l1-1-0.dll
 0000:fc602000       .debug$S                   30000000     ucrt:api-ms-win-crt-runtime-l1-1-0.dll
 0000:fc602000       .debug$S                   30000000     ucrt:api-ms-win-crt-runtime-l1-1-0.dll
 0000:fc602000       .debug$S                   30000000     ucrt:api-ms-win-crt-runtime-l1-1-0.dll
 0000:fc602000       .debug$S                   30000000     ucrt:api-ms-win-crt-runtime-l1-1-0.dll
 0000:fc602000       .debug$S                   30000000     ucrt:api-ms-win-crt-math-l1-1-0.dll
 0000:fc602000       .debug$S                   30000000     ucrt:api-ms-win-crt-runtime-l1-1-0.dll
 0000:fc602000       .debug$S                   30000000     ucrt:api-ms-win-crt-runtime-l1-1-0.dll
 0000:fc602000       .debug$S                   30000000     ucrt:api-ms-win-crt-string-l1-1-0.dll
 0000:fc602000       .debug$S                   30000000     ucrt:api-ms-win-crt-string-l1-1-0.dll
 0000:fc602000       .debug$S                   30000000     ucrt:api-ms-win-crt-string-l1-1-0.dll
 0000:fc602000       .debug$S                   30000000     ucrt:api-ms-win-crt-filesystem-l1-1-0.dll
 0000:fc602000       .debug$S                   30000000     ucrt:api-ms-win-crt-string-l1-1-0.dll
 0000:fc602000       .debug$S                   30000000     ucrt:api-ms-win-crt-runtime-l1-1-0.dll
 0000:fc602000       .debug$S                   30000000     ucrt:api-ms-win-crt-runtime-l1-1-0.dll
 0000:fc602000       .debug$S                   30000000     ucrt:api-ms-win-crt-runtime-l1-1-0.dll
 0000:fc602000       .debug$S                   30000000     ucrt:api-ms-win-crt-stdio-l1-1-0.dll
 0000:fc602000       .debug$S                   30000000     ucrt:api-ms-win-crt-time-l1-1-0.dll
 0000:fc602000       .debug$S                   30000000     ucrt:api-ms-win-crt-string-l1-1-0.dll
 0000:fc602000       .debug$S                   30000000     ucrt:api-ms-win-crt-string-l1-1-0.dll
 0000:fc602000       .debug$S                   30000000     ucrt:api-ms-win-crt-string-l1-1-0.dll
 0000:fc602000       .debug$S                   30000000     ucrt:api-ms-win-crt-convert-l1-1-0.dll
 0000:fc602000       .debug$S                   30000000     ucrt:api-ms-win-crt-string-l1-1-0.dll
 0000:fc602000       .debug$S                   30000000     ucrt:api-ms-win-crt-stdio-l1-1-0.dll
 0000:fc602000       .debug$S                   30000000     ucrt:api-ms-win-crt-stdio-l1-1-0.dll
 0000:fc602000       .debug$S                   30000000     ucrt:api-ms-win-crt-runtime-l1-1-0.dll
 0000:fc602000       .debug$S                   30000000     ucrt:api-ms-win-crt-time-l1-1-0.dll
 0000:fc602000       .debug$S                   30000000     ucrt:api-ms-win-crt-convert-l1-1-0.dll
 0000:fc602000       .debug$S                   30000000     ucrt:api-ms-win-crt-stdio-l1-1-0.dll
 0000:fc602000       .debug$S                   30000000     ucrt:api-ms-win-crt-string-l1-1-0.dll
 0000:fc602000       .debug$S                   30000000     ucrt:api-ms-win-crt-heap-l1-1-0.dll
 0000:fc602000       .debug$S                   30000000     ucrt:api-ms-win-crt-convert-l1-1-0.dll
 0000:fc602000       .debug$S                   30000000     ucrt:api-ms-win-crt-heap-l1-1-0.dll
 0000:fc602000       .debug$S                   30000000     ucrt:api-ms-win-crt-string-l1-1-0.dll
 0000:fc602000       .debug$S                   30000000     ucrt:api-ms-win-crt-environment-l1-1-0.dll
 0000:fc602000       .debug$S                   30000000     ucrt:api-ms-win-crt-stdio-l1-1-0.dll
 0000:fc602000       .debug$S                   30000000     ucrt:api-ms-win-crt-string-l1-1-0.dll
 0000:fc602000       .debug$S                   30000000     ucrt:api-ms-win-crt-string-l1-1-0.dll
 0000:fc602000       .debug$S                   30000000     ucrt:api-ms-win-crt-stdio-l1-1-0.dll
 0000:fc602000       .debug$S                   30000000     ucrt:api-ms-win-crt-stdio-l1-1-0.dll
 0000:fc602000       .debug$S                   30000000     ucrt:api-ms-win-crt-math-l1-1-0.dll
 0000:fc602000       .debug$S                   30000000     ucrt:api-ms-win-crt-filesystem-l1-1-0.dll
 0000:fc602000       .debug$S                   30000000     ucrt:api-ms-win-crt-math-l1-1-0.dll
 0000:fc602000       .debug$S                   30000000     ucrt:api-ms-win-crt-math-l1-1-0.dll
 0000:fc602000       .debug$S                   30000000     ucrt:api-ms-win-crt-heap-l1-1-0.dll
 0000:fc602000       .debug$S                   30000000     ucrt:api-ms-win-crt-heap-l1-1-0.dll
 0000:fc602000       .debug$S                   30000000     ucrt:api-ms-win-crt-stdio-l1-1-0.dll
 0000:fc602000       .debug$S                   30000000     ucrt:api-ms-win-crt-math-l1-1-0.dll
 0000:fc602000       .debug$S                   30000000     ucrt:api-ms-win-crt-math-l1-1-0.dll
 0000:fc602000       .debug$S                   30000000     ucrt:api-ms-win-crt-math-l1-1-0.dll
 0000:fc602000       .debug$S                   30000000     ucrt:api-ms-win-crt-string-l1-1-0.dll
 0000:fc602000       .debug$S                   30000000     ucrt:api-ms-win-crt-utility-l1-1-0.dll
 0000:fc602000       .debug$S                   30000000     ucrt:api-ms-win-crt-stdio-l1-1-0.dll
 0000:fc602000       .debug$S                   30000000     ucrt:api-ms-win-crt-stdio-l1-1-0.dll
 0000:fc602000       .debug$S                   30000000     ucrt:api-ms-win-crt-stdio-l1-1-0.dll
 0000:fc602000       .debug$S                   30000000     ucrt:api-ms-win-crt-convert-l1-1-0.dll
 0000:fc602000       .debug$S                   30000000     ucrt:api-ms-win-crt-math-l1-1-0.dll
 0000:fc602000       .debug$S                   30000000     ucrt:api-ms-win-crt-math-l1-1-0.dll
 0000:fc602000       .debug$S                   30000000     ucrt:api-ms-win-crt-math-l1-1-0.dll
 0000:fc602000       .debug$S                   30000000     ucrt:api-ms-win-crt-convert-l1-1-0.dll
 0000:fc602000       .debug$S                   30000000     ucrt:api-ms-win-crt-stdio-l1-1-0.dll
 0000:fc602000       .debug$S                   30000000     ucrt:api-ms-win-crt-string-l1-1-0.dll
 0000:fc602000       .debug$S                   30000000     kernel32:KERNEL32.dll
 0001:000007b0       $LN107                     300017b0     bg_animation.obj
 0001:00000968       $LN21                      30001968     bg_animation.obj
 0001:00000970       $LN19                      30001970     bg_animation.obj
 0001:00000cd0       _BG_AnimationIndexForString 30001cd0 f   bg_animation.obj
 0001:00001360       _BG_ParseCommands          30002360 f   bg_animation.obj
 0001:00001d50       _BG_RAG_FindFreeAnimation  30002d50 f   bg_animgroup.obj
 0001:00001de0       _BG_RAG_ParseAnimFile      30002de0 f   bg_animgroup.obj
 0001:00001fb0       _BG_RAG_ParseAnimation     30002fb0 f   bg_animgroup.obj
 0001:00002150       _BG_RAG_ParseError         30003150 f   bg_animgroup.obj
 0001:000027d0       _BG_PCF_ParseError         300037d0 f   bg_character.obj
 0001:00002c0c       $LN12                      30003c0c     bg_classes.obj
 0001:00002c5c       $LN11                      30003c5c     bg_classes.obj
 0001:00002d10       $LN13                      30003d10     bg_classes.obj
 0001:00002d28       $LN11                      30003d28     bg_classes.obj
 0001:00002dac       $LN12                      30003dac     bg_classes.obj
 0001:00002e4c       $LN12                      30003e4c     bg_classes.obj
 0001:00002f2c       $LN11                      30003f2c     bg_classes.obj
 0001:00003620       $LN13                      30004620     bg_misc.obj
 0001:000036a0       $LN12                      300046a0     bg_misc.obj
 0001:000036ac       $LN10                      300046ac     bg_misc.obj
 0001:00003b20       $LN35                      30004b20     bg_misc.obj
 0001:00003c84       $LN53                      30004c84     bg_misc.obj
 0001:00003e5c       $LN12                      30004e5c     bg_misc.obj
 0001:00003e70       $LN10                      30004e70     bg_misc.obj
 0001:00004a4c       $LN76                      30005a4c     bg_misc.obj
 0001:00004d08       $LN22                      30005d08     bg_misc.obj
 0001:00005374       $LN13                      30006374     bg_misc.obj
 0001:00005890       $LN34                      30006890     bg_misc.obj
 0001:000058b0       $LN31                      300068b0     bg_misc.obj
 0001:00006448       $LN12                      30007448     bg_misc.obj
 0001:00006450       $LN10                      30007450     bg_misc.obj
 0001:000064c8       $LN9                       300074c8     bg_misc.obj
 0001:000064d0       $LN7                       300074d0     bg_misc.obj
 0001:00006998       $LN19                      30007998     bg_misc.obj
 0001:000069b0       $LN16                      300079b0     bg_misc.obj
 0001:00006a30       $LN10                      30007a30     bg_misc.obj
 0001:00006a74       $LN11                      30007a74     bg_misc.obj
 0001:00006a88       $LN9                       30007a88     bg_misc.obj
 0001:00007020       _PM_Accelerate             30008020 f   bg_pmove.obj
 0001:00007450       $LN50                      30008450     bg_pmove.obj
 0001:00007468       $LN46                      30008468     bg_pmove.obj
 0001:000074a0       _PM_AirMove                300084a0 f   bg_pmove.obj
 0001:000076ec       $LN9                       300086ec     bg_pmove.obj
 0001:000076f4       $LN7                       300086f4     bg_pmove.obj
 0001:0000772c       $LN9                       3000872c     bg_pmove.obj
 0001:00007734       $LN7                       30008734     bg_pmove.obj
 0001:00007ae4       $LN67                      30008ae4     bg_pmove.obj
 0001:00007af4       $LN58                      30008af4     bg_pmove.obj
 0001:00007b20       $LN68                      30008b20     bg_pmove.obj
 0001:00007b48       $LN59                      30008b48     bg_pmove.obj
 0001:00007b80       _PM_BeginWeaponReload      30008b80 f   bg_pmove.obj
 0001:00007ce8       $LN39                      30008ce8     bg_pmove.obj
 0001:00007cf8       $LN30                      30008cf8     bg_pmove.obj
 0001:00007d14       $LN40                      30008d14     bg_pmove.obj
 0001:00007d1c       $LN31                      30008d1c     bg_pmove.obj
 0001:00007d40       _PM_CheckDodge             30008d40 f   bg_pmove.obj
 0001:00007d50       _PM_CheckDoubleJump        30008d50 f   bg_pmove.obj
 0001:00007e50       _PM_CheckDuck              30008e50 f   bg_pmove.obj
 0001:000081e0       _PM_CheckJump              300091e0 f   bg_pmove.obj
 0001:00008620       _PM_CheckPlayDead          30009620 f   bg_pmove.obj
 0001:00008900       _PM_CheckProne             30009900 f   bg_pmove.obj
 0001:00008dd0       $LN43                      30009dd0     bg_pmove.obj
 0001:00008df0       _PM_CheckWaterJump         30009df0 f   bg_pmove.obj
 0001:00009000       _PM_CmdScale               3000a000 f   bg_pmove.obj
 0001:00009350       _PM_CorrectAllSolid        3000a350 f   bg_pmove.obj
 0001:00009510       _PM_CrashLand              3000a510 f   bg_pmove.obj
 0001:000097a0       _PM_DeadMove               3000a7a0 f   bg_pmove.obj
 0001:00009870       _PM_DropTimers             3000a870 f   bg_pmove.obj
 0001:00009930       _PM_EscapeSolid            3000a930 f   bg_pmove.obj
 0001:00009cd0       _PM_FinishWeaponChange     3000acd0 f   bg_pmove.obj
 0001:00009f84       $LN68                      3000af84     bg_pmove.obj
 0001:00009f9c       $LN62                      3000af9c     bg_pmove.obj
 0001:00009fc8       $LN69                      3000afc8     bg_pmove.obj
 0001:00009ff0       $LN63                      3000aff0     bg_pmove.obj
 0001:0000a020       _PM_FinishWeaponReload     3000b020 f   bg_pmove.obj
 0001:0000a060       _PM_FlyMove                3000b060 f   bg_pmove.obj
 0001:0000a1a0       _PM_FootstepForSurface     3000b1a0 f   bg_pmove.obj
 0001:0000a1b0       _PM_Footsteps              3000b1b0 f   bg_pmove.obj
 0001:0000a690       _PM_Friction               3000b690 f   bg_pmove.obj
 0001:0000a880       _PM_GroundTrace            3000b880 f   bg_pmove.obj
 0001:0000abe0       _PM_GroundTraceMissed      3000bbe0 f   bg_pmove.obj
 0001:0000ad28       $LN9                       3000bd28     bg_pmove.obj
 0001:0000ad30       $LN7                       3000bd30     bg_pmove.obj
 0001:0000b0d4       $LN10                      3000c0d4     bg_pmove.obj
 0001:0000b0e0       $LN8                       3000c0e0     bg_pmove.obj
 0001:0000b0f0       _PM_NoclipMove             3000c0f0 f   bg_pmove.obj
 0001:0000b338       $LN11                      3000c338     bg_pmove.obj
 0001:0000b348       $LN9                       3000c348     bg_pmove.obj
 0001:0000b3b0       _PM_ReloadClip             3000c3b0 f   bg_pmove.obj
 0001:0000b450       _PM_SetMovementDir         3000c450 f   bg_pmove.obj
 0001:0000b5e0       _PM_SetWaterLevel          3000c5e0 f   bg_pmove.obj
 0001:0000b990       _PM_StartWeaponAnim        3000c990 f   bg_pmove.obj
 0001:0000b9d0       _PM_SwitchIfEmpty          3000c9d0 f   bg_pmove.obj
 0001:0000cdf0       _PM_WalkMove               3000ddf0 f   bg_pmove.obj
 0001:0000d210       _PM_WaterEvents            3000e210 f   bg_pmove.obj
 0001:0000d2c0       _PM_WaterJumpMove          3000e2c0 f   bg_pmove.obj
 0001:0000d310       _PM_WaterMove              3000e310 f   bg_pmove.obj
 0001:0000d570       _PM_Weapon                 3000e570 f   bg_pmove.obj
 0001:0000f388       $LN419                     30010388     bg_pmove.obj
 0001:0000f3ac       $LN349                     300103ac     bg_pmove.obj
 0001:0000f3e0       $LN420                     300103e0     bg_pmove.obj
 0001:0000f3ec       $LN350                     300103ec     bg_pmove.obj
 0001:0000f418       $LN421                     30010418     bg_pmove.obj
 0001:0000f428       $LN351                     30010428     bg_pmove.obj
 0001:0000f458       $LN422                     30010458     bg_pmove.obj
 0001:0000f488       $LN352                     30010488     bg_pmove.obj
 0001:0000f4bc       $LN423                     300104bc     bg_pmove.obj
 0001:0000f4d0       $LN353                     300104d0     bg_pmove.obj
 0001:00011150       _BG_SS_ParseError          30012150 f   bg_sscript.obj
 0001:000111e0       _BG_SS_ParseSpeaker        300121e0 f   bg_sscript.obj
 0001:00011770       _BG_ClampPointToTracemapExtends 30012770 f   bg_tracemap.obj
 0001:00011eb8       $LN106                     30012eb8     bg_tracemap.obj
 0001:00012bec       $LN252                     30013bec     bg_tracemap.obj
 0001:00013720       _CG_AddPolyToPool          30014720 f   cg_atmospheric.obj
 0001:000138e0       _CG_EP_ParseFloats         300148e0 f   cg_atmospheric.obj
 0001:00013990       _CG_EP_ParseInts           30014990 f   cg_atmospheric.obj
 0001:00013a40       _CG_EffectGust             30014a40 f   cg_atmospheric.obj
 0001:00013b10       _CG_EffectGustCurrent      30014b10 f   cg_atmospheric.obj
 0001:000142f0       _CG_RainParticleCheckVisible 300152f0 f   cg_atmospheric.obj
 0001:000143e0       _CG_RainParticleGenerate   300153e0 f   cg_atmospheric.obj
 0001:00014720       _CG_RainParticleRender     30015720 f   cg_atmospheric.obj
 0001:00014a80       _CG_SetParticleActive      30015a80 f   cg_atmospheric.obj
 0001:00014aa0       _CG_SnowParticleCheckVisible 30015aa0 f   cg_atmospheric.obj
 0001:00014b70       _CG_SnowParticleGenerate   30015b70 f   cg_atmospheric.obj
 0001:00014d90       _CG_SnowParticleRender     30015d90 f   cg_atmospheric.obj
 0001:00015140       _CG_CalcMoveSpeeds         30016140 f   cg_character.obj
 0001:00015510       _CG_CheckForExistingAnimModelInfo 30016510 f   cg_character.obj
 0001:00015830       $LN28                      30016830     cg_character.obj
 0001:00015840       $LN29                      30016840     cg_character.obj
 0001:00015888       $LN11                      30016888     cg_character.obj
 0001:00015c60       _CG_ParseAnimationFiles    30016c60 f   cg_character.obj
 0001:00015d50       _CG_ParseHudHeadConfig     30016d50 f   cg_character.obj
 0001:00015ed0       _CG_RegisterAcc            30016ed0 f   cg_character.obj
 0001:00016f80       _CG_DrawGrid               30017f80 f   cg_commandmap.obj
 0001:00019120       $LN191                     3001a120     cg_commandmap.obj
 0001:0001912c       $LN176                     3001a12c     cg_commandmap.obj
 0001:00019dc8       $LN12                      3001adc8     cg_commandmap.obj
 0001:00019dd4       $LN10                      3001add4     cg_commandmap.obj
 0001:00019f90       _CG_ScissorEntIsCulled     3001af90 f   cg_commandmap.obj
 0001:0001a030       _CG_ScissorPointIsCulled   3001b030 f   cg_commandmap.obj
 0001:0001a450       _CG_Viewpos_f              3001b450 f   cg_consolecmds.obj
 0001:0001a490       _CG_StatsDown_f            3001b490 f   cg_consolecmds.obj
 0001:0001a580       _CG_StatsUp_f              3001b580 f   cg_consolecmds.obj
 0001:0001a7e0       _CG_Scoreboard_f           3001b7e0 f   cg_consolecmds.obj
 0001:0001a860       _CG_LoadHud_f              3001b860 f   cg_consolecmds.obj
 0001:0001a920       _CG_EditHud_f              3001b920 f   cg_consolecmds.obj
 0001:0001a930       _CG_DumpHud_f              3001b930 f   cg_consolecmds.obj
 0001:0001a940       _CG_LoadWeapons_f          3001b940 f   cg_consolecmds.obj
 0001:0001a970       _CG_TellTarget_f           3001b970 f   cg_consolecmds.obj
 0001:0001a9e0       _CG_TellAttacker_f         3001b9e0 f   cg_consolecmds.obj
 0001:0001aa50       _CG_Fade_f                 3001ba50 f   cg_consolecmds.obj
 0001:0001ac00       _CG_QuickFireteams_f       3001bc00 f   cg_consolecmds.obj
 0001:0001ac60       _CG_FTSayPlayerClass_f     3001bc60 f   cg_consolecmds.obj
 0001:0001ad00       _CG_SayPlayerClass_f       3001bd00 f   cg_consolecmds.obj
 0001:0001ad90       _CG_VoiceChat_f            3001bd90 f   cg_consolecmds.obj
 0001:0001ade0       _CG_TeamVoiceChat_f        3001bde0 f   cg_consolecmds.obj
 0001:0001ae90       _CG_BuddyVoiceChat_f       3001be90 f   cg_consolecmds.obj
 0001:0001af30       _CG_MessageMode_f          3001bf30 f   cg_consolecmds.obj
 0001:0001afd0       _CG_MessageSend_f          3001bfd0 f   cg_consolecmds.obj
 0001:0001b090       _CG_SetWeaponCrosshair_f   3001c090 f   cg_consolecmds.obj
 0001:0001b0d0       _CG_SelectBuddy_f          3001c0d0 f   cg_consolecmds.obj
 0001:0001b160       _CG_AutomapZoomIn_f        3001c160 f   cg_consolecmds.obj
 0001:0001b180       _CG_AutomapZoomOut_f       3001c180 f   cg_consolecmds.obj
 0001:0001b1a0       _CG_AutomapExpandDown_f    3001c1a0 f   cg_consolecmds.obj
 0001:0001b200       _CG_AutomapExpandUp_f      3001c200 f   cg_consolecmds.obj
 0001:0001b260       _CG_ToggleAutomap_f        3001c260 f   cg_consolecmds.obj
 0001:0001b360       _CG_EditSpeakers_f         3001c360 f   cg_consolecmds.obj
 0001:0001b3a0       _CG_DumpSpeaker_f          3001c3a0 f   cg_consolecmds.obj
 0001:0001b500       _CG_ModifySpeaker_f        3001c500 f   cg_consolecmds.obj
 0001:0001b510       _CG_UndoSpeaker_f          3001c510 f   cg_consolecmds.obj
 0001:0001b530       _CG_CPM_f                  3001c530 f   cg_consolecmds.obj
 0001:0001b550       _CG_Nop_f                  3001c550 f   cg_consolecmds.obj
 0001:0001b560       _CG_HideVote_f             3001c560 f   cg_consolecmds.obj
 0001:0001b580       _CG_ResetMaxSpeed_f        3001c580 f   cg_consolecmds.obj
 0001:0001b590       _CG_LoadFont_f             3001c590 f   cg_consolecmds.obj
 0001:0001c714       $LN31                      3001d714     cg_crash.obj
 0001:0001c724       $LN32                      3001d724     cg_crash.obj
 0001:0001c76c       $LN29                      3001d76c     cg_crash.obj
 0001:00020788       $LN31                      30021788     cg_debriefing.obj
 0001:0002102c       $LN36                      3002202c     cg_debriefing.obj
 0001:00021070       $LN10                      30022070     cg_debriefing.obj
 0001:000210b8       $LN10                      300220b8     cg_debriefing.obj
 0001:00021110       $LN10                      30022110     cg_debriefing.obj
 0001:00021fb0       _CG_Draw2D                 30022fb0 f   cg_draw.obj
 0001:000225b0       _CG_DrawBannerPrint        300235b0 f   cg_draw.obj
 0001:00022810       _CG_DrawBinocReticle       30023810 f   cg_draw.obj
 0001:000229f0       _CG_DrawCenterString       300239f0 f   cg_draw.obj
 0001:00022e90       _CG_DrawCrosshair          30023e90 f   cg_draw.obj
 0001:00023310       _CG_DrawCrosshairNames     30024310 f   cg_draw.obj
 0001:000241b0       _CG_DrawDisconnect         300251b0 f   cg_draw.obj
 0001:000242c0       _CG_DrawFPS                300252c0 f   cg_draw.obj
 0001:00024644       $LN27                      30025644     cg_draw.obj
 0001:00024760       $LN24                      30025760     cg_draw.obj
 0001:00024770       _CG_DrawFlashBlend         30025770 f   cg_draw.obj
 0001:000247b0       _CG_DrawFlashBlendBehindHUD 300257b0 f   cg_draw.obj
 0001:000247c0       _CG_DrawFlashDamage        300257c0 f   cg_draw.obj
 0001:000248c0       _CG_DrawFlashFade          300258c0 f   cg_draw.obj
 0001:00024b20       _CG_DrawFlashFire          30025b20 f   cg_draw.obj
 0001:00024d00       _CG_DrawFlashZoomTransition 30025d00 f   cg_draw.obj
 0001:00024de0       _CG_DrawFollow             30025de0 f   cg_draw.obj
 0001:00025180       _CG_DrawIntermission       30026180 f   cg_draw.obj
 0001:00025380       _CG_DrawLagometer          30026380 f   cg_draw.obj
 0001:00025840       _CG_DrawLimboMessage       30026840 f   cg_draw.obj
 0001:00025d10       _CG_DrawMortarReticle      30026d10 f   cg_draw.obj
 0001:00026ba0       _CG_DrawNewCompass         30027ba0 f   cg_draw.obj
 0001:00027050       _CG_DrawNoShootIcon        30028050 f   cg_draw.obj
 0001:000271c0       _CG_DrawObjectiveInfo      300281c0 f   cg_draw.obj
 0001:000275f0       _CG_DrawPlayerHealthBar    300285f0 f   cg_draw.obj
 0001:00027730       _CG_DrawPlayerStats        30028730 f   cg_draw.obj
 0001:00028350       _CG_DrawPlayerStatus       30029350 f   cg_draw.obj
 0001:00028690       _CG_DrawPlayerStatusHead   30029690 f   cg_draw.obj
 0001:00028890       _CG_DrawSkillBar           30029890 f   cg_draw.obj
 0001:00028a40       _CG_DrawSnapshot           30029a40 f   cg_draw.obj
 0001:00028ab0       _CG_DrawSpectator          30029ab0 f   cg_draw.obj
 0001:00028b10       _CG_DrawSpectatorMessage   30029b10 f   cg_draw.obj
 0001:00028ca0       _CG_DrawSpeed              30029ca0 f   cg_draw.obj
 0001:00028f50       _CG_DrawStaminaBar         30029f50 f   cg_draw.obj
 0001:00029250       _CG_DrawStatsDebug         3002a250 f   cg_draw.obj
 0001:00029590       _CG_DrawTeamInfo           3002a590 f   cg_draw.obj
 0001:00029b50       _CG_DrawTimer              3002ab50 f   cg_draw.obj
 0001:00029ea0       _CG_DrawUpperRight         3002aea0 f   cg_draw.obj
 0001:0002a040       _CG_DrawVote               3002b040 f   cg_draw.obj
 0001:0002abd0       _CG_DrawWarmup             3002bbd0 f   cg_draw.obj
 0001:0002af30       _CG_DrawWatermark          3002bf30 f   cg_draw.obj
 0001:0002b060       _CG_DrawWeapRecharge       3002c060 f   cg_draw.obj
 0001:0002b240       _CG_DrawWeapReticle        3002c240 f   cg_draw.obj
 0001:0002b73c       $LN12                      3002c73c     cg_draw.obj
 0001:0002b8b0       _CG_PlayerAmmoValue        3002c8b0 f   cg_draw.obj
 0001:0002ba4c       $LN28                      3002ca4c     cg_draw.obj
 0001:0002ba58       $LN26                      3002ca58     cg_draw.obj
 0001:0002bec0       _CG_ScanForCrosshairEntity 3002cec0 f   cg_draw.obj
 0001:0002c1f0       _CG_ScreenFade             3002d1f0 f   cg_draw.obj
 0001:0002e3b0       _CG_TileClearBox           3002f3b0 f   cg_drawtools.obj
 0001:0002e590       _UI_DrawBannerString2      3002f590 f   cg_drawtools.obj
 0001:0002e930       _UI_DrawProportionalString2 3002f930 f   cg_drawtools.obj
 0001:0002eb30       _AllocSmokeSprite          3002fb30 f   cg_effects.obj
 0001:00030ef0       _CG_SmokeSpritePhysics     30031ef0 f   cg_effects.obj
 0001:00032100       _DeAllocSmokeSprite        30033100 f   cg_effects.obj
 0001:00033a70       _CG_Bomb                   30034a70 f   cg_ents.obj
 0001:00033f70       _CG_Constructible          30034f70 f   cg_ents.obj
 0001:00034080       _CG_Corona                 30035080 f   cg_ents.obj
 0001:00034230       _CG_DrawMineMarkerFlag     30035230 f   cg_ents.obj
 0001:00034370       _CG_EntityEffects          30035370 f   cg_ents.obj
 0001:00034990       _CG_Explosive              30035990 f   cg_ents.obj
 0001:00034a80       _CG_General                30035a80 f   cg_ents.obj
 0001:00034eb0       _CG_InterpolateEntityPosition 30035eb0 f   cg_ents.obj
 0001:00035050       _CG_Item                   30036050 f   cg_ents.obj
 0001:00035950       _CG_Missile                30036950 f   cg_ents.obj
 0001:000360d0       _CG_Mover                  300370d0 f   cg_ents.obj
 0001:00036860       _CG_Portal                 30037860 f   cg_ents.obj
 0001:00036c60       _CG_ProcessEntity          30037c60 f   cg_ents.obj
 0001:00036d6c       $LN35                      30037d6c     cg_ents.obj
 0001:00036dc4       $LN30                      30037dc4     cg_ents.obj
 0001:00036e00       _CG_Prop                   30037e00 f   cg_ents.obj
 0001:00037180       _CG_Smoker                 30038180 f   cg_ents.obj
 0001:000371f0       _CG_Speaker                300381f0 f   cg_ents.obj
 0001:00037290       _CG_SpotlightEfx           30038290 f   cg_ents.obj
 0001:00037400       _CG_Trap                   30038400 f   cg_ents.obj
 0001:00037540       _CG_TrapSetAnim            30038540 f   cg_ents.obj
 0001:00037580       _CG_BotDebugLine           30038580 f   cg_event.obj
 0001:00037680       _CG_BotDebugRadius         30038680 f   cg_event.obj
 0001:00039ed8       $LN400                     3003aed8     cg_event.obj
 0001:0003a9d8       $LN110                     3003b9d8     cg_event.obj
 0001:0003aa00       _CG_ItemPickup             3003ba00 f   cg_event.obj
 0001:0003ad00       _CG_Obituary               3003bd00 f   cg_event.obj
 0001:0003b270       $LN122                     3003c270     cg_event.obj
 0001:0003b294       $LN108                     3003c294     cg_event.obj
 0001:0003b2ac       $LN123                     3003c2ac     cg_event.obj
 0001:0003b2f4       $LN109                     3003c2f4     cg_event.obj
 0001:0003b32c       $LN124                     3003c32c     cg_event.obj
 0001:0003b3c4       $LN111                     3003c3c4     cg_event.obj
 0001:0003bdec       $LN111                     3003cdec     cg_event.obj
 0001:0003c3e0       _CG_StartFootStepSound     3003d3e0 f   cg_event.obj
 0001:0003de78       $LN96                      3003ee78     cg_fireteams.obj
 0001:0003dfd0       $LN17                      3003efd0     cg_fireteams.obj
 0001:0003edb4       $LN198                     3003fdb4     cg_fireteams.obj
 0001:000426d0       _CG_HudEditor_AmmoDraw     300436d0 f   cg_hud.obj
 0001:00042960       _CG_HudEditor_ChargeBarDraw 30043960 f   cg_hud.obj
 0001:00042a40       _CG_HudEditor_ChatTextDraw 30043a40 f   cg_hud.obj
 0001:00042bd0       _CG_HudEditor_CompassDraw  30043bd0 f   cg_hud.obj
 0001:00042d20       _CG_HudEditor_CpmTextDraw  30043d20 f   cg_hud.obj
 0001:00042eb0       _CG_HudEditor_CursorDraw   30043eb0 f   cg_hud.obj
 0001:000432f0       _CG_HudEditor_DrawsDraw    300442f0 f   cg_hud.obj
 0001:000433b0       _CG_HudEditor_FireTeamDraw 300443b0 f   cg_hud.obj
 0001:00043480       _CG_HudEditor_FlagcovDraw  30044480 f   cg_hud.obj
 0001:00043590       _CG_HudEditor_HeadDraw     30044590 f   cg_hud.obj
 0001:00043680       _CG_HudEditor_HealthBarDraw 30044680 f   cg_hud.obj
 0001:00043760       _CG_HudEditor_HelpDraw     30044760 f   cg_hud.obj
 0001:00043bc0       _CG_HudEditor_HpDraw       30044bc0 f   cg_hud.obj
 0001:00044b74       $LN163                     30045b74     cg_hud.obj
 0001:00044bfc       $LN155                     30045bfc     cg_hud.obj
 0001:00044cb0       _CG_HudEditor_LagometerDraw 30045cb0 f   cg_hud.obj
 0001:00044d90       _CG_HudEditor_LivesLeftDraw 30045d90 f   cg_hud.obj
 0001:000450d0       _CG_HudEditor_OverHeatDraw 300460d0 f   cg_hud.obj
 0001:000451c0       _CG_HudEditor_SkillDraw    300461c0 f   cg_hud.obj
 0001:00045580       _CG_HudEditor_StaminaBarDraw 30046580 f   cg_hud.obj
 0001:00045660       _CG_HudEditor_VoteFTTextDraw 30046660 f   cg_hud.obj
 0001:00045800       _CG_HudEditor_WeaponCardDraw 30046800 f   cg_hud.obj
 0001:000458e0       _CG_HudEditor_XpDraw       300468e0 f   cg_hud.obj
 0001:00047530       _Hudrect_ContainsPoint     30048530 f   cg_hud.obj
 0001:00047ab0       $LN87                      30048ab0     cg_info.obj
 0001:00047b24       $LN76                      30048b24     cg_info.obj
 0001:0004d16c       $LN33                      3004e16c     cg_limbopanel.obj
 0001:0004d178       $LN27                      3004e178     cg_limbopanel.obj
 0001:0004d1a8       $LN34                      3004e1a8     cg_limbopanel.obj
 0001:0004d1b0       $LN28                      3004e1b0     cg_limbopanel.obj
 0001:0004d1d8       $LN35                      3004e1d8     cg_limbopanel.obj
 0001:0004d1fc       $LN29                      3004e1fc     cg_limbopanel.obj
 0001:0004d22c       $LN36                      3004e22c     cg_limbopanel.obj
 0001:0004d234       $LN30                      3004e234     cg_limbopanel.obj
 0001:0004d8a8       $LN49                      3004e8a8     cg_limbopanel.obj
 0001:0004d8c0       $LN41                      3004e8c0     cg_limbopanel.obj
 0001:0004db18       $LN16                      3004eb18     cg_limbopanel.obj
 0001:0004dbb8       $LN12                      3004ebb8     cg_limbopanel.obj
 0001:0004de18       $LN52                      3004ee18     cg_limbopanel.obj
 0001:0004f7dc       $LN14                      300507dc     cg_loadpanel.obj
 0001:0004fcd0       _CG_AddExplosion           30050cd0 f   cg_localents.obj
 0001:0004fe00       _CG_AddFallScaleFade       30050e00 f   cg_localents.obj
 0001:00050c04       $LN30                      30051c04     cg_localents.obj
 0001:00050c40       _CG_AddMoveScaleFade       30051c40 f   cg_localents.obj
 0001:00050e50       _CG_AddScaleFade           30051e50 f   cg_localents.obj
 0001:00051370       _CG_AddSpriteExplosion     30052370 f   cg_localents.obj
 0001:000527e0       _CG_DrawCinematic          300537e0 f   cg_main.obj
 0001:00052860       _CG_FeederCount            30053860 f   cg_main.obj
 0001:00052b00       _CG_FeederItemImage        30053b00 f   cg_main.obj
 0001:00052b10       _CG_FeederItemText         30053b10 f   cg_main.obj
 0001:00052be8       $LN16                      30053be8     cg_main.obj
 0001:00052c00       _CG_FeederSelection        30053c00 f   cg_main.obj
 0001:00052c60       _CG_InfoFromScoreIndex     30053c60 f   cg_main.obj
 0001:00053970       _CG_OwnerDrawHandleKey     30054970 f   cg_main.obj
 0001:00053980       _CG_OwnerDrawWidth         30054980 f   cg_main.obj
 0001:00053a60       _CG_PlayCinematic          30054a60 f   cg_main.obj
 0001:00053b60       _CG_RegisterClients        30054b60 f   cg_main.obj
 0001:00053ca0       _CG_RegisterGraphics       30054ca0 f   cg_main.obj
 0001:00055360       _CG_RegisterItemSounds     30056360 f   cg_main.obj
 0001:00055490       _CG_RegisterSounds         30056490 f   cg_main.obj
 0001:00055fb0       _CG_RunCinematicFrame      30056fb0 f   cg_main.obj
 0001:00056210       _CG_StopCinematic          30057210 f   cg_main.obj
 0001:00056b00       $LN24                      30057b00     cg_main.obj
 0001:00059b9c       $LN31                      3005ab9c     cg_multiview.obj
 0001:00059bd0       $LN27                      3005abd0     cg_multiview.obj
 0001:0005a0c4       $LN67                      3005b0c4     cg_newDraw.obj
 0001:0005aaa4       $LN20                      3005baa4     cg_newDraw.obj
 0001:0005ac08       $LN32                      3005bc08     cg_newDraw.obj
 0001:0005ac10       $LN27                      3005bc10     cg_newDraw.obj
 0001:0005ad50       _weapIconDrawSize          3005bd50 f   cg_newDraw.obj
 0001:0005ad7c       $LN8                       3005bd7c     cg_newDraw.obj
 0001:0005ad84       $LN6                       3005bd84     cg_newDraw.obj
 0001:0005f9f0       _CG_AddPainTwitch          300609f0 f   cg_players.obj
 0001:0005fdc0       _CG_BreathPuffs            30060dc0 f   cg_players.obj
 0001:00060000       _CG_ClearLerpFrame         30061000 f   cg_players.obj
 0001:000607e0       $LN47                      300617e0     cg_players.obj
 0001:00060e10       _CG_LoadClientInfo         30061e10 f   cg_players.obj
 0001:00061f58       $LN85                      30062f58     cg_players.obj
 0001:00061f80       _CG_PlayerAngles           30062f80 f   cg_players.obj
 0001:00062550       _CG_PlayerAnimation        30063550 f   cg_players.obj
 0001:00062740       _CG_PlayerFloatSprite      30063740 f   cg_players.obj
 0001:00062830       _CG_PlayerShadow           30063830 f   cg_players.obj
 0001:00062c00       _CG_PlayerSplash           30063c00 f   cg_players.obj
 0001:00062dd0       _CG_PlayerSprites          30063dd0 f   cg_players.obj
 0001:00063a10       _CG_SetLerpFrameAnimation  30064a10 f   cg_players.obj
 0001:00063c40       _CG_SwingAngles            30064c40 f   cg_players.obj
 0001:00063e10       _CG_SwingAngles_Limbo      30064e10 f   cg_players.obj
 0001:000659e8       $LN45                      300669e8     cg_popupmessages.obj
 0001:00065fb0       _CG_ClipMoveToEntities     30066fb0 f   cg_predict.obj
 0001:000661e0       _CG_ClipMoveToEntities_FT  300671e0 f   cg_predict.obj
 0001:000664c0       _CG_InterpolatePlayerState 300674c0 f   cg_predict.obj
 0001:00067930       _CG_TouchItem              30068930 f   cg_predict.obj
 0001:00067940       _CG_TouchTriggerPrediction 30068940 f   cg_predict.obj
 0001:00068050       _WM_DrawClientScore        30069050 f   cg_scoreboard.obj
 0001:00068820       _WM_DrawClientScore_Small  30069820 f   cg_scoreboard.obj
 0001:00069000       _WM_DrawInfoLine           3006a000 f   cg_scoreboard.obj
 0001:00069830       _WM_TeamScoreboard         3006a830 f   cg_scoreboard.obj
 0001:0006a910       _CG_ConfigStringModified   3006b910 f   cg_servercmds.obj
 0001:0006acf0       _CG_DynoCounter            3006bcf0 f   cg_servercmds.obj
 0001:0006aee0       _CG_ForceCvar              3006bee0 f   cg_servercmds.obj
 0001:0006b440       _CG_MapRestart             3006c440 f   cg_servercmds.obj
 0001:0006bc50       _CG_ParseFog               3006cc50 f   cg_servercmds.obj
 0001:0006bd90       _CG_ParseGlobalFog         3006cd90 f   cg_servercmds.obj
 0001:0006be70       _CG_ParseKR                3006ce70 f   cg_servercmds.obj
 0001:0006c0a0       _CG_ParsePR                3006d0a0 f   cg_servercmds.obj
 0001:0006c250       _CG_ParseScore             3006d250 f   cg_servercmds.obj
 0001:0006c3e0       _CG_ParseScreenFade        3006d3e0 f   cg_servercmds.obj
 0001:0006c950       _CG_ParseTeamInfo          3006d950 f   cg_servercmds.obj
 0001:0006ce00       _CG_ParseWarmup            3006de00 f   cg_servercmds.obj
 0001:0006d190       _CG_RemoveChatEscapeChar   3006e190 f   cg_servercmds.obj
 0001:0006d1c0       _CG_ServerCommand          3006e1c0 f   cg_servercmds.obj
 0001:0006fee0       _InitSkillLevelStructure   30070ee0 f   cg_servercmds.obj
 0001:00070004       $LN38                      30071004     cg_servercmds.obj
 0001:000706c0       _CG_ReadNextSnapshot       300716c0 f   cg_snapshot.obj
 0001:00070790       _CG_ResetEntity            30071790 f   cg_snapshot.obj
 0001:00070a80       _CG_SetNextSnap            30071a80 f   cg_snapshot.obj
 0001:00070bb0       _CG_TransitionEntity       30071bb0 f   cg_snapshot.obj
 0001:00070d60       _CG_TransitionSnapshot     30071d60 f   cg_snapshot.obj
 0001:00072d10       _CG_PlayScriptSpeaker      30073d10 f   cg_sound.obj
 0001:00072da0       _CG_RenderScriptSpeakers   30073da0 f   cg_sound.obj
 0001:000735b0       _CG_SoundLoadSoundFiles    300745b0 f   cg_sound.obj
 0001:000737e0       _CG_SoundParseSounds       300747e0 f   cg_sound.obj
 0001:000749c0       _generateHashValue         300759c0 f   cg_sound.obj
 0001:00078670       _CG_AddTestModel           30079670 f   cg_view.obj
 0001:00078830       _CG_CalcFov                30079830 f   cg_view.obj
 0001:000795d0       _CG_CalcVrect              3007a5d0 f   cg_view.obj
 0001:00079890       _CG_DamageBlendBlob        3007a890 f   cg_view.obj
 0001:0007a0ec       $LN66                      3007b0ec     cg_view.obj
 0001:0007a780       _CG_OffsetFirstPersonView  3007b780 f   cg_view.obj
 0001:0007b890       _CG_StepOffset             3007c890 f   cg_view.obj
 0001:0007bb10       _CG_UnderwaterSounds       3007cb10 f   cg_view.obj
 0001:0007bd00       _CG_ZoomSway               3007cd00 f   cg_view.obj
 0001:0007dcd4       $LN273                     3007ecd4     cg_weapons.obj
 0001:0007dce4       $LN274                     3007ece4     cg_weapons.obj
 0001:0007e878       $LN55                      3007f878     cg_weapons.obj
 0001:0007e890       _CG_AddWeaponWithPowerups  3007f890 f   cg_weapons.obj
 0001:000800f0       _CG_CalculateWeaponPosition 300810f0 f   cg_weapons.obj
 0001:00080618       $LN36                      30081618     cg_weapons.obj
 0001:00080624       $LN31                      30081624     cg_weapons.obj
 0001:00080690       _CG_ContinueWeaponAnim     30081690 f   cg_weapons.obj
 0001:00080d20       _CG_DynamiteTrail          30081d20 f   cg_weapons.obj
 0001:00081028       $LN39                      30082028     cg_weapons.obj
 0001:00081050       $LN34                      30082050     cg_weapons.obj
 0001:000814b0       _CG_FlamethrowerFlame      300824b0 f   cg_weapons.obj
 0001:000816b0       _CG_GrenadeTrail           300826b0 f   cg_weapons.obj
 0001:00082048       $LN21                      30083048     cg_weapons.obj
 0001:00082058       $LN17                      30083058     cg_weapons.obj
 0001:00083c2c       $LN165                     30084c2c     cg_weapons.obj
 0001:00083c48       $LN149                     30084c48     cg_weapons.obj
 0001:000841e0       $LN111                     300851e0     cg_weapons.obj
 0001:000841f8       $LN99                      300851f8     cg_weapons.obj
 0001:000844c4       $LN32                      300854c4     cg_weapons.obj
 0001:000844e0       $LN25                      300854e0     cg_weapons.obj
 0001:00084510       _CG_PanzerFaustEjectBrass  30085510 f   cg_weapons.obj
 0001:00084800       _CG_ParseWeaponConfig      30085800 f   cg_weapons.obj
 0001:00084b24       $LN13                      30085b24     cg_weapons.obj
 0001:00084b30       $LN11                      30085b30     cg_weapons.obj
 0001:00084df4       $LN104                     30085df4     cg_weapons.obj
 0001:00084e0c       $LN95                      30085e0c     cg_weapons.obj
 0001:00085310       _CG_RW_ParseClient         30086310 f   cg_weapons.obj
 0001:00085e20       _CG_RW_ParseError          30086e20 f   cg_weapons.obj
 0001:00085eb0       _CG_RW_ParseModModel       30086eb0 f   cg_weapons.obj
 0001:00085f70       _CG_RW_ParseViewType       30086f70 f   cg_weapons.obj
 0001:00086220       _CG_RW_ParseWeaponLink     30087220 f   cg_weapons.obj
 0001:00086340       _CG_RW_ParseWeaponLinkPart 30087340 f   cg_weapons.obj
 0001:00086b3c       $LN53                      30087b3c     cg_weapons.obj
 0001:00086c00       _CG_RegisterWeaponFromWeaponFile 30087c00 f   cg_weapons.obj
 0001:000871c0       _CG_RunWeapLerpFrame       300881c0 f   cg_weapons.obj
 0001:00087400       _CG_SetWeapLerpFrameAnimation 30088400 f   cg_weapons.obj
 0001:00087710       _CG_StartWeaponAnim        30088710 f   cg_weapons.obj
 0001:00087950       _CG_WeaponAnimation        30088950 f   cg_weapons.obj
 0001:00087cbc       $LN14                      30088cbc     cg_weapons.obj
 0001:00087cd0       $LN11                      30088cd0     cg_weapons.obj
 0001:00087d00       _CG_WeaponHasAmmo          30088d00 f   cg_weapons.obj
 0001:00087fc0       _getAltWeapon              30088fc0 f   cg_weapons.obj
 0001:00088058       $LN17                      30089058     cg_weapons.obj
 0001:00088084       $LN15                      30089084     cg_weapons.obj
 0001:000880b0       _getNextBankWeap           300890b0 f   cg_weapons.obj
 0001:00088100       _getNextWeapInBank         30089100 f   cg_weapons.obj
 0001:00088140       _getNextWeapInBankBynum    30089140 f   cg_weapons.obj
 0001:00088180       _getPrevBankWeap           30089180 f   cg_weapons.obj
 0001:00088200       _getPrevWeapInBank         30089200 f   cg_weapons.obj
 0001:00088250       _getPrevWeapInBankBynum    30089250 f   cg_weapons.obj
 0001:0008d650       _SkipWhitespace            3008e650 f   q_shared.obj
 0001:0008d750       _do_escape                 3008e750 f   q_shared.obj
 0001:00091e30       _Display_CloseCinematics   30092e30 f   ui_shared.obj
 0001:00092990       _Item_CacheContents        30093990 f   ui_shared.obj
 0001:00092db0       _Item_CorrectedTextRect    30093db0 f   ui_shared.obj
 0001:000930c4       $LN29                      300940c4     ui_shared.obj
 0001:000930e8       $LN26                      300940e8     ui_shared.obj
 0001:00095da8       $LN75                      30096da8     ui_shared.obj
 0001:00096e74       $LN15                      30097e74     ui_shared.obj
 0001:00096e80       $LN11                      30097e80     ui_shared.obj
 0001:000986c0       _Menu_CacheContents        300996c0 f   ui_shared.obj
 0001:000987c0       _Menu_CloseCinematics      300997c0 f   ui_shared.obj
 0001:0009906c       $LN91                      3009a06c     ui_shared.obj
 0001:00099090       $LN74                      3009a090     ui_shared.obj
 0001:00099620       _Menu_OverActiveItem       3009a620 f   ui_shared.obj
 0001:00099c50       _Menu_RunCloseScript       3009ac50 f   ui_shared.obj
 0001:0009abe0       _Scroll_ListBox_AutoFunc   3009bbe0 f   ui_shared.obj
 0001:0009ac50       _Scroll_ListBox_ThumbFunc  3009bc50 f   ui_shared.obj
 0001:0009ae90       _Scroll_Slider_ThumbFunc   3009be90 f   ui_shared.obj
 0001:0009b490       _Window_CacheContents      3009c490 f   ui_shared.obj
 0001:0009b4f0       _Window_CloseCinematic     3009c4f0 f   ui_shared.obj
 0001:0009ba10       _hashForString             3009ca10 f   ui_shared.obj
 0001:0009c1f0       _easy_connection           3009d1f0 f   libcurl:easy.obj
 0001:0009c260       _win32_cleanup             3009d260 f   libcurl:easy.obj
 0001:0009c270       _win32_init                3009d270 f   libcurl:easy.obj
 0001:0009c3c0       _slist_get_last            3009d3c0 f   libcurl:slist.obj
 0001:0009ce30       $LN262                     3009de30     libcurl:cookie.obj
 0001:0009d430       _cookie_output             3009e430 f   libcurl:cookie.obj
 0001:0009d520       _cookie_sort               3009e520 f   libcurl:cookie.obj
 0001:0009d570       _freecookie                3009e570 f   libcurl:cookie.obj
 0001:0009d600       _get_netscape_format       3009e600 f   libcurl:cookie.obj
 0001:0009d6a0       _strstore                  3009e6a0 f   libcurl:cookie.obj
 0001:0009d6d0       _tailmatch                 3009e6d0 f   libcurl:cookie.obj
 0001:0009db90       _hash_element_dtor         3009eb90 f   libcurl:hash.obj
 0001:0009dbe0       _mk_hash_element           3009ebe0 f   libcurl:hash.obj
 0001:0009df80       _conn_thread_sync_data     3009ef80 f   libcurl:asyn-thread.obj
 0001:0009dfa0       _destroy_async_data        3009efa0 f   libcurl:asyn-thread.obj
 0001:0009e000       _destroy_thread_sync_data  3009f000 f   libcurl:asyn-thread.obj
 0001:0009e050       _getaddrinfo_complete      3009f050 f   libcurl:asyn-thread.obj
 0001:0009e080       _getaddrinfo_thread@4      3009f080 f   libcurl:asyn-thread.obj
 0001:0009e110       _init_resolve_thread       3009f110 f   libcurl:asyn-thread.obj
 0001:0009e200       _init_thread_sync_data     3009f200 f   libcurl:asyn-thread.obj
 0001:0009e260       _resolver_error            3009f260 f   libcurl:asyn-thread.obj
 0001:0009e8f0       _create_hostcache_id       3009f8f0 f   libcurl:hostip.obj
 0001:0009e940       _freednsentry              3009f940 f   libcurl:hostip.obj
 0001:0009e970       _hostcache_inuse           3009f970 f   libcurl:hostip.obj
 0001:0009e990       _hostcache_prune           3009f990 f   libcurl:hostip.obj
 0001:0009e9e0       _hostcache_timestamp_remove 3009f9e0 f   libcurl:hostip.obj
 0001:0009ea20       _remove_entry_if_stale     3009fa20 f   libcurl:hostip.obj
 0001:0009eab0       _Curl_do_perform           3009fab0 f   libcurl:transfer.obj
 0001:0009fb20       _Transfer                  300a0b20 f   libcurl:transfer.obj
 0001:0009fdd0       _concat_url                300a0dd0 f   libcurl:transfer.obj
 0001:0009ff80       _connect_host              300a0f80 f   libcurl:transfer.obj
 0001:000a0000       _data_pending              300a1000 f   libcurl:transfer.obj
 0001:000a0020       _is_absolute_url           300a1020 f   libcurl:transfer.obj
 0001:000a0070       _read_rewind               300a1070 f   libcurl:transfer.obj
 0001:000a0090       _readwrite_data            300a1090 f   libcurl:transfer.obj
 0001:000a0730       _readwrite_upload          300a1730 f   libcurl:transfer.obj
 0001:000a0a00       _strcpy_url                300a1a00 f   libcurl:transfer.obj
 0001:000a0a50       _strlen_url                300a1a50 f   libcurl:transfer.obj
 0001:000a0aa0       _ConnectPlease             300a1aa0 f   libcurl:url.obj
 0001:000a0b50       _ConnectionDone            300a1b50 f   libcurl:url.obj
 0001:000a0b60       _ConnectionExists          300a1b60 f   libcurl:url.obj
 0001:000a0fe0       _ConnectionKillOne         300a1fe0 f   libcurl:url.obj
 0001:000a10a0       _ConnectionStore           300a20a0 f   libcurl:url.obj
 0001:000a1590       $LN12                      300a2590     libcurl:url.obj
 0001:000a3b78       $LN314                     300a4b78     libcurl:url.obj
 0001:000a3ccc       $LN300                     300a4ccc     libcurl:url.obj
 0001:000a3da4       $LN315                     300a4da4     libcurl:url.obj
 0001:000a3dd0       $LN316                     300a4dd0     libcurl:url.obj
 0001:000a3eec       $LN302                     300a4eec     libcurl:url.obj
 0001:000a3fc4       $LN317                     300a4fc4     libcurl:url.obj
 0001:000a4008       $LN304                     300a5008     libcurl:url.obj
 0001:000a40d0       $LN318                     300a50d0     libcurl:url.obj
 0001:000a40e8       $LN305                     300a50e8     libcurl:url.obj
 0001:000a42f0       _IsPipeliningPossible      300a52f0 f   libcurl:url.obj
 0001:000a4340       _SocketIsDead              300a5340 f   libcurl:url.obj
 0001:000a4360       _allocate_conn             300a5360 f   libcurl:url.obj
 0001:000a4620       _check_noproxy             300a5620 f   libcurl:url.obj
 0001:000a4760       _close_connections         300a5760 f   libcurl:url.obj
 0001:000a4780       _conn_free                 300a5780 f   libcurl:url.obj
 0001:000a4a70       _create_conn               300a5a70 f   libcurl:url.obj
 0001:000a4fc0       _detect_proxy              300a5fc0 f   libcurl:url.obj
 0001:000a5100       _do_complete               300a6100 f   libcurl:url.obj
 0001:000a5140       _do_init                   300a6140 f   libcurl:url.obj
 0001:000a5210       _findprotocol              300a6210 f   libcurl:url.obj
 0001:000a52a0       _fix_hostname              300a62a0 f   libcurl:url.obj
 0001:000a52d0       _gethandleathead           300a62d0 f   libcurl:url.obj
 0001:000a52f0       _is_ASCII_name             300a62f0 f   libcurl:url.obj
 0001:000a5320       _llist_dtor                300a6320 f   libcurl:url.obj
 0001:000a5330       _override_userpass         300a6330 f   libcurl:url.obj
 0001:000a53f0       _parse_proxy               300a63f0 f   libcurl:url.obj
 0001:000a56a0       _parse_proxy_auth          300a66a0 f   libcurl:url.obj
 0001:000a57a0       _parse_remote_port         300a67a0 f   libcurl:url.obj
 0001:000a59f0       _parse_url_userpass        300a69f0 f   libcurl:url.obj
 0001:000a5b30       _parseurlandfillconn       300a6b30 f   libcurl:url.obj
 0001:000a5f10       _resolve_server            300a6f10 f   libcurl:url.obj
 0001:000a6060       _reuse_conn                300a7060 f   libcurl:url.obj
 0001:000a62d0       _set_userpass              300a72d0 f   libcurl:url.obj
 0001:000a6360       _setstropt                 300a7360 f   libcurl:url.obj
 0001:000a63b0       _setstropt_userpwd         300a73b0 f   libcurl:url.obj
 0001:000a6480       _setup_connection_internals 300a7480 f   libcurl:url.obj
 0001:000a64e0       _setup_range               300a74e0 f   libcurl:url.obj
 0001:000a65a0       _signalPipeClose           300a75a0 f   libcurl:url.obj
 0001:000a6750       _getinfo_char              300a7750 f   libcurl:getinfo.obj
 0001:000a6814       $LN18                      300a7814     libcurl:getinfo.obj
 0001:000a6838       $LN16                      300a7838     libcurl:getinfo.obj
 0001:000a6870       _getinfo_double            300a7870 f   libcurl:getinfo.obj
 0001:000a6a14       $LN25                      300a7a14     libcurl:getinfo.obj
 0001:000a6a4c       $LN23                      300a7a4c     libcurl:getinfo.obj
 0001:000a6a70       _getinfo_long              300a7a70 f   libcurl:getinfo.obj
 0001:000a6bec       $LN29                      300a7bec     libcurl:getinfo.obj
 0001:000a6c38       $LN26                      300a7c38     libcurl:getinfo.obj
 0001:000a6c70       _getinfo_slist             300a7c70 f   libcurl:getinfo.obj
 0001:000a6ef8       $LN16                      300a7ef8     libcurl:sendf.obj
 0001:000a7420       _pausewrite                300a8420 f   libcurl:sendf.obj
 0001:000a7480       _showit                    300a8480 f   libcurl:sendf.obj
 0001:000a7d70       _bindlocal                 300a8d70 f   libcurl:connect.obj
 0001:000a81e0       _getaddressinfo            300a91e0 f   libcurl:connect.obj
 0001:000a8240       _singleipconnect           300a9240 f   libcurl:connect.obj
 0001:000a85d0       _tcpkeepalive              300a95d0 f   libcurl:connect.obj
 0001:000a8680       _tcpnodelay                300a9680 f   libcurl:connect.obj
 0001:000a86e0       _trynextip                 300a96e0 f   libcurl:connect.obj
 0001:000a8770       _verifyconnect             300a9770 f   libcurl:connect.obj
 0001:000a87e0       _waitconnect               300a97e0 f   libcurl:connect.obj
 0001:000a89b0       _checkday                  300a99b0 f   libcurl:parsedate.obj
 0001:000a8a20       _checkmonth                300a9a20 f   libcurl:parsedate.obj
 0001:000a8a80       _checktz                   300a9a80 f   libcurl:parsedate.obj
 0001:000a8af0       _my_timegm                 300a9af0 f   libcurl:parsedate.obj
 0001:000a8c20       _parsedate                 300a9c20 f   libcurl:parsedate.obj
 0001:000a9070       _skip                      300aa070 f   libcurl:parsedate.obj
 0001:000a90b0       _addbyter                  300aa0b0 f   libcurl:mprintf.obj
 0001:000a90e0       _alloc_addbyter            300aa0e0 f   libcurl:mprintf.obj
 0001:000a9410       _dprintf_DollarString      300aa410 f   libcurl:mprintf.obj
 0001:000a9470       _dprintf_IsQualifierNoDollar 300aa470 f   libcurl:mprintf.obj
 0001:000a9498       $LN9                       300aa498     libcurl:mprintf.obj
 0001:000a94a0       $LN7                       300aa4a0     libcurl:mprintf.obj
 0001:000a9500       _dprintf_Pass1             300aa500 f   libcurl:mprintf.obj
 0001:000a99e4       $LN98                      300aa9e4     libcurl:mprintf.obj
 0001:000a9a1c       $LN92                      300aaa1c     libcurl:mprintf.obj
 0001:000a9a78       $LN99                      300aaa78     libcurl:mprintf.obj
 0001:000a9ab8       $LN93                      300aaab8     libcurl:mprintf.obj
 0001:000a9aec       $LN100                     300aaaec     libcurl:mprintf.obj
 0001:000a9b20       _dprintf_formatf           300aab20 f   libcurl:mprintf.obj
 0001:000aa658       $LN349                     300ab658     libcurl:mprintf.obj
 0001:000aa6c0       _storebuffer               300ab6c0 f   libcurl:mprintf.obj
 0001:000aa9b0       $LN34                      300ab9b0     libcurl:share.obj
 0001:000aa9c4       $LN35                      300ab9c4     libcurl:share.obj
 0001:000aa9d4       $LN36                      300ab9d4     libcurl:share.obj
 0001:000aab74       $LN32                      300abb74     libcurl:rawstr.obj
 0001:000aaea0       _llist_init                300abea0 f   libcurl:llist.obj
 0001:000ab7c8       $LN86                      300ac7c8     libcurl:strerror.obj
 0001:000ab984       $LN15                      300ac984     libcurl:strerror.obj
 0001:000ab9f4       $LN13                      300ac9f4     libcurl:strerror.obj
 0001:000aba10       _get_winsock_error         300aca10 f   libcurl:strerror.obj
 0001:000abc3c       $LN59                      300acc3c     libcurl:strerror.obj
 0001:000abcf8       $LN57                      300accf8     libcurl:strerror.obj
 0001:000abf20       _addHandleToSendOrPendPipeline 300acf20 f   libcurl:multi.obj
 0001:000abfb0       _add_closure               300acfb0 f   libcurl:multi.obj
 0001:000ac0c0       _add_next_timeout          300ad0c0 f   libcurl:multi.obj
 0001:000ac170       _checkPendPipeline         300ad170 f   libcurl:multi.obj
 0001:000acef0       _domore_getsock            300adef0 f   libcurl:multi.obj
 0001:000acf20       _fd_key_compare            300adf20 f   libcurl:multi.obj
 0001:000acf40       _hash_fd                   300adf40 f   libcurl:multi.obj
 0001:000acf50       _isHandleAtHead            300adf50 f   libcurl:multi.obj
 0001:000acf70       _moveHandleFromRecvToDonePipeline 300adf70 f   libcurl:multi.obj
 0001:000acfb0       _moveHandleFromSendToRecvPipeline 300adfb0 f   libcurl:multi.obj
 0001:000ad010       _multi_addmsg              300ae010 f   libcurl:multi.obj
 0001:000ad040       _multi_addtimeout          300ae040 f   libcurl:multi.obj
 0001:000ad0d0       _multi_connc_remove_handle 300ae0d0 f   libcurl:multi.obj
 0001:000ad180       _multi_freeamsg            300ae180 f   libcurl:multi.obj
 0001:000ad190       _multi_freetimeout         300ae190 f   libcurl:multi.obj
 0001:000ad1b0       _multi_getsock             300ae1b0 f   libcurl:multi.obj
 0001:000ad280       $LN16                      300ae280     libcurl:multi.obj
 0001:000ad2b0       _multi_runsingle           300ae2b0 f   libcurl:multi.obj
 0001:000adf00       $LN173                     300aef00     libcurl:multi.obj
 0001:000adf50       _multi_socket              300aef50 f   libcurl:multi.obj
 0001:000ae160       _multi_timeout             300af160 f   libcurl:multi.obj
 0001:000ae200       _multistate                300af200 f   libcurl:multi.obj
 0001:000ae230       _sh_addentry               300af230 f   libcurl:multi.obj
 0001:000ae2a0       _sh_delentry               300af2a0 f   libcurl:multi.obj
 0001:000ae2d0       _sh_freeentry              300af2d0 f   libcurl:multi.obj
 0001:000ae2f0       _sh_init                   300af2f0 f   libcurl:multi.obj
 0001:000ae310       _singlesocket              300af310 f   libcurl:multi.obj
 0001:000ae5b0       _update_timer              300af5b0 f   libcurl:multi.obj
 0001:000ae650       _waitconnect_getsock       300af650 f   libcurl:multi.obj
 0001:000ae6b0       _inet_pton4                300af6b0 f   libcurl:inet_pton.obj
 0001:000ae8e0       _inet_ntop4                300af8e0 f   libcurl:inet_ntop.obj
 0001:000aed0c       $LN78                      300afd0c     libcurl:http_chunks.obj
 0001:000aed40       _Curl_isxdigit             300afd40 f   libcurl:http_chunks.obj
 0001:000aed70       _http_getsock_do           300afd70 f   libcurl:http.obj
 0001:000b036c       $LN319                     300b136c     libcurl:http.obj
 0001:000b1e20       _checkhttpprefix           300b2e20 f   libcurl:http.obj
 0001:000b1e90       _checkprotoprefix          300b2e90 f   libcurl:http.obj
 0001:000b1eb0       _copy_header_value         300b2eb0 f   libcurl:http.obj
 0001:000b1f80       _expect100                 300b2f80 f   libcurl:http.obj
 0001:000b2000       _header_append             300b3000 f   libcurl:http.obj
 0001:000b20d0       _http_output_basic         300b30d0 f   libcurl:http.obj
 0001:000b21d0       _http_perhapsrewind        300b31d0 f   libcurl:http.obj
 0001:000b2390       _http_should_fail          300b3390 f   libcurl:http.obj
 0001:000b2410       _output_auth_headers       300b3410 f   libcurl:http.obj
 0001:000b2520       _pickoneauth               300b3520 f   libcurl:http.obj
 0001:000b25b0       _print_http_error          300b35b0 f   libcurl:http.obj
 0001:000b2650       _readmoredata              300b3650 f   libcurl:http.obj
 0001:000b2730       _use_http_1_1              300b3730 f   libcurl:http.obj
 0001:000b2c04       $LN18                      300b3c04     libcurl:progress.obj
 0001:000b3420       _max5data                  300b4420 f   libcurl:progress.obj
 0001:000b3610       _time2str                  300b4610 f   libcurl:progress.obj
 0001:000b3e60       _GetEnv                    300b4e60 f   libcurl:getenv.obj
 0001:000b3ef0       _Curl_isunreserved         300b4ef0 f   libcurl:escape.obj
 0001:000b3f18       $LN9                       300b4f18     libcurl:escape.obj
 0001:000b3f20       $LN7                       300b4f20     libcurl:escape.obj
 0001:000b4770       _safe_strequal             300b5770 f   libcurl:sslgen.obj
 0001:000b5150       _digest_cleanup_one        300b6150 f   libcurl:http_digest.obj
 0001:000b5200       _get_pair                  300b6200 f   libcurl:http_digest.obj
 0001:000b52d4       $LN32                      300b62d4     libcurl:http_digest.obj
 0001:000b52e8       $LN28                      300b62e8     libcurl:http_digest.obj
 0001:000b5340       _md5_to_ascii              300b6340 f   libcurl:http_digest.obj
 0001:000b5954       $LN50                      300b6954     libcurl:socks.obj
 0001:000b7030       _AddFormData               300b8030 f   libcurl:formdata.obj
 0001:000b7160       _AddFormDataf              300b8160 f   libcurl:formdata.obj
 0001:000b71c0       _AddFormInfo               300b81c0 f   libcurl:formdata.obj
 0001:000b7210       _AddHttpPost               300b8210 f   libcurl:formdata.obj
 0001:000b72c0       _ContentTypeForFilename    300b82c0 f   libcurl:formdata.obj
 0001:000b7500       _Curl_basename             300b8500 f   libcurl:formdata.obj
 0001:000b7bb0       _FormAdd                   300b8bb0 f   libcurl:formdata.obj
 0001:000b829c       $LN304                     300b929c     libcurl:formdata.obj
 0001:000b84f0       _memdup                    300b94f0 f   libcurl:formdata.obj
 0001:000b8570       _readfromfile              300b9570 f   libcurl:formdata.obj
 0001:000b8600       _strippath                 300b9600 f   libcurl:formdata.obj
 0001:000b88c0       _decodeQuantum             300b98c0 f   libcurl:base64.obj
 0001:000b89a0       _MD5_Init                  300b99a0 f   libcurl:md5.obj
 0001:000b89e0       _MD5_Update                300b99e0 f   libcurl:md5.obj
 0001:000b8a00       _MD5_Final                 300b9a00 f   libcurl:md5.obj
 0001:000b8fd0       $$000000                   300b9fd0     MSVCRT:ftol2.obj
 0001:000b9090       $$000000                   300ba090     MSVCRT:chkstk.obj
 0001:000b90bd       ?dllmain_crt_dispatch@@YGHQAUHINSTANCE__@@KQAX@Z 300ba0bd f   MSVCRT:dll_dllmain.obj
 0001:000b9110       ?dllmain_crt_process_attach@@YAHQAUHINSTANCE__@@QAX@Z 300ba110 f   MSVCRT:dll_dllmain.obj
 0001:000b921a       ?dllmain_crt_process_detach@@YAH_N@Z 300ba21a f   MSVCRT:dll_dllmain.obj
 0001:000b92ac       ?dllmain_dispatch@@YAHQAUHINSTANCE__@@KQAX@Z 300ba2ac f   MSVCRT:dll_dllmain.obj
 0001:000b93b2       ?dllmain_raw@@YGHQAUHINSTANCE__@@KQAX@Z 300ba3b2 f   MSVCRT:dll_dllmain.obj
 0001:000b9410       $$000000                   300ba410     MSVCRT:lldiv.obj
 0001:000b94c0       $$000000                   300ba4c0     MSVCRT:ftol3.obj
 0001:000b9840       $$000000                   300ba840     MSVCRT:llmul.obj
 0001:000b9880       $$000000                   300ba880     MSVCRT:ulldvrm.obj
 0001:000b9920       $$000000                   300ba920     MSVCRT:llrem.obj
 0001:000b9b69       ___get_entropy             300bab69 f   MSVCRT:gs_support.obj
 0001:000b9ca3       ?find_pe_section@@YAPAU_IMAGE_SECTION_HEADER@@QAEI@Z 300baca3 f   MSVCRT:utility.obj
 0001:000b9cec       ?is_potentially_valid_image_base@@YA_NQAX@Z 300bacec f   MSVCRT:utility.obj
 0001:000ba2b0       $$000000                   300bb2b0     MSVCRT:sehprolg4.obj
 0002:000054e0       _aWeapID                   300c14e0     bg_stats.obj
 0002:00012a30       ?hex@?1??CG_PBCompatibleMD5@@9@9 300cea30     cg_uid.obj
 0002:00015940       _protocols                 300d1940     libcurl:url.obj
 0002:00015948       _Curl_handler_dummy        300d1948     libcurl:url.obj
 0002:00015eb8       ?s_infotype@?1??showit@@9@9 300d1eb8     libcurl:sendf.obj
 0002:00016304       _weekday                   300d2304     libcurl:parsedate.obj
 0002:00016320       _tz                        300d2320     libcurl:parsedate.obj
 0002:00016650       ?month_days_cumulative@?1??my_timegm@@9@9 300d2650     libcurl:parsedate.obj
 0002:00016738       _lower_digits              300d2738     libcurl:mprintf.obj
 0002:00016760       _upper_digits              300d2760     libcurl:mprintf.obj
 0002:00016788       ?null@?CD@??dprintf_formatf@@9@9 300d2788     libcurl:mprintf.obj
 0002:00016790       ?strnil@?CO@??dprintf_formatf@@9@9 300d2790     libcurl:mprintf.obj
 0002:000178fc       ?none@?3??update_timer@@9@9 300d38fc     libcurl:multi.obj
 0002:0001797c       ?digits@?1??inet_pton4@@9@9 300d397c     libcurl:inet_pton.obj
 0002:00019108       ?ctts@?1??ContentTypeForFilename@@9@9 300d5108     libcurl:formdata.obj
 0002:00019150       ?table16@?1??Curl_FormBoundary@@9@9 300d5150     libcurl:formdata.obj
 0002:00019320       _table64                   300d5320     libcurl:base64.obj
 0002:000193ac       _GS_ExceptionPointers      300d53ac     MSVCRT:gs_report.obj
 0002:000193c0       _Int32ToUInt32             300d53c0     MSVCRT:ftol3.obj
 0002:000193c8       _DP2to32                   300d53c8     MSVCRT:ftol3.obj
 0002:000193d0       _MantissaMask              300d53d0     MSVCRT:ftol3.obj
 0002:000193d8       _IntegerBit                300d53d8     MSVCRT:ftol3.obj
 0002:000193e0       _SignBit64                 300d53e0     MSVCRT:ftol3.obj
 0002:000193e8       _MinFP64                   300d53e8     MSVCRT:ftol3.obj
 0002:000193f0       _MinInt64                  300d53f0     MSVCRT:ftol3.obj
 0002:000193f8       _MaxInt64                  300d53f8     MSVCRT:ftol3.obj
 0002:00019400       _MaxUInt64                 300d5400     MSVCRT:ftol3.obj
 0002:00019408       _MaxFP32                   300d5408     MSVCRT:ftol3.obj
 0002:00019410       _MinFP32                   300d5410     MSVCRT:ftol3.obj
 0002:00019418       _MinSubInexact             300d5418     MSVCRT:ftol3.obj
 0002:00019420       _FpExcptTable              300d5420     MSVCRT:ftol3.obj
 0002:00019430       _i1075                     300d5430     MSVCRT:ftol3.obj
 0002:00019434       _i1087                     300d5434     MSVCRT:ftol3.obj
 0002:00019438       _x0800                     300d5438     MSVCRT:ftol3.obj
 0002:0001943c       _x17FF                     300d543c     MSVCRT:ftol3.obj
 0002:00019440       _CWMask                    300d5440     MSVCRT:ftol3.obj
 0002:00019808       __sehtable$?dllmain_crt_process_attach@@YAHQAUHINSTANCE__@@QAX@Z 300d5808     MSVCRT:dll_dllmain.obj
 0002:00019828       __sehtable$?dllmain_crt_process_detach@@YAH_N@Z 300d5828     MSVCRT:dll_dllmain.obj
 0002:00019848       __sehtable$?dllmain_dispatch@@YAHQAUHINSTANCE__@@KQAX@Z 300d5848     MSVCRT:dll_dllmain.obj
 0002:00019868       __sehtable$___scrt_is_nonwritable_in_current_image 300d5868     MSVCRT:utility.obj
 0002:00019890       .edata                     300d5890     cgame_mp_x86.exp
 0002:000198b8       rgpv                       300d58b8     cgame_mp_x86.exp
 0002:000199a4       rgszName                   300d59a4     cgame_mp_x86.exp
 0002:00019a90       rgwOrd                     300d5a90     cgame_mp_x86.exp
 0002:00019b06       szName                     300d5b06     cgame_mp_x86.exp
 0002:00019b17       $N00001                    300d5b17     cgame_mp_x86.exp
 0002:00019b29       $N00002                    300d5b29     cgame_mp_x86.exp
 0002:00019b3d       $N00003                    300d5b3d     cgame_mp_x86.exp
 0002:00019b4e       $N00004                    300d5b4e     cgame_mp_x86.exp
 0002:00019b60       $N00005                    300d5b60     cgame_mp_x86.exp
 0002:00019b6f       $N00006                    300d5b6f     cgame_mp_x86.exp
 0002:00019b7f       $N00007                    300d5b7f     cgame_mp_x86.exp
 0002:00019b91       $N00008                    300d5b91     cgame_mp_x86.exp
 0002:00019ba0       $N00009                    300d5ba0     cgame_mp_x86.exp
 0002:00019bb0       $N00010                    300d5bb0     cgame_mp_x86.exp
 0002:00019bbf       $N00011                    300d5bbf     cgame_mp_x86.exp
 0002:00019bd0       $N00012                    300d5bd0     cgame_mp_x86.exp
 0002:00019be3       $N00013                    300d5be3     cgame_mp_x86.exp
 0002:00019bf6       $N00014                    300d5bf6     cgame_mp_x86.exp
 0002:00019c02       $N00015                    300d5c02     cgame_mp_x86.exp
 0002:00019c0f       $N00016                    300d5c0f     cgame_mp_x86.exp
 0002:00019c1d       $N00017                    300d5c1d     cgame_mp_x86.exp
 0002:00019c2a       $N00018                    300d5c2a     cgame_mp_x86.exp
 0002:00019c34       $N00019                    300d5c34     cgame_mp_x86.exp
 0002:00019c41       $N00020                    300d5c41     cgame_mp_x86.exp
 0002:00019c4d       $N00021                    300d5c4d     cgame_mp_x86.exp
 0002:00019c61       $N00022                    300d5c61     cgame_mp_x86.exp
 0002:00019c72       $N00023                    300d5c72     cgame_mp_x86.exp
 0002:00019c87       $N00024                    300d5c87     cgame_mp_x86.exp
 0002:00019c95       $N00025                    300d5c95     cgame_mp_x86.exp
 0002:00019ca3       $N00026                    300d5ca3     cgame_mp_x86.exp
 0002:00019cb0       $N00027                    300d5cb0     cgame_mp_x86.exp
 0002:00019cbf       $N00028                    300d5cbf     cgame_mp_x86.exp
 0002:00019ccd       $N00029                    300d5ccd     cgame_mp_x86.exp
 0002:00019ce3       $N00030                    300d5ce3     cgame_mp_x86.exp
 0002:00019cf5       $N00031                    300d5cf5     cgame_mp_x86.exp
 0002:00019d08       $N00032                    300d5d08     cgame_mp_x86.exp
 0002:00019d19       $N00033                    300d5d19     cgame_mp_x86.exp
 0002:00019d2e       $N00034                    300d5d2e     cgame_mp_x86.exp
 0002:00019d3e       $N00035                    300d5d3e     cgame_mp_x86.exp
 0002:00019d51       $N00036                    300d5d51     cgame_mp_x86.exp
 0002:00019d6a       $N00037                    300d5d6a     cgame_mp_x86.exp
 0002:00019d7c       $N00038                    300d5d7c     cgame_mp_x86.exp
 0002:00019d8e       $N00039                    300d5d8e     cgame_mp_x86.exp
 0002:00019da7       $N00040                    300d5da7     cgame_mp_x86.exp
 0002:00019dbd       $N00041                    300d5dbd     cgame_mp_x86.exp
 0002:00019dd1       $N00042                    300d5dd1     cgame_mp_x86.exp
 0002:00019de4       $N00043                    300d5de4     cgame_mp_x86.exp
 0002:00019df4       $N00044                    300d5df4     cgame_mp_x86.exp
 0002:00019e03       $N00045                    300d5e03     cgame_mp_x86.exp
 0002:00019e12       $N00046                    300d5e12     cgame_mp_x86.exp
 0002:00019e20       $N00047                    300d5e20     cgame_mp_x86.exp
 0002:00019e30       $N00048                    300d5e30     cgame_mp_x86.exp
 0002:00019e3f       $N00049                    300d5e3f     cgame_mp_x86.exp
 0002:00019e52       $N00050                    300d5e52     cgame_mp_x86.exp
 0002:00019e62       $N00051                    300d5e62     cgame_mp_x86.exp
 0002:00019e74       $N00052                    300d5e74     cgame_mp_x86.exp
 0002:00019e88       $N00053                    300d5e88     cgame_mp_x86.exp
 0002:00019e9a       $N00054                    300d5e9a     cgame_mp_x86.exp
 0002:00019eae       $N00055                    300d5eae     cgame_mp_x86.exp
 0002:00019ebc       $N00056                    300d5ebc     cgame_mp_x86.exp
 0002:00019ecb       $N00057                    300d5ecb     cgame_mp_x86.exp
 0002:00019ed9       $N00058                    300d5ed9     cgame_mp_x86.exp
 0002:00019ee2       $N00059                    300d5ee2     cgame_mp_x86.exp
 0002:0001a2ea       .idata$6                   300d62ea     iphlpapi:IPHLPAPI.DLL
 0002:0001a316       .idata$6                   300d6316     ws2_32:WS2_32.dll
 0002:0001a53c       .idata$6                   300d653c     kernel32:KERNEL32.dll
 0002:0001a556       .idata$6                   300d6556     user32:USER32.dll
 0002:0001a5da       .idata$6                   300d65da     advapi32:ADVAPI32.dll
 0002:0001a668       .idata$6                   300d6668     vcruntime:VCRUNTIME140.dll
 0002:0001aa32       .idata$6                   300d6a32     ucrt:api-ms-win-crt-utility-l1-1-0.dll
 0002:0001aa54       .idata$6                   300d6a54     ucrt:api-ms-win-crt-convert-l1-1-0.dll
 0002:0001aa76       .idata$6                   300d6a76     ucrt:api-ms-win-crt-string-l1-1-0.dll
 0002:0001aa98       .idata$6                   300d6a98     ucrt:api-ms-win-crt-stdio-l1-1-0.dll
 0002:0001aab8       .idata$6                   300d6ab8     ucrt:api-ms-win-crt-math-l1-1-0.dll
 0002:0001aad8       .idata$6                   300d6ad8     ucrt:api-ms-win-crt-heap-l1-1-0.dll
 0002:0001aaf8       .idata$6                   300d6af8     ucrt:api-ms-win-crt-filesystem-l1-1-0.dll
 0002:0001ab1e       .idata$6                   300d6b1e     ucrt:api-ms-win-crt-environment-l1-1-0.dll
 0002:0001ab44       .idata$6                   300d6b44     ucrt:api-ms-win-crt-time-l1-1-0.dll
 0002:0001ab64       .idata$6                   300d6b64     ucrt:api-ms-win-crt-runtime-l1-1-0.dll
 0003:00000050       _animMoveTypesStr          300d7050     bg_animation.obj
 0003:00000108       _animConditionPositionsStr 300d7108     bg_animation.obj
 0003:00000138       _animConditionMountedStr   300d7138     bg_animation.obj
 0003:00000150       _animConditionLeaningStr   300d7150     bg_animation.obj
 0003:00000170       _animConditionImpactPointsStr 300d7170     bg_animation.obj
 0003:000001c0       _animEnemyTeamsStr         300d71c0     bg_animation.obj
 0003:00000200       _animHealthLevelStr        300d7200     bg_animation.obj
 0003:00000218       _animFlailTypeStr          300d7218     bg_animation.obj
 0003:00000240       _animGenBitFlagStr         300d7240     bg_animation.obj
 0003:00000248       _animAIStateStr            300d7248     bg_animation.obj
 0003:00000268       _animEventTypesStr         300d7268     bg_animation.obj
 0003:00000390       _animConditionsStr         300d7390     bg_animation.obj
 0003:00000440       _animConditionsTable       300d7440     bg_animation.obj
 0003:000004e8       _animParseModesStr         300d74e8     bg_animation.obj
 0003:00002e48       _MD5_PADDING               300d9e48     md5.obj
 0003:00002e88       _cg_accessories            300d9e88     cg_character.obj
 0003:00002eb8       _cg_numAccessories         300d9eb8     cg_character.obj
 0003:00002ebc       _cg_headAccessories        300d9ebc     cg_character.obj
 0003:00002edc       _cg_numHeadAccessories     300d9edc     cg_character.obj
 0003:00002f18       _commands                  300d9f18     cg_consolecmds.obj
 0003:00005720       ?red@?1??CG_TeamColor@@9@9 300dc720     cg_drawtools.obj
 0003:00005730       ?blue@?1??CG_TeamColor@@9@9 300dc730     cg_drawtools.obj
 0003:00005740       ?other@?1??CG_TeamColor@@9@9 300dc740     cg_drawtools.obj
 0003:00005750       ?spectator@?1??CG_TeamColor@@9@9 300dc750     cg_drawtools.obj
 0003:00005760       _propMap                   300dc760     cg_drawtools.obj
 0003:00005d60       _propMapB                  300dcd60     cg_drawtools.obj
 0003:0000609c       ?seed@?1??CG_SmokePuff@@9@9 300dd09c     cg_effects.obj
 0003:00006140       _multi_flagpoleAnims       300dd140     cg_ents.obj
 0003:00006530       _fxSounds                  300dd530     cg_event.obj
 0003:00006a18       _initFlameShaders          300dda18     cg_flamethrower.obj
 0003:00006a1c       _lastFlameOwner            300dda1c     cg_flamethrower.obj
 0003:00006a20       ?whiteColor@?1??CG_AddFlameToScene@@9@9 300dda20     cg_flamethrower.obj
 0003:00008e10       ?col@?1??CG_BloodTrail@@9@9 300dfe10     cg_localents.obj
 0003:00008e1c       ?whiteColor@?1??CG_AddFuseSparkElements@@9@9 300dfe1c     cg_localents.obj
 0003:00009d68       ?sb_nums@?1??CG_RegisterGraphics@@9@9 300e0d68     cg_main.obj
 0003:00009dc0       _shaderAnimNames           300e0dc0     cg_particles.obj
 0003:00009de0       _shaderAnimCounts          300e0de0     cg_particles.obj
 0003:00009e00       _shaderAnimSTRatio         300e0e00     cg_particles.obj
 0003:0000a5f8       _s_lt_string               300e15f8     cg_sound.obj
 0003:0000a604       _s_bt_string               300e1604     cg_sound.obj
 0003:0000a610       _speakerInfoButtons        300e1610     cg_sound.obj
 0003:0000a618       _speakerEditorButtons      300e1618     cg_sound.obj
 0003:0000a800       _syscall                   300e1800     cg_syscalls.obj
 0003:0000a834       ?mins@?1??CG_OffsetThirdPersonView@@9@9 300e1834     cg_view.obj
 0003:0000a840       ?maxs@?1??CG_OffsetThirdPersonView@@9@9 300e1840     cg_view.obj
 0003:0000a84c       ?lastfov@?1??CG_CalcFov@@9@9 300e184c     cg_view.obj
 0003:0000a850       ?lastfov@?1??CG_DrawSkyBoxPortal@@9@9 300e1850     cg_view.obj
 0003:0000b404       ?code@?1??unescape_string@@9@9 300e2404     q_shared.obj
 0003:0000baec       ?staticNULL@?1??String_Alloc@@9@9 300e2aec     ui_shared.obj
 0003:0000baf0       _g_bindings                300e2af0     ui_shared.obj
 0003:0000c284       ?if_prefix@?1??bindlocal@@9@9 300e3284     libcurl:connect.obj
 0003:0000c288       ?host_prefix@?1??bindlocal@@9@9 300e3288     libcurl:connect.obj
 0003:0000c28c       ?KEY_NOTUSED@?1??Curl_splayinsert@@9@9 300e328c     libcurl:splay.obj
 0003:0000c294       ?KEY_NOTUSED@?1??Curl_splayremovebyaddr@@9@9 300e3294     libcurl:splay.obj
 0003:0000c2e0       _globalScriptData          300e32e0     bg_animation.obj
 0003:0000c2e4       _globalFilename            300e32e4     bg_animation.obj
 0003:0000c2e8       _numDefines                300e32e8     bg_animation.obj
 0003:0000c33c       _defineStringsOffset       300e333c     bg_animation.obj
 0003:0000c340       _defineStrings             300e3340     bg_animation.obj
 0003:0000ea50       _defineStr                 300e5a50     bg_animation.obj
 0003:0000f4d0       _defineBits                300e64d0     bg_animation.obj
 0003:0000ff50       _parseMovetype             300e6f50     bg_animation.obj
 0003:0000ff54       _parseEvent                300e6f54     bg_animation.obj
 0003:0000ff58       _animationPool             300e6f58     bg_animgroup.obj
 0003:00055f58       ?string@?1??BG_RAG_ParseError@@9@9 3012cf58     bg_animgroup.obj
 0003:00056f58       ?string@?1??BG_PCF_ParseError@@9@9 3012df58     bg_character.obj
 0003:00057f58       ?string@?1??PC_SourceWarning@@9@9 3012ef58     bg_misc.obj
 0003:00058f58       ?string@?1??PC_SourceError@@9@9 3012ff58     bg_misc.obj
 0003:00059f58       _locInfo                   30130f58     bg_misc.obj
 0003:00059f68       ?coord@?1??BG_GetLocationString@@9@9 30130f68     bg_misc.obj
 0003:00059f70       ?line@?1??ConcatArgs@@9@9  30130f70     bg_misc.obj
 0003:0005a378       _scriptSpeakers            30131378     bg_sscript.obj
 0003:00063b78       _numScriptSpeakers         3013ab78     bg_sscript.obj
 0003:00063b80       ?string@?1??BG_SS_ParseError@@9@9 3013ab80     bg_sscript.obj
 0003:00064b80       _tracemap                  3013bb80     bg_tracemap.obj
 0003:00124b9c       _one_over_mapgrid_factor   301fbb9c     bg_tracemap.obj
 0003:00124ba4       ?lastDraw@?1??CG_GenerateTracemap@@9@9 301fbba4     bg_tracemap.obj
 0003:00124ba8       ?tracecount@?1??CG_GenerateTracemap@@9@9 301fbba8     bg_tracemap.obj
 0003:00124bb0       _kludgeChecked             301fbbb0     cg_atmospheric.obj
 0003:00124bb4       _kludgeResult              301fbbb4     cg_atmospheric.obj
 0003:00124bb8       _cg_atmFx                  301fbbb8     cg_atmospheric.obj
 0003:001672e0       _mapEntities               3023e2e0     cg_commandmap.obj
 0003:001722e0       _mapEntityCount            302492e0     cg_commandmap.obj
 0003:001722e4       _mapEntityTime             302492e4     cg_commandmap.obj
 0003:001722e8       _expanded                  302492e8     cg_commandmap.obj
 0003:001722ec       _gridInitDone              302492ec     cg_commandmap.obj
 0003:001722f0       _gridStartCoord            302492f0     cg_commandmap.obj
 0003:001722f8       _gridStep                  302492f8     cg_commandmap.obj
 0003:00172408       ?hudText@?1??CG_getHudList@@9@9 30249408     cg_consolecmds.obj
 0003:00174428       _crashLog                  3024b428     cg_crash.obj
 0003:00174430       ?previousTimes@?1??CG_DrawFPS@@9@9 3024b430     cg_draw.obj
 0003:001744b0       ?index@?1??CG_DrawFPS@@9@9 3024b4b0     cg_draw.obj
 0003:001744b4       ?previous@?1??CG_DrawFPS@@9@9 3024b4b4     cg_draw.obj
 0003:001744b8       ?highestSpeed@?1??CG_DrawSpeed@@9@9 3024b4b8     cg_draw.obj
 0003:001744bc       ?speed@?1??CG_DrawSpeed@@9@9 3024b4bc     cg_draw.obj
 0003:001744c0       ?lasttime@?1??CG_DrawSpeed@@9@9 3024b4c0     cg_draw.obj
 0003:001744c4       ?doScreenshot@?2??CG_DrawIntermission@@9@9 3024b4c4     cg_draw.obj
 0003:001744c8       ?doDemostop@?2??CG_DrawIntermission@@9@9 3024b4c8     cg_draw.obj
 0003:001744cc       ?lastconfigGet@?1??CG_DrawSpectatorMessage@@9@9 3024b4cc     cg_draw.obj
 0003:001744d0       ?lastTime@?1??CG_DrawFlashFade@@9@9 3024b4d0     cg_draw.obj
 0003:001744d4       ?lastangle@?1??CG_DrawNewCompass@@9@9 3024b4d4     cg_draw.obj
 0003:001744d8       ?anglespeed@?1??CG_DrawNewCompass@@9@9 3024b4d8     cg_draw.obj
 0003:001744dc       _statsDebugPos             3024b4dc     cg_draw.obj
 0003:001744e0       _statsDebugStrings         3024b4e0     cg_draw.obj
 0003:001750e0       _statsDebugTime            3024c0e0     cg_draw.obj
 0003:001750f8       _statsDebugTextWidth       3024c0f8     cg_draw.obj
 0003:00175110       ?color@?1??CG_FadeColor@@9@9 3024c110     cg_drawtools.obj
 0003:00175120       ?staticbuf@?1??CG_TranslateString@@9@9 3024c120     cg_drawtools.obj
 0003:00184b20       ?bufcount@?1??CG_TranslateString@@9@9 3025bb20     cg_drawtools.obj
 0003:00184b28       _SmokeSprites              3025bb28     cg_effects.obj
 0003:0018c328       _SmokeSpriteCount          30263328     cg_effects.obj
 0003:0018c32c       _firstfreesmokesprite      3026332c     cg_effects.obj
 0003:0018c330       _lastusedsmokesprite       30263330     cg_effects.obj
 0003:0018c334       ?dir@?1??CG_EntityEffects@@9@9 30263334     cg_ents.obj
 0003:0018c340       ?footstepcnt@?1??CG_EntityEvent@@9@9 30263340     cg_event.obj
 0003:0018c344       ?splashfootstepcnt@?1??CG_EntityEvent@@9@9 30263344     cg_event.obj
 0003:0018c348       _sortedFireTeamClients     30263348     cg_fireteamoverlay.obj
 0003:0018c448       _flameChunks               30263448     cg_flamethrower.obj
 0003:001b3448       _freeFlameChunks           3028a448     cg_flamethrower.obj
 0003:001b344c       _activeFlameChunks         3028a44c     cg_flamethrower.obj
 0003:001b3450       _headFlameChunks           3028a450     cg_flamethrower.obj
 0003:001b3454       _initFlameChunks           3028a454     cg_flamethrower.obj
 0003:001b3458       _numFlameChunksInuse       3028a458     cg_flamethrower.obj
 0003:001b345c       _flameChunkMins            3028a45c     cg_flamethrower.obj
 0003:001b3468       _centFlameInfo             3028a468     cg_flamethrower.obj
 0003:001c0468       _centFlameStatus           30297468     cg_flamethrower.obj
 0003:001c2468       _flameChunkMaxs            30299468     cg_flamethrower.obj
 0003:001c2474       _vright                    30299474     cg_flamethrower.obj
 0003:001c2480       _vup                       30299480     cg_flamethrower.obj
 0003:001c248c       _rright                    3029948c     cg_flamethrower.obj
 0003:001c2498       _rup                       30299498     cg_flamethrower.obj
 0003:001c24a4       _numClippedFlames          302994a4     cg_flamethrower.obj
 0003:001c24a8       _flameShaders              302994a8     cg_flamethrower.obj
 0003:001c255c       _nozzleShaders             3029955c     cg_flamethrower.obj
 0003:001c257c       ?lastPos@?1??CG_AddFlameSpriteToScene@@9@9 3029957c     cg_flamethrower.obj
 0003:001c2588       _nextFlameLight            30299588     cg_flamethrower.obj
 0003:001c258c       ?lastcalled@?1??CG_DrawInformation@@9@9 3029958c     cg_info.obj
 0003:001c2590       ?lastHighlight@?1??CG_LimboPanel_Draw@@9@9 30299590     cg_limbopanel.obj
 0003:001c2598       ?inside@?1??CG_DrawConnectScreen@@9@9 30299598     cg_loadpanel.obj
 0003:001c25a0       ?lastBloodMark@?2??CG_FragmentBounceMark@@9@9 302995a0     cg_localents.obj
 0003:001c25b0       ?buffer@?1??CG_Argv@@9@9   302995b0     cg_main.obj
 0003:001c29b0       ?buf@?1??CG_LoadMenus@@9@9 302999b0     cg_main.obj
 0003:001c39b4       _numShaderAnims            3029a9b4     cg_particles.obj
 0003:001c39b8       _shaderAnims               3029a9b8     cg_particles.obj
 0003:001c41b8       _roll                      3029b1b8     cg_particles.obj
 0003:001c41c0       _dp_realtime               3029b1c0     cg_players.obj
 0003:001c41c4       _jumpHeight                3029b1c4     cg_players.obj
 0003:001c41c8       ?index@?1??vtosf@@9@9      3029b1c8     cg_players.obj
 0003:001c41d0       ?str@?1??vtosf@@9@9        3029b1d0     cg_players.obj
 0003:001c43d0       _cg_numSolidEntities       3029b3d0     cg_predict.obj
 0003:001c43d4       _cg_numSolidFTEntities     3029b3d4     cg_predict.obj
 0003:001c43d8       _cg_solidEntities          3029b3d8     cg_predict.obj
 0003:001c4bd8       _cg_solidFTEntities        3029bbd8     cg_predict.obj
 0003:001c53d8       _cg_numTriggerEntities     3029c3d8     cg_predict.obj
 0003:001c53e0       _cg_triggerEntities        3029c3e0     cg_predict.obj
 0003:001c5be0       ?token@?1??CG_LocalizeServerCommand@@9@9 3029cbe0     cg_servercmds.obj
 0003:001c5fe0       _oldValid                  3029cfe0     cg_snapshot.obj
 0003:001c6fe0       ?prevmap@?6??CG_SetInitialSnapshot@@9@9 3029dfe0     cg_snapshot.obj
 0003:001c7028       _hashTable                 3029e028     cg_sound.obj
 0003:001c8028       _soundScripts              3029f028     cg_sound.obj
 0003:0022c028       _soundScriptSounds         30303028     cg_sound.obj
 0003:00ac4028       _speakerShader             30b9b028     cg_sound.obj
 0003:00ac402c       _speakerShaderGrayScale    30b9b02c     cg_sound.obj
 0003:00ac4030       _editSpeaker               30b9b030     cg_sound.obj
 0003:00ac4034       _undoSpeakerIndex          30b9b034     cg_sound.obj
 0003:00ac4038       _undoSpeaker               30b9b038     cg_sound.obj
 0003:00ac40d0       _editSpeakerActive         30b9b0d0     cg_sound.obj
 0003:00ac40d4       _editSpeakerHandle         30b9b0d4     cg_sound.obj
 0003:00ac40f0       _numSpeakersInPvs          30b9b0f0     cg_sound.obj
 0003:00ac40f4       _noiseMatchCount           30b9b0f4     cg_sound.obj
 0003:00ac40f8       _noiseMatchString          30b9b0f8     cg_sound.obj
 0003:00ac4138       _noiseMatchIndex           30b9b138     cg_sound.obj
 0003:00ac4140       ?index@?1??vtos@@9@9       30b9b140     cg_spawn.obj
 0003:00ac4148       ?str@?1??vtos@@9@9         30b9b148     cg_spawn.obj
 0003:00ac424c       _vforward                  30b9b24c     cg_trails.obj
 0003:00ac4258       _vright                    30b9b258     cg_trails.obj
 0003:00ac4264       _vup                       30b9b264     cg_trails.obj
 0003:00ac4270       _verts                     30b9b270     cg_trails.obj
 0003:00ad0270       _outVerts                  30ba7270     cg_trails.obj
 0003:00af4270       ?hash@?1??CG_PBCompatibleMD5@@9@9 30bcb270     cg_uid.obj
 0003:00af4298       _frustum                   30bcb298     cg_view.obj
 0003:00af42d8       ?string@?1??CG_RW_ParseError@@9@9 30bcb2d8     cg_weapons.obj
 0003:00af52d8       _debuggingweapon           30bcc2d8     cg_weapons.obj
 0003:00af52dc       ?bnk@?1??CG_WeaponIndex@@9@9 30bcc2dc     cg_weapons.obj
 0003:00af52e0       ?cyc@?1??CG_WeaponIndex@@9@9 30bcc2e0     cg_weapons.obj
 0003:00af52e4       ?lastBloodSpat@?1??CG_Bullet@@9@9 30bcc2e4     cg_weapons.obj
 0003:00af5304       ?tmp@?1??myftol@@9@9       30bcc304     q_math.obj
 0003:00af5308       ?sr@?1??AngleVectors@@9@9  30bcc308     q_math.obj
 0003:00af530c       ?sp@?1??AngleVectors@@9@9  30bcc30c     q_math.obj
 0003:00af5310       ?sy@?1??AngleVectors@@9@9  30bcc310     q_math.obj
 0003:00af5314       ?cr@?1??AngleVectors@@9@9  30bcc314     q_math.obj
 0003:00af5318       ?cp@?1??AngleVectors@@9@9  30bcc318     q_math.obj
 0003:00af531c       ?cy@?1??AngleVectors@@9@9  30bcc31c     q_math.obj
 0003:00af5320       __BigShort                 30bcc320     q_shared.obj
 0003:00af5324       __LittleShort              30bcc324     q_shared.obj
 0003:00af5328       __BigLong                  30bcc328     q_shared.obj
 0003:00af532c       __LittleLong               30bcc32c     q_shared.obj
 0003:00af5330       __BigLong64                30bcc330     q_shared.obj
 0003:00af5334       __LittleLong64             30bcc334     q_shared.obj
 0003:00af5338       __BigFloat                 30bcc338     q_shared.obj
 0003:00af533c       __LittleFloat              30bcc33c     q_shared.obj
 0003:00af5340       _com_token                 30bcc340     q_shared.obj
 0003:00af5740       _com_parsename             30bcc740     q_shared.obj
 0003:00af5b40       _com_lines                 30bccb40     q_shared.obj
 0003:00af5b44       _backup_lines              30bccb44     q_shared.obj
 0003:00af5b48       _backup_text               30bccb48     q_shared.obj
 0003:00af5b4c       ?index@?1??va@@9@9         30bccb4c     q_shared.obj
 0003:00af5b50       ?string@?1??COM_ParseError@@9@9 30bccb50     q_shared.obj
 0003:00af6b50       ?string@?1??COM_ParseWarning@@9@9 30bcdb50     q_shared.obj
 0003:00af7b50       ?temp_buffer@?1??va@@9@9   30bceb50     q_shared.obj
 0003:00aff850       ?string@?1??va@@9@9        30bd6850     q_shared.obj
 0003:00b07550       ?index@?1??tv@@9@9         30bde550     q_shared.obj
 0003:00b07554       ?valueindex@?1??Info_ValueForKey@@9@9 30bde554     q_shared.obj
 0003:00b07558       ?vecs@?1??tv@@9@9          30bde558     q_shared.obj
 0003:00b075b8       ?value@?1??Info_ValueForKey@@9@9 30bde5b8     q_shared.obj
 0003:00b0b5b8       ?final@?1??Q_StrReplace@@9@9 30be25b8     q_shared.obj
 0003:00b0b9b8       ?buf@?1??do_escape@@9@9    30be29b8     q_shared.obj
 0003:00b0b9bc       ?bufsize@?1??do_escape@@9@9 30be29bc     q_shared.obj
 0003:00b0b9dc       _scrollInfo                30be29dc     ui_shared.obj
 0003:00b0b9fc       _captureFunc               30be29fc     ui_shared.obj
 0003:00b0ba00       _captureData               30be2a00     ui_shared.obj
 0003:00b0ba04       _itemCapture               30be2a04     ui_shared.obj
 0003:00b0ba08       _debugMode                 30be2a08     ui_shared.obj
 0003:00b0ba0c       _lastListBoxClickTime      30be2a0c     ui_shared.obj
 0003:00b0ba10       _memoryPool                30be2a10     ui_shared.obj
 0003:00c8ba10       _allocPoint                30d62a10     ui_shared.obj
 0003:00c8ba14       _outOfMemory               30d62a14     ui_shared.obj
 0003:00c8ba18       _strPoolIndex              30d62a18     ui_shared.obj
 0003:00c8ba1c       _strHandleCount            30d62a1c     ui_shared.obj
 0003:00c8ba20       _strPool                   30d62a20     ui_shared.obj
 0003:00ceba20       _strHandle                 30dc2a20     ui_shared.obj
 0003:00ceda20       ?rect@?1??Item_CorrectedTextRect@@9@9 30dc4a20     ui_shared.obj
 0003:00ceda30       ?inHandleKey@?L@??Menu_HandleKey@@9@9 30dc4a30     ui_shared.obj
 0003:00ceda34       _initialized               30dc4a34     libcurl:easy.obj
 0003:00ceda38       _init_flags                30dc4a38     libcurl:easy.obj
 0003:00ceda3c       _hostname_cache            30dc4a3c     libcurl:hostip.obj
 0003:00ceda54       _host_cache_initialized    30dc4a54     libcurl:hostip.obj
 0003:00ceda58       _randseed                  30dc4a58     libcurl:curl_rand.obj
 0003:00ceda5c       ?tv_zero@?1??multi_timeout@@9@9 30dc4a5c     libcurl:multi.obj
 0003:00ceda68       _GS_ExceptionRecord        30dc4a68     MSVCRT:gs_report.obj
 0003:00cedab8       _GS_ContextRecord          30dc4ab8     MSVCRT:gs_report.obj
 0003:00cedd84       ?__proc_attached@@3HA      30dc4d84     MSVCRT:dll_dllmain.obj
 0003:00ceddb0       ?is_initialized_as_dll@@3_NA 30dc4db0     MSVCRT:utility.obj
 0003:00ceddb1       ?module_local_atexit_table_initialized@@3_NA 30dc4db1     MSVCRT:utility.obj
 0003:00ceddb4       ?module_local_atexit_table@@3U_onexit_table_t@@A 30dc4db4     MSVCRT:utility.obj
 0003:00ceddc0       ?module_local_at_quick_exit_table@@3U_onexit_table_t@@A 30dc4dc0     MSVCRT:utility.obj
 0004:00000060       $R000000                   339cb060     * linker generated manifest res *
